
cvToDCMotor.elf:     file format elf32-avr

Sections:
Idx Name          Size      VMA       LMA       File off  Algn
  0 .data         00000026  00800100  0000093a  000009ce  2**0
                  CONTENTS, ALLOC, LOAD, DATA
  1 .text         0000093a  00000000  00000000  00000094  2**1
                  CONTENTS, ALLOC, LOAD, READONLY, CODE
  2 .bss          000000c1  00800126  00800126  000009f4  2**0
                  ALLOC
  3 .stab         00002fd0  00000000  00000000  000009f4  2**2
                  CONTENTS, READONLY, DEBUGGING
  4 .stabstr      00000efe  00000000  00000000  000039c4  2**0
                  CONTENTS, READONLY, DEBUGGING
  5 .comment      00000011  00000000  00000000  000048c2  2**0
                  CONTENTS, READONLY
  6 .debug_aranges 000001b8  00000000  00000000  000048d8  2**3
                  CONTENTS, READONLY, DEBUGGING
  7 .debug_info   00000a49  00000000  00000000  00004a90  2**0
                  CONTENTS, READONLY, DEBUGGING
  8 .debug_abbrev 000001c8  00000000  00000000  000054d9  2**0
                  CONTENTS, READONLY, DEBUGGING
  9 .debug_line   00000506  00000000  00000000  000056a1  2**0
                  CONTENTS, READONLY, DEBUGGING
 10 .debug_frame  00000088  00000000  00000000  00005ba8  2**2
                  CONTENTS, READONLY, DEBUGGING
 11 .debug_str    000000c6  00000000  00000000  00005c30  2**0
                  CONTENTS, READONLY, DEBUGGING
 12 .debug_loc    000001e8  00000000  00000000  00005cf6  2**0
                  CONTENTS, READONLY, DEBUGGING
 13 .debug_ranges 00000028  00000000  00000000  00005ede  2**0
                  CONTENTS, READONLY, DEBUGGING

Disassembly of section .text:

00000000 <__vectors>:
   0:	5c c0       	rjmp	.+184    	; 0xba <__ctors_end>
   2:	00 00       	nop
   4:	7f c0       	rjmp	.+254    	; 0x104 <__bad_interrupt>
   6:	00 00       	nop
   8:	7d c0       	rjmp	.+250    	; 0x104 <__bad_interrupt>
   a:	00 00       	nop
   c:	7b c0       	rjmp	.+246    	; 0x104 <__bad_interrupt>
   e:	00 00       	nop
  10:	79 c0       	rjmp	.+242    	; 0x104 <__bad_interrupt>
  12:	00 00       	nop
  14:	77 c0       	rjmp	.+238    	; 0x104 <__bad_interrupt>
  16:	00 00       	nop
  18:	75 c0       	rjmp	.+234    	; 0x104 <__bad_interrupt>
  1a:	00 00       	nop
  1c:	73 c0       	rjmp	.+230    	; 0x104 <__bad_interrupt>
  1e:	00 00       	nop
  20:	71 c0       	rjmp	.+226    	; 0x104 <__bad_interrupt>
  22:	00 00       	nop
  24:	6f c0       	rjmp	.+222    	; 0x104 <__bad_interrupt>
  26:	00 00       	nop
  28:	6d c0       	rjmp	.+218    	; 0x104 <__bad_interrupt>
  2a:	00 00       	nop
  2c:	6b c0       	rjmp	.+214    	; 0x104 <__bad_interrupt>
  2e:	00 00       	nop
  30:	69 c0       	rjmp	.+210    	; 0x104 <__bad_interrupt>
  32:	00 00       	nop
  34:	67 c0       	rjmp	.+206    	; 0x104 <__bad_interrupt>
  36:	00 00       	nop
  38:	65 c0       	rjmp	.+202    	; 0x104 <__bad_interrupt>
  3a:	00 00       	nop
  3c:	63 c0       	rjmp	.+198    	; 0x104 <__bad_interrupt>
  3e:	00 00       	nop
  40:	d5 c2       	rjmp	.+1450   	; 0x5ec <__vector_16>
  42:	00 00       	nop
  44:	5f c0       	rjmp	.+190    	; 0x104 <__bad_interrupt>
  46:	00 00       	nop
  48:	de c1       	rjmp	.+956    	; 0x406 <__vector_18>
  4a:	00 00       	nop
  4c:	16 c2       	rjmp	.+1068   	; 0x47a <__vector_19>
  4e:	00 00       	nop
  50:	59 c0       	rjmp	.+178    	; 0x104 <__bad_interrupt>
  52:	00 00       	nop
  54:	57 c0       	rjmp	.+174    	; 0x104 <__bad_interrupt>
  56:	00 00       	nop
  58:	55 c0       	rjmp	.+170    	; 0x104 <__bad_interrupt>
  5a:	00 00       	nop
  5c:	53 c0       	rjmp	.+166    	; 0x104 <__bad_interrupt>
  5e:	00 00       	nop
  60:	51 c0       	rjmp	.+162    	; 0x104 <__bad_interrupt>
  62:	00 00       	nop
  64:	4f c0       	rjmp	.+158    	; 0x104 <__bad_interrupt>
	...

00000068 <digital_pin_to_timer_PGM>:
  68:	00 00 00 07 00 02 01 00 00 03 04 06 00 00 00 00     ................
  78:	00 00 00 00                                         ....

0000007c <digital_pin_to_bit_mask_PGM>:
  7c:	01 02 04 08 10 20 40 80 01 02 04 08 10 20 01 02     ..... @...... ..
  8c:	04 08 10 20                                         ... 

00000090 <digital_pin_to_port_PGM>:
  90:	04 04 04 04 04 04 04 04 02 02 02 02 02 02 03 03     ................
  a0:	03 03 03 03                                         ....

000000a4 <port_to_output_PGM>:
  a4:	00 00 00 00 25 00 28 00 2b 00                       ....%.(.+.

000000ae <port_to_mode_PGM>:
  ae:	00 00 00 00 24 00 27 00 2a 00                       ....$.'.*.

000000b8 <__ctors_start>:
  b8:	78 02       	muls	r23, r24

000000ba <__ctors_end>:
  ba:	11 24       	eor	r1, r1
  bc:	1f be       	out	0x3f, r1	; 63
  be:	cf ef       	ldi	r28, 0xFF	; 255
  c0:	d8 e0       	ldi	r29, 0x08	; 8
  c2:	de bf       	out	0x3e, r29	; 62
  c4:	cd bf       	out	0x3d, r28	; 61

000000c6 <__do_copy_data>:
  c6:	11 e0       	ldi	r17, 0x01	; 1
  c8:	a0 e0       	ldi	r26, 0x00	; 0
  ca:	b1 e0       	ldi	r27, 0x01	; 1
  cc:	ea e3       	ldi	r30, 0x3A	; 58
  ce:	f9 e0       	ldi	r31, 0x09	; 9
  d0:	02 c0       	rjmp	.+4      	; 0xd6 <__do_copy_data+0x10>
  d2:	05 90       	lpm	r0, Z+
  d4:	0d 92       	st	X+, r0
  d6:	a6 32       	cpi	r26, 0x26	; 38
  d8:	b1 07       	cpc	r27, r17
  da:	d9 f7       	brne	.-10     	; 0xd2 <__do_copy_data+0xc>

000000dc <__do_clear_bss>:
  dc:	21 e0       	ldi	r18, 0x01	; 1
  de:	a6 e2       	ldi	r26, 0x26	; 38
  e0:	b1 e0       	ldi	r27, 0x01	; 1
  e2:	01 c0       	rjmp	.+2      	; 0xe6 <.do_clear_bss_start>

000000e4 <.do_clear_bss_loop>:
  e4:	1d 92       	st	X+, r1

000000e6 <.do_clear_bss_start>:
  e6:	a7 3e       	cpi	r26, 0xE7	; 231
  e8:	b2 07       	cpc	r27, r18
  ea:	e1 f7       	brne	.-8      	; 0xe4 <.do_clear_bss_loop>

000000ec <__do_global_ctors>:
  ec:	10 e0       	ldi	r17, 0x00	; 0
  ee:	ca eb       	ldi	r28, 0xBA	; 186
  f0:	d0 e0       	ldi	r29, 0x00	; 0
  f2:	03 c0       	rjmp	.+6      	; 0xfa <__do_global_ctors+0xe>
  f4:	22 97       	sbiw	r28, 0x02	; 2
  f6:	fe 01       	movw	r30, r28
  f8:	1a d4       	rcall	.+2100   	; 0x92e <__tablejump__>
  fa:	c8 3b       	cpi	r28, 0xB8	; 184
  fc:	d1 07       	cpc	r29, r17
  fe:	d1 f7       	brne	.-12     	; 0xf4 <__do_global_ctors+0x8>
 100:	e3 d0       	rcall	.+454    	; 0x2c8 <main>
 102:	11 c4       	rjmp	.+2082   	; 0x926 <exit>

00000104 <__bad_interrupt>:
 104:	7d cf       	rjmp	.-262    	; 0x0 <__vectors>

00000106 <setup>:
 106:	0f 93       	push	r16
 108:	1f 93       	push	r17
 10a:	cf 93       	push	r28
 10c:	df 93       	push	r29
 10e:	c0 e1       	ldi	r28, 0x10	; 16
 110:	d1 e0       	ldi	r29, 0x01	; 1
 112:	0c e0       	ldi	r16, 0x0C	; 12
 114:	11 e0       	ldi	r17, 0x01	; 1
 116:	61 e0       	ldi	r22, 0x01	; 1
 118:	89 91       	ld	r24, Y+
 11a:	97 d3       	rcall	.+1838   	; 0x84a <pinMode>
 11c:	61 e0       	ldi	r22, 0x01	; 1
 11e:	f8 01       	movw	r30, r16
 120:	81 91       	ld	r24, Z+
 122:	8f 01       	movw	r16, r30
 124:	92 d3       	rcall	.+1828   	; 0x84a <pinMode>
 126:	f1 e0       	ldi	r31, 0x01	; 1
 128:	c4 31       	cpi	r28, 0x14	; 20
 12a:	df 07       	cpc	r29, r31
 12c:	a1 f7       	brne	.-24     	; 0x116 <setup+0x10>
 12e:	61 e0       	ldi	r22, 0x01	; 1
 130:	80 91 0a 01 	lds	r24, 0x010A
 134:	8a d3       	rcall	.+1812   	; 0x84a <pinMode>
 136:	61 e0       	ldi	r22, 0x01	; 1
 138:	80 91 0b 01 	lds	r24, 0x010B
 13c:	df 91       	pop	r29
 13e:	cf 91       	pop	r28
 140:	1f 91       	pop	r17
 142:	0f 91       	pop	r16
 144:	82 c3       	rjmp	.+1796   	; 0x84a <pinMode>

00000146 <_Z5motorhbh>:
 146:	ef 92       	push	r14
 148:	ff 92       	push	r15
 14a:	0f 93       	push	r16
 14c:	1f 93       	push	r17
 14e:	cf 93       	push	r28
 150:	df 93       	push	r29
 152:	e8 2e       	mov	r14, r24
 154:	f4 2e       	mov	r15, r20
 156:	c8 2f       	mov	r28, r24
 158:	d0 e0       	ldi	r29, 0x00	; 0
 15a:	cc 0f       	add	r28, r28
 15c:	dd 1f       	adc	r29, r29
 15e:	fe 01       	movw	r30, r28
 160:	e0 5f       	subi	r30, 0xF0	; 240
 162:	fe 4f       	sbci	r31, 0xFE	; 254
 164:	66 23       	and	r22, r22
 166:	b9 f0       	breq	.+46     	; 0x196 <_Z5motorhbh+0x50>
 168:	61 e0       	ldi	r22, 0x01	; 1
 16a:	80 81       	ld	r24, Z
 16c:	a6 d3       	rcall	.+1868   	; 0x8ba <digitalWrite>
 16e:	8e 01       	movw	r16, r28
 170:	0f 5f       	subi	r16, 0xFF	; 255
 172:	1f 4f       	sbci	r17, 0xFF	; 255
 174:	f8 01       	movw	r30, r16
 176:	e0 5f       	subi	r30, 0xF0	; 240
 178:	fe 4f       	sbci	r31, 0xFE	; 254
 17a:	60 e0       	ldi	r22, 0x00	; 0
 17c:	80 81       	ld	r24, Z
 17e:	9d d3       	rcall	.+1850   	; 0x8ba <digitalWrite>
 180:	c4 5f       	subi	r28, 0xF4	; 244
 182:	de 4f       	sbci	r29, 0xFE	; 254
 184:	61 e0       	ldi	r22, 0x01	; 1
 186:	88 81       	ld	r24, Y
 188:	98 d3       	rcall	.+1840   	; 0x8ba <digitalWrite>
 18a:	f8 01       	movw	r30, r16
 18c:	e4 5f       	subi	r30, 0xF4	; 244
 18e:	fe 4f       	sbci	r31, 0xFE	; 254
 190:	60 e0       	ldi	r22, 0x00	; 0
 192:	80 81       	ld	r24, Z
 194:	16 c0       	rjmp	.+44     	; 0x1c2 <_Z5motorhbh+0x7c>
 196:	60 e0       	ldi	r22, 0x00	; 0
 198:	80 81       	ld	r24, Z
 19a:	8f d3       	rcall	.+1822   	; 0x8ba <digitalWrite>
 19c:	8e 01       	movw	r16, r28
 19e:	0f 5f       	subi	r16, 0xFF	; 255
 1a0:	1f 4f       	sbci	r17, 0xFF	; 255
 1a2:	d8 01       	movw	r26, r16
 1a4:	a0 5f       	subi	r26, 0xF0	; 240
 1a6:	be 4f       	sbci	r27, 0xFE	; 254
 1a8:	61 e0       	ldi	r22, 0x01	; 1
 1aa:	8c 91       	ld	r24, X
 1ac:	86 d3       	rcall	.+1804   	; 0x8ba <digitalWrite>
 1ae:	c4 5f       	subi	r28, 0xF4	; 244
 1b0:	de 4f       	sbci	r29, 0xFE	; 254
 1b2:	60 e0       	ldi	r22, 0x00	; 0
 1b4:	88 81       	ld	r24, Y
 1b6:	81 d3       	rcall	.+1794   	; 0x8ba <digitalWrite>
 1b8:	d8 01       	movw	r26, r16
 1ba:	a4 5f       	subi	r26, 0xF4	; 244
 1bc:	be 4f       	sbci	r27, 0xFE	; 254
 1be:	61 e0       	ldi	r22, 0x01	; 1
 1c0:	8c 91       	ld	r24, X
 1c2:	7b d3       	rcall	.+1782   	; 0x8ba <digitalWrite>
 1c4:	ee 2d       	mov	r30, r14
 1c6:	f0 e0       	ldi	r31, 0x00	; 0
 1c8:	e6 5f       	subi	r30, 0xF6	; 246
 1ca:	fe 4f       	sbci	r31, 0xFE	; 254
 1cc:	6f 2d       	mov	r22, r15
 1ce:	70 e0       	ldi	r23, 0x00	; 0
 1d0:	80 81       	ld	r24, Z
 1d2:	df 91       	pop	r29
 1d4:	cf 91       	pop	r28
 1d6:	1f 91       	pop	r17
 1d8:	0f 91       	pop	r16
 1da:	ff 90       	pop	r15
 1dc:	ef 90       	pop	r14
 1de:	ac c2       	rjmp	.+1368   	; 0x738 <analogWrite>

000001e0 <_Z13renderChannelh>:
 1e0:	cf 93       	push	r28
 1e2:	df 93       	push	r29
 1e4:	68 2f       	mov	r22, r24
 1e6:	70 e0       	ldi	r23, 0x00	; 0
 1e8:	93 e0       	ldi	r25, 0x03	; 3
 1ea:	89 9f       	mul	r24, r25
 1ec:	f0 01       	movw	r30, r0
 1ee:	11 24       	eor	r1, r1
 1f0:	ef 01       	movw	r28, r30
 1f2:	cc 0f       	add	r28, r28
 1f4:	dd 1f       	adc	r29, r29
 1f6:	c6 5d       	subi	r28, 0xD6	; 214
 1f8:	de 4f       	sbci	r29, 0xFE	; 254
 1fa:	df 01       	movw	r26, r30
 1fc:	aa 0f       	add	r26, r26
 1fe:	bb 1f       	adc	r27, r27
 200:	a8 5d       	subi	r26, 0xD8	; 216
 202:	be 4f       	sbci	r27, 0xFE	; 254
 204:	28 81       	ld	r18, Y
 206:	39 81       	ldd	r19, Y+1	; 0x01
 208:	4d 91       	ld	r20, X+
 20a:	5c 91       	ld	r21, X
 20c:	24 0f       	add	r18, r20
 20e:	35 1f       	adc	r19, r21
 210:	a9 01       	movw	r20, r18
 212:	52 50       	subi	r21, 0x02	; 2
 214:	32 96       	adiw	r30, 0x02	; 2
 216:	41 30       	cpi	r20, 0x01	; 1
 218:	52 40       	sbci	r21, 0x02	; 2
 21a:	e0 f0       	brcs	.+56     	; 0x254 <_Z13renderChannelh+0x74>
 21c:	a9 01       	movw	r20, r18
 21e:	54 50       	subi	r21, 0x04	; 4
 220:	56 95       	lsr	r21
 222:	47 95       	ror	r20
 224:	ee 0f       	add	r30, r30
 226:	ff 1f       	adc	r31, r31
 228:	e8 5d       	subi	r30, 0xD8	; 216
 22a:	fe 4f       	sbci	r31, 0xFE	; 254
 22c:	20 81       	ld	r18, Z
 22e:	31 81       	ldd	r19, Z+1	; 0x01
 230:	36 95       	lsr	r19
 232:	27 95       	ror	r18
 234:	36 95       	lsr	r19
 236:	27 95       	ror	r18
 238:	42 0f       	add	r20, r18
 23a:	53 1f       	adc	r21, r19
 23c:	4f 3f       	cpi	r20, 0xFF	; 255
 23e:	51 05       	cpc	r21, r1
 240:	19 f0       	breq	.+6      	; 0x248 <_Z13renderChannelh+0x68>
 242:	10 f0       	brcs	.+4      	; 0x248 <_Z13renderChannelh+0x68>
 244:	4f ef       	ldi	r20, 0xFF	; 255
 246:	50 e0       	ldi	r21, 0x00	; 0
 248:	fb 01       	movw	r30, r22
 24a:	ea 5d       	subi	r30, 0xDA	; 218
 24c:	fe 4f       	sbci	r31, 0xFE	; 254
 24e:	40 83       	st	Z, r20
 250:	61 e0       	ldi	r22, 0x01	; 1
 252:	1d c0       	rjmp	.+58     	; 0x28e <_Z13renderChannelh+0xae>
 254:	40 e0       	ldi	r20, 0x00	; 0
 256:	54 e0       	ldi	r21, 0x04	; 4
 258:	42 1b       	sub	r20, r18
 25a:	53 0b       	sbc	r21, r19
 25c:	56 95       	lsr	r21
 25e:	47 95       	ror	r20
 260:	ee 0f       	add	r30, r30
 262:	ff 1f       	adc	r31, r31
 264:	e8 5d       	subi	r30, 0xD8	; 216
 266:	fe 4f       	sbci	r31, 0xFE	; 254
 268:	20 81       	ld	r18, Z
 26a:	31 81       	ldd	r19, Z+1	; 0x01
 26c:	36 95       	lsr	r19
 26e:	27 95       	ror	r18
 270:	36 95       	lsr	r19
 272:	27 95       	ror	r18
 274:	42 0f       	add	r20, r18
 276:	53 1f       	adc	r21, r19
 278:	4f 3f       	cpi	r20, 0xFF	; 255
 27a:	51 05       	cpc	r21, r1
 27c:	19 f0       	breq	.+6      	; 0x284 <_Z13renderChannelh+0xa4>
 27e:	10 f0       	brcs	.+4      	; 0x284 <_Z13renderChannelh+0xa4>
 280:	4f ef       	ldi	r20, 0xFF	; 255
 282:	50 e0       	ldi	r21, 0x00	; 0
 284:	fb 01       	movw	r30, r22
 286:	ea 5d       	subi	r30, 0xDA	; 218
 288:	fe 4f       	sbci	r31, 0xFE	; 254
 28a:	40 83       	st	Z, r20
 28c:	60 e0       	ldi	r22, 0x00	; 0
 28e:	df 91       	pop	r29
 290:	cf 91       	pop	r28
 292:	59 cf       	rjmp	.-334    	; 0x146 <_Z5motorhbh>

00000294 <loop>:
 294:	0f 93       	push	r16
 296:	1f 93       	push	r17
 298:	cf 93       	push	r28
 29a:	df 93       	push	r29
 29c:	c4 e0       	ldi	r28, 0x04	; 4
 29e:	d1 e0       	ldi	r29, 0x01	; 1
 2a0:	08 e2       	ldi	r16, 0x28	; 40
 2a2:	11 e0       	ldi	r17, 0x01	; 1
 2a4:	89 91       	ld	r24, Y+
 2a6:	27 d2       	rcall	.+1102   	; 0x6f6 <analogRead>
 2a8:	f8 01       	movw	r30, r16
 2aa:	81 93       	st	Z+, r24
 2ac:	91 93       	st	Z+, r25
 2ae:	8f 01       	movw	r16, r30
 2b0:	f1 e0       	ldi	r31, 0x01	; 1
 2b2:	ca 30       	cpi	r28, 0x0A	; 10
 2b4:	df 07       	cpc	r29, r31
 2b6:	b1 f7       	brne	.-20     	; 0x2a4 <loop+0x10>
 2b8:	80 e0       	ldi	r24, 0x00	; 0
 2ba:	92 df       	rcall	.-220    	; 0x1e0 <_Z13renderChannelh>
 2bc:	81 e0       	ldi	r24, 0x01	; 1
 2be:	df 91       	pop	r29
 2c0:	cf 91       	pop	r28
 2c2:	1f 91       	pop	r17
 2c4:	0f 91       	pop	r16
 2c6:	8c cf       	rjmp	.-232    	; 0x1e0 <_Z13renderChannelh>

000002c8 <main>:
 2c8:	db d1       	rcall	.+950    	; 0x680 <init>
 2ca:	1d df       	rcall	.-454    	; 0x106 <setup>
 2cc:	e3 df       	rcall	.-58     	; 0x294 <loop>
 2ce:	fe cf       	rjmp	.-4      	; 0x2cc <main+0x4>

000002d0 <_ZN14HardwareSerial9availableEv>:
 2d0:	fc 01       	movw	r30, r24
 2d2:	84 85       	ldd	r24, Z+12	; 0x0c
 2d4:	95 85       	ldd	r25, Z+13	; 0x0d
 2d6:	fc 01       	movw	r30, r24
 2d8:	e0 5c       	subi	r30, 0xC0	; 192
 2da:	ff 4f       	sbci	r31, 0xFF	; 255
 2dc:	20 81       	ld	r18, Z
 2de:	31 81       	ldd	r19, Z+1	; 0x01
 2e0:	fc 01       	movw	r30, r24
 2e2:	ee 5b       	subi	r30, 0xBE	; 190
 2e4:	ff 4f       	sbci	r31, 0xFF	; 255
 2e6:	80 81       	ld	r24, Z
 2e8:	91 81       	ldd	r25, Z+1	; 0x01
 2ea:	28 1b       	sub	r18, r24
 2ec:	39 0b       	sbc	r19, r25
 2ee:	2f 73       	andi	r18, 0x3F	; 63
 2f0:	33 27       	eor	r19, r19
 2f2:	c9 01       	movw	r24, r18
 2f4:	08 95       	ret

000002f6 <_ZN14HardwareSerial4peekEv>:
 2f6:	fc 01       	movw	r30, r24
 2f8:	84 85       	ldd	r24, Z+12	; 0x0c
 2fa:	95 85       	ldd	r25, Z+13	; 0x0d
 2fc:	fc 01       	movw	r30, r24
 2fe:	e0 5c       	subi	r30, 0xC0	; 192
 300:	ff 4f       	sbci	r31, 0xFF	; 255
 302:	40 81       	ld	r20, Z
 304:	51 81       	ldd	r21, Z+1	; 0x01
 306:	fc 01       	movw	r30, r24
 308:	ee 5b       	subi	r30, 0xBE	; 190
 30a:	ff 4f       	sbci	r31, 0xFF	; 255
 30c:	20 81       	ld	r18, Z
 30e:	31 81       	ldd	r19, Z+1	; 0x01
 310:	42 17       	cp	r20, r18
 312:	53 07       	cpc	r21, r19
 314:	41 f0       	breq	.+16     	; 0x326 <_ZN14HardwareSerial4peekEv+0x30>
 316:	01 90       	ld	r0, Z+
 318:	f0 81       	ld	r31, Z
 31a:	e0 2d       	mov	r30, r0
 31c:	e8 0f       	add	r30, r24
 31e:	f9 1f       	adc	r31, r25
 320:	20 81       	ld	r18, Z
 322:	30 e0       	ldi	r19, 0x00	; 0
 324:	02 c0       	rjmp	.+4      	; 0x32a <_ZN14HardwareSerial4peekEv+0x34>
 326:	2f ef       	ldi	r18, 0xFF	; 255
 328:	3f ef       	ldi	r19, 0xFF	; 255
 32a:	c9 01       	movw	r24, r18
 32c:	08 95       	ret

0000032e <_ZN14HardwareSerial4readEv>:
 32e:	fc 01       	movw	r30, r24
 330:	84 85       	ldd	r24, Z+12	; 0x0c
 332:	95 85       	ldd	r25, Z+13	; 0x0d
 334:	fc 01       	movw	r30, r24
 336:	e0 5c       	subi	r30, 0xC0	; 192
 338:	ff 4f       	sbci	r31, 0xFF	; 255
 33a:	40 81       	ld	r20, Z
 33c:	51 81       	ldd	r21, Z+1	; 0x01
 33e:	fc 01       	movw	r30, r24
 340:	ee 5b       	subi	r30, 0xBE	; 190
 342:	ff 4f       	sbci	r31, 0xFF	; 255
 344:	20 81       	ld	r18, Z
 346:	31 81       	ldd	r19, Z+1	; 0x01
 348:	42 17       	cp	r20, r18
 34a:	53 07       	cpc	r21, r19
 34c:	81 f0       	breq	.+32     	; 0x36e <_ZN14HardwareSerial4readEv+0x40>
 34e:	a0 81       	ld	r26, Z
 350:	b1 81       	ldd	r27, Z+1	; 0x01
 352:	a8 0f       	add	r26, r24
 354:	b9 1f       	adc	r27, r25
 356:	8c 91       	ld	r24, X
 358:	20 81       	ld	r18, Z
 35a:	31 81       	ldd	r19, Z+1	; 0x01
 35c:	2f 5f       	subi	r18, 0xFF	; 255
 35e:	3f 4f       	sbci	r19, 0xFF	; 255
 360:	2f 73       	andi	r18, 0x3F	; 63
 362:	33 27       	eor	r19, r19
 364:	31 83       	std	Z+1, r19	; 0x01
 366:	20 83       	st	Z, r18
 368:	28 2f       	mov	r18, r24
 36a:	30 e0       	ldi	r19, 0x00	; 0
 36c:	02 c0       	rjmp	.+4      	; 0x372 <_ZN14HardwareSerial4readEv+0x44>
 36e:	2f ef       	ldi	r18, 0xFF	; 255
 370:	3f ef       	ldi	r19, 0xFF	; 255
 372:	c9 01       	movw	r24, r18
 374:	08 95       	ret

00000376 <_ZN14HardwareSerial5flushEv>:
 376:	fc 01       	movw	r30, r24
 378:	81 a1       	ldd	r24, Z+33	; 0x21
 37a:	88 23       	and	r24, r24
 37c:	29 f0       	breq	.+10     	; 0x388 <_ZN14HardwareSerial5flushEv+0x12>
 37e:	a4 89       	ldd	r26, Z+20	; 0x14
 380:	b5 89       	ldd	r27, Z+21	; 0x15
 382:	8c 91       	ld	r24, X
 384:	86 ff       	sbrs	r24, 6
 386:	fb cf       	rjmp	.-10     	; 0x37e <_ZN14HardwareSerial5flushEv+0x8>
 388:	11 a2       	std	Z+33, r1	; 0x21
 38a:	08 95       	ret

0000038c <_ZN14HardwareSerial5writeEh>:
 38c:	cf 93       	push	r28
 38e:	df 93       	push	r29
 390:	fc 01       	movw	r30, r24
 392:	26 85       	ldd	r18, Z+14	; 0x0e
 394:	37 85       	ldd	r19, Z+15	; 0x0f
 396:	d9 01       	movw	r26, r18
 398:	a0 5c       	subi	r26, 0xC0	; 192
 39a:	bf 4f       	sbci	r27, 0xFF	; 255
 39c:	8d 91       	ld	r24, X+
 39e:	9c 91       	ld	r25, X
 3a0:	11 97       	sbiw	r26, 0x01	; 1
 3a2:	01 96       	adiw	r24, 0x01	; 1
 3a4:	8f 73       	andi	r24, 0x3F	; 63
 3a6:	99 27       	eor	r25, r25
 3a8:	e9 01       	movw	r28, r18
 3aa:	ce 5b       	subi	r28, 0xBE	; 190
 3ac:	df 4f       	sbci	r29, 0xFF	; 255
 3ae:	48 81       	ld	r20, Y
 3b0:	59 81       	ldd	r21, Y+1	; 0x01
 3b2:	84 17       	cp	r24, r20
 3b4:	95 07       	cpc	r25, r21
 3b6:	d9 f3       	breq	.-10     	; 0x3ae <_ZN14HardwareSerial5writeEh+0x22>
 3b8:	0d 90       	ld	r0, X+
 3ba:	bc 91       	ld	r27, X
 3bc:	a0 2d       	mov	r26, r0
 3be:	a2 0f       	add	r26, r18
 3c0:	b3 1f       	adc	r27, r19
 3c2:	6c 93       	st	X, r22
 3c4:	a6 85       	ldd	r26, Z+14	; 0x0e
 3c6:	b7 85       	ldd	r27, Z+15	; 0x0f
 3c8:	a0 5c       	subi	r26, 0xC0	; 192
 3ca:	bf 4f       	sbci	r27, 0xFF	; 255
 3cc:	11 96       	adiw	r26, 0x01	; 1
 3ce:	9c 93       	st	X, r25
 3d0:	8e 93       	st	-X, r24
 3d2:	a6 89       	ldd	r26, Z+22	; 0x16
 3d4:	b7 89       	ldd	r27, Z+23	; 0x17
 3d6:	2c 91       	ld	r18, X
 3d8:	81 e0       	ldi	r24, 0x01	; 1
 3da:	90 e0       	ldi	r25, 0x00	; 0
 3dc:	07 8c       	ldd	r0, Z+31	; 0x1f
 3de:	02 c0       	rjmp	.+4      	; 0x3e4 <_ZN14HardwareSerial5writeEh+0x58>
 3e0:	88 0f       	add	r24, r24
 3e2:	99 1f       	adc	r25, r25
 3e4:	0a 94       	dec	r0
 3e6:	e2 f7       	brpl	.-8      	; 0x3e0 <_ZN14HardwareSerial5writeEh+0x54>
 3e8:	28 2b       	or	r18, r24
 3ea:	2c 93       	st	X, r18
 3ec:	81 e0       	ldi	r24, 0x01	; 1
 3ee:	81 a3       	std	Z+33, r24	; 0x21
 3f0:	04 88       	ldd	r0, Z+20	; 0x14
 3f2:	f5 89       	ldd	r31, Z+21	; 0x15
 3f4:	e0 2d       	mov	r30, r0
 3f6:	80 81       	ld	r24, Z
 3f8:	80 64       	ori	r24, 0x40	; 64
 3fa:	80 83       	st	Z, r24
 3fc:	81 e0       	ldi	r24, 0x01	; 1
 3fe:	90 e0       	ldi	r25, 0x00	; 0
 400:	df 91       	pop	r29
 402:	cf 91       	pop	r28
 404:	08 95       	ret

00000406 <__vector_18>:
 406:	1f 92       	push	r1
 408:	0f 92       	push	r0
 40a:	0f b6       	in	r0, 0x3f	; 63
 40c:	0f 92       	push	r0
 40e:	11 24       	eor	r1, r1
 410:	2f 93       	push	r18
 412:	3f 93       	push	r19
 414:	4f 93       	push	r20
 416:	8f 93       	push	r24
 418:	9f 93       	push	r25
 41a:	ef 93       	push	r30
 41c:	ff 93       	push	r31
 41e:	80 91 c0 00 	lds	r24, 0x00C0
 422:	82 fd       	sbrc	r24, 2
 424:	1c c0       	rjmp	.+56     	; 0x45e <__vector_18+0x58>
 426:	40 91 c6 00 	lds	r20, 0x00C6
 42a:	80 91 da 01 	lds	r24, 0x01DA
 42e:	90 91 db 01 	lds	r25, 0x01DB
 432:	01 96       	adiw	r24, 0x01	; 1
 434:	8f 73       	andi	r24, 0x3F	; 63
 436:	99 27       	eor	r25, r25
 438:	20 91 dc 01 	lds	r18, 0x01DC
 43c:	30 91 dd 01 	lds	r19, 0x01DD
 440:	82 17       	cp	r24, r18
 442:	93 07       	cpc	r25, r19
 444:	71 f0       	breq	.+28     	; 0x462 <__vector_18+0x5c>
 446:	e0 91 da 01 	lds	r30, 0x01DA
 44a:	f0 91 db 01 	lds	r31, 0x01DB
 44e:	e6 56       	subi	r30, 0x66	; 102
 450:	fe 4f       	sbci	r31, 0xFE	; 254
 452:	40 83       	st	Z, r20
 454:	90 93 db 01 	sts	0x01DB, r25
 458:	80 93 da 01 	sts	0x01DA, r24
 45c:	02 c0       	rjmp	.+4      	; 0x462 <__vector_18+0x5c>
 45e:	80 91 c6 00 	lds	r24, 0x00C6
 462:	ff 91       	pop	r31
 464:	ef 91       	pop	r30
 466:	9f 91       	pop	r25
 468:	8f 91       	pop	r24
 46a:	4f 91       	pop	r20
 46c:	3f 91       	pop	r19
 46e:	2f 91       	pop	r18
 470:	0f 90       	pop	r0
 472:	0f be       	out	0x3f, r0	; 63
 474:	0f 90       	pop	r0
 476:	1f 90       	pop	r1
 478:	18 95       	reti

0000047a <__vector_19>:
 47a:	1f 92       	push	r1
 47c:	0f 92       	push	r0
 47e:	0f b6       	in	r0, 0x3f	; 63
 480:	0f 92       	push	r0
 482:	11 24       	eor	r1, r1
 484:	2f 93       	push	r18
 486:	3f 93       	push	r19
 488:	8f 93       	push	r24
 48a:	9f 93       	push	r25
 48c:	ef 93       	push	r30
 48e:	ff 93       	push	r31
 490:	20 91 96 01 	lds	r18, 0x0196
 494:	30 91 97 01 	lds	r19, 0x0197
 498:	80 91 98 01 	lds	r24, 0x0198
 49c:	90 91 99 01 	lds	r25, 0x0199
 4a0:	28 17       	cp	r18, r24
 4a2:	39 07       	cpc	r19, r25
 4a4:	31 f4       	brne	.+12     	; 0x4b2 <__vector_19+0x38>
 4a6:	80 91 c1 00 	lds	r24, 0x00C1
 4aa:	8f 7d       	andi	r24, 0xDF	; 223
 4ac:	80 93 c1 00 	sts	0x00C1, r24
 4b0:	14 c0       	rjmp	.+40     	; 0x4da <__vector_19+0x60>
 4b2:	e0 91 98 01 	lds	r30, 0x0198
 4b6:	f0 91 99 01 	lds	r31, 0x0199
 4ba:	ea 5a       	subi	r30, 0xAA	; 170
 4bc:	fe 4f       	sbci	r31, 0xFE	; 254
 4be:	20 81       	ld	r18, Z
 4c0:	80 91 98 01 	lds	r24, 0x0198
 4c4:	90 91 99 01 	lds	r25, 0x0199
 4c8:	01 96       	adiw	r24, 0x01	; 1
 4ca:	8f 73       	andi	r24, 0x3F	; 63
 4cc:	99 27       	eor	r25, r25
 4ce:	90 93 99 01 	sts	0x0199, r25
 4d2:	80 93 98 01 	sts	0x0198, r24
 4d6:	20 93 c6 00 	sts	0x00C6, r18
 4da:	ff 91       	pop	r31
 4dc:	ef 91       	pop	r30
 4de:	9f 91       	pop	r25
 4e0:	8f 91       	pop	r24
 4e2:	3f 91       	pop	r19
 4e4:	2f 91       	pop	r18
 4e6:	0f 90       	pop	r0
 4e8:	0f be       	out	0x3f, r0	; 63
 4ea:	0f 90       	pop	r0
 4ec:	1f 90       	pop	r1
 4ee:	18 95       	reti

000004f0 <_GLOBAL__sub_I_rx_buffer>:
 4f0:	10 92 37 01 	sts	0x0137, r1
 4f4:	10 92 36 01 	sts	0x0136, r1
 4f8:	88 ee       	ldi	r24, 0xE8	; 232
 4fa:	93 e0       	ldi	r25, 0x03	; 3
 4fc:	a0 e0       	ldi	r26, 0x00	; 0
 4fe:	b0 e0       	ldi	r27, 0x00	; 0
 500:	80 93 38 01 	sts	0x0138, r24
 504:	90 93 39 01 	sts	0x0139, r25
 508:	a0 93 3a 01 	sts	0x013A, r26
 50c:	b0 93 3b 01 	sts	0x013B, r27
 510:	89 e1       	ldi	r24, 0x19	; 25
 512:	91 e0       	ldi	r25, 0x01	; 1
 514:	90 93 35 01 	sts	0x0135, r25
 518:	80 93 34 01 	sts	0x0134, r24
 51c:	8a e9       	ldi	r24, 0x9A	; 154
 51e:	91 e0       	ldi	r25, 0x01	; 1
 520:	90 93 41 01 	sts	0x0141, r25
 524:	80 93 40 01 	sts	0x0140, r24
 528:	86 e5       	ldi	r24, 0x56	; 86
 52a:	91 e0       	ldi	r25, 0x01	; 1
 52c:	90 93 43 01 	sts	0x0143, r25
 530:	80 93 42 01 	sts	0x0142, r24
 534:	85 ec       	ldi	r24, 0xC5	; 197
 536:	90 e0       	ldi	r25, 0x00	; 0
 538:	90 93 45 01 	sts	0x0145, r25
 53c:	80 93 44 01 	sts	0x0144, r24
 540:	84 ec       	ldi	r24, 0xC4	; 196
 542:	90 e0       	ldi	r25, 0x00	; 0
 544:	90 93 47 01 	sts	0x0147, r25
 548:	80 93 46 01 	sts	0x0146, r24
 54c:	80 ec       	ldi	r24, 0xC0	; 192
 54e:	90 e0       	ldi	r25, 0x00	; 0
 550:	90 93 49 01 	sts	0x0149, r25
 554:	80 93 48 01 	sts	0x0148, r24
 558:	81 ec       	ldi	r24, 0xC1	; 193
 55a:	90 e0       	ldi	r25, 0x00	; 0
 55c:	90 93 4b 01 	sts	0x014B, r25
 560:	80 93 4a 01 	sts	0x014A, r24
 564:	82 ec       	ldi	r24, 0xC2	; 194
 566:	90 e0       	ldi	r25, 0x00	; 0
 568:	90 93 4d 01 	sts	0x014D, r25
 56c:	80 93 4c 01 	sts	0x014C, r24
 570:	86 ec       	ldi	r24, 0xC6	; 198
 572:	90 e0       	ldi	r25, 0x00	; 0
 574:	90 93 4f 01 	sts	0x014F, r25
 578:	80 93 4e 01 	sts	0x014E, r24
 57c:	84 e0       	ldi	r24, 0x04	; 4
 57e:	80 93 50 01 	sts	0x0150, r24
 582:	83 e0       	ldi	r24, 0x03	; 3
 584:	80 93 51 01 	sts	0x0151, r24
 588:	87 e0       	ldi	r24, 0x07	; 7
 58a:	80 93 52 01 	sts	0x0152, r24
 58e:	85 e0       	ldi	r24, 0x05	; 5
 590:	80 93 53 01 	sts	0x0153, r24
 594:	81 e0       	ldi	r24, 0x01	; 1
 596:	80 93 54 01 	sts	0x0154, r24
 59a:	08 95       	ret

0000059c <_ZN5Print5writeEPKhj>:
 59c:	cf 92       	push	r12
 59e:	df 92       	push	r13
 5a0:	ef 92       	push	r14
 5a2:	ff 92       	push	r15
 5a4:	0f 93       	push	r16
 5a6:	1f 93       	push	r17
 5a8:	cf 93       	push	r28
 5aa:	df 93       	push	r29
 5ac:	6c 01       	movw	r12, r24
 5ae:	eb 01       	movw	r28, r22
 5b0:	7a 01       	movw	r14, r20
 5b2:	e6 0e       	add	r14, r22
 5b4:	f7 1e       	adc	r15, r23
 5b6:	00 e0       	ldi	r16, 0x00	; 0
 5b8:	10 e0       	ldi	r17, 0x00	; 0
 5ba:	0b c0       	rjmp	.+22     	; 0x5d2 <_ZN5Print5writeEPKhj+0x36>
 5bc:	69 91       	ld	r22, Y+
 5be:	d6 01       	movw	r26, r12
 5c0:	ed 91       	ld	r30, X+
 5c2:	fc 91       	ld	r31, X
 5c4:	01 90       	ld	r0, Z+
 5c6:	f0 81       	ld	r31, Z
 5c8:	e0 2d       	mov	r30, r0
 5ca:	c6 01       	movw	r24, r12
 5cc:	09 95       	icall
 5ce:	08 0f       	add	r16, r24
 5d0:	19 1f       	adc	r17, r25
 5d2:	ce 15       	cp	r28, r14
 5d4:	df 05       	cpc	r29, r15
 5d6:	91 f7       	brne	.-28     	; 0x5bc <_ZN5Print5writeEPKhj+0x20>
 5d8:	c8 01       	movw	r24, r16
 5da:	df 91       	pop	r29
 5dc:	cf 91       	pop	r28
 5de:	1f 91       	pop	r17
 5e0:	0f 91       	pop	r16
 5e2:	ff 90       	pop	r15
 5e4:	ef 90       	pop	r14
 5e6:	df 90       	pop	r13
 5e8:	cf 90       	pop	r12
 5ea:	08 95       	ret

000005ec <__vector_16>:
 5ec:	1f 92       	push	r1
 5ee:	0f 92       	push	r0
 5f0:	0f b6       	in	r0, 0x3f	; 63
 5f2:	0f 92       	push	r0
 5f4:	11 24       	eor	r1, r1
 5f6:	2f 93       	push	r18
 5f8:	3f 93       	push	r19
 5fa:	8f 93       	push	r24
 5fc:	9f 93       	push	r25
 5fe:	af 93       	push	r26
 600:	bf 93       	push	r27
 602:	80 91 de 01 	lds	r24, 0x01DE
 606:	90 91 df 01 	lds	r25, 0x01DF
 60a:	a0 91 e0 01 	lds	r26, 0x01E0
 60e:	b0 91 e1 01 	lds	r27, 0x01E1
 612:	30 91 e6 01 	lds	r19, 0x01E6
 616:	23 2f       	mov	r18, r19
 618:	2d 5f       	subi	r18, 0xFD	; 253
 61a:	2d 37       	cpi	r18, 0x7D	; 125
 61c:	20 f4       	brcc	.+8      	; 0x626 <__vector_16+0x3a>
 61e:	01 96       	adiw	r24, 0x01	; 1
 620:	a1 1d       	adc	r26, r1
 622:	b1 1d       	adc	r27, r1
 624:	05 c0       	rjmp	.+10     	; 0x630 <__vector_16+0x44>
 626:	23 2f       	mov	r18, r19
 628:	2a 57       	subi	r18, 0x7A	; 122
 62a:	02 96       	adiw	r24, 0x02	; 2
 62c:	a1 1d       	adc	r26, r1
 62e:	b1 1d       	adc	r27, r1
 630:	20 93 e6 01 	sts	0x01E6, r18
 634:	80 93 de 01 	sts	0x01DE, r24
 638:	90 93 df 01 	sts	0x01DF, r25
 63c:	a0 93 e0 01 	sts	0x01E0, r26
 640:	b0 93 e1 01 	sts	0x01E1, r27
 644:	80 91 e2 01 	lds	r24, 0x01E2
 648:	90 91 e3 01 	lds	r25, 0x01E3
 64c:	a0 91 e4 01 	lds	r26, 0x01E4
 650:	b0 91 e5 01 	lds	r27, 0x01E5
 654:	01 96       	adiw	r24, 0x01	; 1
 656:	a1 1d       	adc	r26, r1
 658:	b1 1d       	adc	r27, r1
 65a:	80 93 e2 01 	sts	0x01E2, r24
 65e:	90 93 e3 01 	sts	0x01E3, r25
 662:	a0 93 e4 01 	sts	0x01E4, r26
 666:	b0 93 e5 01 	sts	0x01E5, r27
 66a:	bf 91       	pop	r27
 66c:	af 91       	pop	r26
 66e:	9f 91       	pop	r25
 670:	8f 91       	pop	r24
 672:	3f 91       	pop	r19
 674:	2f 91       	pop	r18
 676:	0f 90       	pop	r0
 678:	0f be       	out	0x3f, r0	; 63
 67a:	0f 90       	pop	r0
 67c:	1f 90       	pop	r1
 67e:	18 95       	reti

00000680 <init>:
 680:	78 94       	sei
 682:	84 b5       	in	r24, 0x24	; 36
 684:	82 60       	ori	r24, 0x02	; 2
 686:	84 bd       	out	0x24, r24	; 36
 688:	84 b5       	in	r24, 0x24	; 36
 68a:	81 60       	ori	r24, 0x01	; 1
 68c:	84 bd       	out	0x24, r24	; 36
 68e:	85 b5       	in	r24, 0x25	; 37
 690:	82 60       	ori	r24, 0x02	; 2
 692:	85 bd       	out	0x25, r24	; 37
 694:	85 b5       	in	r24, 0x25	; 37
 696:	81 60       	ori	r24, 0x01	; 1
 698:	85 bd       	out	0x25, r24	; 37
 69a:	ee e6       	ldi	r30, 0x6E	; 110
 69c:	f0 e0       	ldi	r31, 0x00	; 0
 69e:	80 81       	ld	r24, Z
 6a0:	81 60       	ori	r24, 0x01	; 1
 6a2:	80 83       	st	Z, r24
 6a4:	e1 e8       	ldi	r30, 0x81	; 129
 6a6:	f0 e0       	ldi	r31, 0x00	; 0
 6a8:	10 82       	st	Z, r1
 6aa:	80 81       	ld	r24, Z
 6ac:	82 60       	ori	r24, 0x02	; 2
 6ae:	80 83       	st	Z, r24
 6b0:	80 81       	ld	r24, Z
 6b2:	81 60       	ori	r24, 0x01	; 1
 6b4:	80 83       	st	Z, r24
 6b6:	e0 e8       	ldi	r30, 0x80	; 128
 6b8:	f0 e0       	ldi	r31, 0x00	; 0
 6ba:	80 81       	ld	r24, Z
 6bc:	81 60       	ori	r24, 0x01	; 1
 6be:	80 83       	st	Z, r24
 6c0:	e1 eb       	ldi	r30, 0xB1	; 177
 6c2:	f0 e0       	ldi	r31, 0x00	; 0
 6c4:	80 81       	ld	r24, Z
 6c6:	84 60       	ori	r24, 0x04	; 4
 6c8:	80 83       	st	Z, r24
 6ca:	e0 eb       	ldi	r30, 0xB0	; 176
 6cc:	f0 e0       	ldi	r31, 0x00	; 0
 6ce:	80 81       	ld	r24, Z
 6d0:	81 60       	ori	r24, 0x01	; 1
 6d2:	80 83       	st	Z, r24
 6d4:	ea e7       	ldi	r30, 0x7A	; 122
 6d6:	f0 e0       	ldi	r31, 0x00	; 0
 6d8:	80 81       	ld	r24, Z
 6da:	84 60       	ori	r24, 0x04	; 4
 6dc:	80 83       	st	Z, r24
 6de:	80 81       	ld	r24, Z
 6e0:	82 60       	ori	r24, 0x02	; 2
 6e2:	80 83       	st	Z, r24
 6e4:	80 81       	ld	r24, Z
 6e6:	81 60       	ori	r24, 0x01	; 1
 6e8:	80 83       	st	Z, r24
 6ea:	80 81       	ld	r24, Z
 6ec:	80 68       	ori	r24, 0x80	; 128
 6ee:	80 83       	st	Z, r24
 6f0:	10 92 c1 00 	sts	0x00C1, r1
 6f4:	08 95       	ret

000006f6 <analogRead>:
 6f6:	8e 30       	cpi	r24, 0x0E	; 14
 6f8:	08 f0       	brcs	.+2      	; 0x6fc <analogRead+0x6>
 6fa:	8e 50       	subi	r24, 0x0E	; 14
 6fc:	87 70       	andi	r24, 0x07	; 7
 6fe:	20 91 14 01 	lds	r18, 0x0114
 702:	40 e4       	ldi	r20, 0x40	; 64
 704:	24 9f       	mul	r18, r20
 706:	90 01       	movw	r18, r0
 708:	11 24       	eor	r1, r1
 70a:	82 2b       	or	r24, r18
 70c:	80 93 7c 00 	sts	0x007C, r24
 710:	80 91 7a 00 	lds	r24, 0x007A
 714:	80 64       	ori	r24, 0x40	; 64
 716:	80 93 7a 00 	sts	0x007A, r24
 71a:	80 91 7a 00 	lds	r24, 0x007A
 71e:	86 fd       	sbrc	r24, 6
 720:	fc cf       	rjmp	.-8      	; 0x71a <analogRead+0x24>
 722:	20 91 78 00 	lds	r18, 0x0078
 726:	30 91 79 00 	lds	r19, 0x0079
 72a:	93 2f       	mov	r25, r19
 72c:	80 e0       	ldi	r24, 0x00	; 0
 72e:	ac 01       	movw	r20, r24
 730:	42 2b       	or	r20, r18
 732:	9a 01       	movw	r18, r20
 734:	c9 01       	movw	r24, r18
 736:	08 95       	ret

00000738 <analogWrite>:
 738:	1f 93       	push	r17
 73a:	cf 93       	push	r28
 73c:	df 93       	push	r29
 73e:	18 2f       	mov	r17, r24
 740:	eb 01       	movw	r28, r22
 742:	61 e0       	ldi	r22, 0x01	; 1
 744:	82 d0       	rcall	.+260    	; 0x84a <pinMode>
 746:	20 97       	sbiw	r28, 0x00	; 0
 748:	11 f4       	brne	.+4      	; 0x74e <analogWrite+0x16>
 74a:	60 e0       	ldi	r22, 0x00	; 0
 74c:	04 c0       	rjmp	.+8      	; 0x756 <analogWrite+0x1e>
 74e:	cf 3f       	cpi	r28, 0xFF	; 255
 750:	d1 05       	cpc	r29, r1
 752:	31 f4       	brne	.+12     	; 0x760 <analogWrite+0x28>
 754:	61 e0       	ldi	r22, 0x01	; 1
 756:	81 2f       	mov	r24, r17
 758:	df 91       	pop	r29
 75a:	cf 91       	pop	r28
 75c:	1f 91       	pop	r17
 75e:	ad c0       	rjmp	.+346    	; 0x8ba <digitalWrite>
 760:	e1 2f       	mov	r30, r17
 762:	f0 e0       	ldi	r31, 0x00	; 0
 764:	e8 59       	subi	r30, 0x98	; 152
 766:	ff 4f       	sbci	r31, 0xFF	; 255
 768:	e4 91       	lpm	r30, Z
 76a:	e3 30       	cpi	r30, 0x03	; 3
 76c:	b9 f0       	breq	.+46     	; 0x79c <analogWrite+0x64>
 76e:	28 f4       	brcc	.+10     	; 0x77a <analogWrite+0x42>
 770:	e1 30       	cpi	r30, 0x01	; 1
 772:	51 f0       	breq	.+20     	; 0x788 <analogWrite+0x50>
 774:	e2 30       	cpi	r30, 0x02	; 2
 776:	b1 f5       	brne	.+108    	; 0x7e4 <analogWrite+0xac>
 778:	0c c0       	rjmp	.+24     	; 0x792 <analogWrite+0x5a>
 77a:	e6 30       	cpi	r30, 0x06	; 6
 77c:	19 f1       	breq	.+70     	; 0x7c4 <analogWrite+0x8c>
 77e:	e7 30       	cpi	r30, 0x07	; 7
 780:	49 f1       	breq	.+82     	; 0x7d4 <analogWrite+0x9c>
 782:	e4 30       	cpi	r30, 0x04	; 4
 784:	79 f5       	brne	.+94     	; 0x7e4 <analogWrite+0xac>
 786:	14 c0       	rjmp	.+40     	; 0x7b0 <analogWrite+0x78>
 788:	84 b5       	in	r24, 0x24	; 36
 78a:	80 68       	ori	r24, 0x80	; 128
 78c:	84 bd       	out	0x24, r24	; 36
 78e:	c7 bd       	out	0x27, r28	; 39
 790:	2e c0       	rjmp	.+92     	; 0x7ee <analogWrite+0xb6>
 792:	84 b5       	in	r24, 0x24	; 36
 794:	80 62       	ori	r24, 0x20	; 32
 796:	84 bd       	out	0x24, r24	; 36
 798:	c8 bd       	out	0x28, r28	; 40
 79a:	29 c0       	rjmp	.+82     	; 0x7ee <analogWrite+0xb6>
 79c:	80 91 80 00 	lds	r24, 0x0080
 7a0:	80 68       	ori	r24, 0x80	; 128
 7a2:	80 93 80 00 	sts	0x0080, r24
 7a6:	d0 93 89 00 	sts	0x0089, r29
 7aa:	c0 93 88 00 	sts	0x0088, r28
 7ae:	1f c0       	rjmp	.+62     	; 0x7ee <analogWrite+0xb6>
 7b0:	80 91 80 00 	lds	r24, 0x0080
 7b4:	80 62       	ori	r24, 0x20	; 32
 7b6:	80 93 80 00 	sts	0x0080, r24
 7ba:	d0 93 8b 00 	sts	0x008B, r29
 7be:	c0 93 8a 00 	sts	0x008A, r28
 7c2:	15 c0       	rjmp	.+42     	; 0x7ee <analogWrite+0xb6>
 7c4:	80 91 b0 00 	lds	r24, 0x00B0
 7c8:	80 68       	ori	r24, 0x80	; 128
 7ca:	80 93 b0 00 	sts	0x00B0, r24
 7ce:	c0 93 b3 00 	sts	0x00B3, r28
 7d2:	0d c0       	rjmp	.+26     	; 0x7ee <analogWrite+0xb6>
 7d4:	80 91 b0 00 	lds	r24, 0x00B0
 7d8:	80 62       	ori	r24, 0x20	; 32
 7da:	80 93 b0 00 	sts	0x00B0, r24
 7de:	c0 93 b4 00 	sts	0x00B4, r28
 7e2:	05 c0       	rjmp	.+10     	; 0x7ee <analogWrite+0xb6>
 7e4:	c0 38       	cpi	r28, 0x80	; 128
 7e6:	d1 05       	cpc	r29, r1
 7e8:	0c f0       	brlt	.+2      	; 0x7ec <analogWrite+0xb4>
 7ea:	b4 cf       	rjmp	.-152    	; 0x754 <analogWrite+0x1c>
 7ec:	ae cf       	rjmp	.-164    	; 0x74a <analogWrite+0x12>
 7ee:	df 91       	pop	r29
 7f0:	cf 91       	pop	r28
 7f2:	1f 91       	pop	r17
 7f4:	08 95       	ret

000007f6 <turnOffPWM>:
 7f6:	83 30       	cpi	r24, 0x03	; 3
 7f8:	69 f0       	breq	.+26     	; 0x814 <turnOffPWM+0x1e>
 7fa:	28 f4       	brcc	.+10     	; 0x806 <turnOffPWM+0x10>
 7fc:	81 30       	cpi	r24, 0x01	; 1
 7fe:	a1 f0       	breq	.+40     	; 0x828 <turnOffPWM+0x32>
 800:	82 30       	cpi	r24, 0x02	; 2
 802:	11 f5       	brne	.+68     	; 0x848 <turnOffPWM+0x52>
 804:	14 c0       	rjmp	.+40     	; 0x82e <turnOffPWM+0x38>
 806:	86 30       	cpi	r24, 0x06	; 6
 808:	b1 f0       	breq	.+44     	; 0x836 <turnOffPWM+0x40>
 80a:	87 30       	cpi	r24, 0x07	; 7
 80c:	c1 f0       	breq	.+48     	; 0x83e <turnOffPWM+0x48>
 80e:	84 30       	cpi	r24, 0x04	; 4
 810:	d9 f4       	brne	.+54     	; 0x848 <turnOffPWM+0x52>
 812:	04 c0       	rjmp	.+8      	; 0x81c <turnOffPWM+0x26>
 814:	80 91 80 00 	lds	r24, 0x0080
 818:	8f 77       	andi	r24, 0x7F	; 127
 81a:	03 c0       	rjmp	.+6      	; 0x822 <turnOffPWM+0x2c>
 81c:	80 91 80 00 	lds	r24, 0x0080
 820:	8f 7d       	andi	r24, 0xDF	; 223
 822:	80 93 80 00 	sts	0x0080, r24
 826:	08 95       	ret
 828:	84 b5       	in	r24, 0x24	; 36
 82a:	8f 77       	andi	r24, 0x7F	; 127
 82c:	02 c0       	rjmp	.+4      	; 0x832 <turnOffPWM+0x3c>
 82e:	84 b5       	in	r24, 0x24	; 36
 830:	8f 7d       	andi	r24, 0xDF	; 223
 832:	84 bd       	out	0x24, r24	; 36
 834:	08 95       	ret
 836:	80 91 b0 00 	lds	r24, 0x00B0
 83a:	8f 77       	andi	r24, 0x7F	; 127
 83c:	03 c0       	rjmp	.+6      	; 0x844 <turnOffPWM+0x4e>
 83e:	80 91 b0 00 	lds	r24, 0x00B0
 842:	8f 7d       	andi	r24, 0xDF	; 223
 844:	80 93 b0 00 	sts	0x00B0, r24
 848:	08 95       	ret

0000084a <pinMode>:
 84a:	cf 93       	push	r28
 84c:	df 93       	push	r29
 84e:	90 e0       	ldi	r25, 0x00	; 0
 850:	fc 01       	movw	r30, r24
 852:	e4 58       	subi	r30, 0x84	; 132
 854:	ff 4f       	sbci	r31, 0xFF	; 255
 856:	44 91       	lpm	r20, Z
 858:	fc 01       	movw	r30, r24
 85a:	e0 57       	subi	r30, 0x70	; 112
 85c:	ff 4f       	sbci	r31, 0xFF	; 255
 85e:	84 91       	lpm	r24, Z
 860:	88 23       	and	r24, r24
 862:	41 f1       	breq	.+80     	; 0x8b4 <pinMode+0x6a>
 864:	90 e0       	ldi	r25, 0x00	; 0
 866:	88 0f       	add	r24, r24
 868:	99 1f       	adc	r25, r25
 86a:	fc 01       	movw	r30, r24
 86c:	e2 55       	subi	r30, 0x52	; 82
 86e:	ff 4f       	sbci	r31, 0xFF	; 255
 870:	25 91       	lpm	r18, Z+
 872:	34 91       	lpm	r19, Z
 874:	d9 01       	movw	r26, r18
 876:	8c 55       	subi	r24, 0x5C	; 92
 878:	9f 4f       	sbci	r25, 0xFF	; 255
 87a:	fc 01       	movw	r30, r24
 87c:	85 91       	lpm	r24, Z+
 87e:	94 91       	lpm	r25, Z
 880:	c8 2f       	mov	r28, r24
 882:	d9 2f       	mov	r29, r25
 884:	9f b7       	in	r25, 0x3f	; 63
 886:	f8 94       	cli
 888:	8c 91       	ld	r24, X
 88a:	61 11       	cpse	r22, r1
 88c:	06 c0       	rjmp	.+12     	; 0x89a <pinMode+0x50>
 88e:	40 95       	com	r20
 890:	84 23       	and	r24, r20
 892:	8c 93       	st	X, r24
 894:	88 81       	ld	r24, Y
 896:	84 23       	and	r24, r20
 898:	08 c0       	rjmp	.+16     	; 0x8aa <pinMode+0x60>
 89a:	62 30       	cpi	r22, 0x02	; 2
 89c:	41 f4       	brne	.+16     	; 0x8ae <pinMode+0x64>
 89e:	24 2f       	mov	r18, r20
 8a0:	20 95       	com	r18
 8a2:	82 23       	and	r24, r18
 8a4:	8c 93       	st	X, r24
 8a6:	88 81       	ld	r24, Y
 8a8:	84 2b       	or	r24, r20
 8aa:	88 83       	st	Y, r24
 8ac:	02 c0       	rjmp	.+4      	; 0x8b2 <pinMode+0x68>
 8ae:	84 2b       	or	r24, r20
 8b0:	8c 93       	st	X, r24
 8b2:	9f bf       	out	0x3f, r25	; 63
 8b4:	df 91       	pop	r29
 8b6:	cf 91       	pop	r28
 8b8:	08 95       	ret

000008ba <digitalWrite>:
 8ba:	0f 93       	push	r16
 8bc:	1f 93       	push	r17
 8be:	cf 93       	push	r28
 8c0:	df 93       	push	r29
 8c2:	1f 92       	push	r1
 8c4:	cd b7       	in	r28, 0x3d	; 61
 8c6:	de b7       	in	r29, 0x3e	; 62
 8c8:	28 2f       	mov	r18, r24
 8ca:	30 e0       	ldi	r19, 0x00	; 0
 8cc:	f9 01       	movw	r30, r18
 8ce:	e8 59       	subi	r30, 0x98	; 152
 8d0:	ff 4f       	sbci	r31, 0xFF	; 255
 8d2:	84 91       	lpm	r24, Z
 8d4:	f9 01       	movw	r30, r18
 8d6:	e4 58       	subi	r30, 0x84	; 132
 8d8:	ff 4f       	sbci	r31, 0xFF	; 255
 8da:	14 91       	lpm	r17, Z
 8dc:	f9 01       	movw	r30, r18
 8de:	e0 57       	subi	r30, 0x70	; 112
 8e0:	ff 4f       	sbci	r31, 0xFF	; 255
 8e2:	04 91       	lpm	r16, Z
 8e4:	00 23       	and	r16, r16
 8e6:	c9 f0       	breq	.+50     	; 0x91a <__stack+0x1b>
 8e8:	88 23       	and	r24, r24
 8ea:	19 f0       	breq	.+6      	; 0x8f2 <digitalWrite+0x38>
 8ec:	69 83       	std	Y+1, r22	; 0x01
 8ee:	83 df       	rcall	.-250    	; 0x7f6 <turnOffPWM>
 8f0:	69 81       	ldd	r22, Y+1	; 0x01
 8f2:	e0 2f       	mov	r30, r16
 8f4:	f0 e0       	ldi	r31, 0x00	; 0
 8f6:	ee 0f       	add	r30, r30
 8f8:	ff 1f       	adc	r31, r31
 8fa:	ec 55       	subi	r30, 0x5C	; 92
 8fc:	ff 4f       	sbci	r31, 0xFF	; 255
 8fe:	85 91       	lpm	r24, Z+
 900:	94 91       	lpm	r25, Z
 902:	dc 01       	movw	r26, r24
 904:	9f b7       	in	r25, 0x3f	; 63
 906:	f8 94       	cli
 908:	8c 91       	ld	r24, X
 90a:	61 11       	cpse	r22, r1
 90c:	03 c0       	rjmp	.+6      	; 0x914 <__stack+0x15>
 90e:	10 95       	com	r17
 910:	81 23       	and	r24, r17
 912:	01 c0       	rjmp	.+2      	; 0x916 <__stack+0x17>
 914:	81 2b       	or	r24, r17
 916:	8c 93       	st	X, r24
 918:	9f bf       	out	0x3f, r25	; 63
 91a:	0f 90       	pop	r0
 91c:	df 91       	pop	r29
 91e:	cf 91       	pop	r28
 920:	1f 91       	pop	r17
 922:	0f 91       	pop	r16
 924:	08 95       	ret

00000926 <exit>:
 926:	f8 94       	cli
 928:	06 c0       	rjmp	.+12     	; 0x936 <_exit>

0000092a <__tablejump2__>:
 92a:	ee 0f       	add	r30, r30
 92c:	ff 1f       	adc	r31, r31

0000092e <__tablejump__>:
 92e:	05 90       	lpm	r0, Z+
 930:	f4 91       	lpm	r31, Z
 932:	e0 2d       	mov	r30, r0
 934:	09 94       	ijmp

00000936 <_exit>:
 936:	f8 94       	cli

00000938 <__stop_program>:
 938:	ff cf       	rjmp	.-2      	; 0x938 <__stop_program>
