
cvToServo.elf:     file format elf32-avr

Sections:
Idx Name          Size      VMA       LMA       File off  Algn
  0 .data         00000000  00800100  000001a0  00000234  2**0
                  CONTENTS, ALLOC, LOAD, DATA
  1 .text         000001a0  00000000  00000000  00000094  2**1
                  CONTENTS, ALLOC, LOAD, READONLY, CODE
  2 .bss          00000009  00800100  00800100  00000234  2**0
                  ALLOC
  3 .stab         000006fc  00000000  00000000  00000234  2**2
                  CONTENTS, READONLY, DEBUGGING
  4 .stabstr      000000da  00000000  00000000  00000930  2**0
                  CONTENTS, READONLY, DEBUGGING
  5 .comment      00000011  00000000  00000000  00000a0a  2**0
                  CONTENTS, READONLY
  6 .debug_aranges 00000040  00000000  00000000  00000a20  2**3
                  CONTENTS, READONLY, DEBUGGING
  7 .debug_info   0000017c  00000000  00000000  00000a60  2**0
                  CONTENTS, READONLY, DEBUGGING
  8 .debug_abbrev 00000028  00000000  00000000  00000bdc  2**0
                  CONTENTS, READONLY, DEBUGGING
  9 .debug_line   000000b6  00000000  00000000  00000c04  2**0
                  CONTENTS, READONLY, DEBUGGING

Disassembly of section .text:

00000000 <__vectors>:
   0:	33 c0       	rjmp	.+102    	; 0x68 <__ctors_end>
   2:	00 00       	nop
   4:	41 c0       	rjmp	.+130    	; 0x88 <__bad_interrupt>
   6:	00 00       	nop
   8:	3f c0       	rjmp	.+126    	; 0x88 <__bad_interrupt>
   a:	00 00       	nop
   c:	3d c0       	rjmp	.+122    	; 0x88 <__bad_interrupt>
   e:	00 00       	nop
  10:	3b c0       	rjmp	.+118    	; 0x88 <__bad_interrupt>
  12:	00 00       	nop
  14:	39 c0       	rjmp	.+114    	; 0x88 <__bad_interrupt>
  16:	00 00       	nop
  18:	37 c0       	rjmp	.+110    	; 0x88 <__bad_interrupt>
  1a:	00 00       	nop
  1c:	35 c0       	rjmp	.+106    	; 0x88 <__bad_interrupt>
  1e:	00 00       	nop
  20:	33 c0       	rjmp	.+102    	; 0x88 <__bad_interrupt>
  22:	00 00       	nop
  24:	31 c0       	rjmp	.+98     	; 0x88 <__bad_interrupt>
  26:	00 00       	nop
  28:	2f c0       	rjmp	.+94     	; 0x88 <__bad_interrupt>
  2a:	00 00       	nop
  2c:	2d c0       	rjmp	.+90     	; 0x88 <__bad_interrupt>
  2e:	00 00       	nop
  30:	2b c0       	rjmp	.+86     	; 0x88 <__bad_interrupt>
  32:	00 00       	nop
  34:	29 c0       	rjmp	.+82     	; 0x88 <__bad_interrupt>
  36:	00 00       	nop
  38:	27 c0       	rjmp	.+78     	; 0x88 <__bad_interrupt>
  3a:	00 00       	nop
  3c:	25 c0       	rjmp	.+74     	; 0x88 <__bad_interrupt>
  3e:	00 00       	nop
  40:	26 c0       	rjmp	.+76     	; 0x8e <__vector_16>
  42:	00 00       	nop
  44:	21 c0       	rjmp	.+66     	; 0x88 <__bad_interrupt>
  46:	00 00       	nop
  48:	1f c0       	rjmp	.+62     	; 0x88 <__bad_interrupt>
  4a:	00 00       	nop
  4c:	1d c0       	rjmp	.+58     	; 0x88 <__bad_interrupt>
  4e:	00 00       	nop
  50:	1b c0       	rjmp	.+54     	; 0x88 <__bad_interrupt>
  52:	00 00       	nop
  54:	19 c0       	rjmp	.+50     	; 0x88 <__bad_interrupt>
  56:	00 00       	nop
  58:	17 c0       	rjmp	.+46     	; 0x88 <__bad_interrupt>
  5a:	00 00       	nop
  5c:	15 c0       	rjmp	.+42     	; 0x88 <__bad_interrupt>
  5e:	00 00       	nop
  60:	13 c0       	rjmp	.+38     	; 0x88 <__bad_interrupt>
  62:	00 00       	nop
  64:	11 c0       	rjmp	.+34     	; 0x88 <__bad_interrupt>
	...

00000068 <__ctors_end>:
  68:	11 24       	eor	r1, r1
  6a:	1f be       	out	0x3f, r1	; 63
  6c:	cf ef       	ldi	r28, 0xFF	; 255
  6e:	d8 e0       	ldi	r29, 0x08	; 8
  70:	de bf       	out	0x3e, r29	; 62
  72:	cd bf       	out	0x3d, r28	; 61

00000074 <__do_clear_bss>:
  74:	21 e0       	ldi	r18, 0x01	; 1
  76:	a0 e0       	ldi	r26, 0x00	; 0
  78:	b1 e0       	ldi	r27, 0x01	; 1
  7a:	01 c0       	rjmp	.+2      	; 0x7e <.do_clear_bss_start>

0000007c <.do_clear_bss_loop>:
  7c:	1d 92       	st	X+, r1

0000007e <.do_clear_bss_start>:
  7e:	a9 30       	cpi	r26, 0x09	; 9
  80:	b2 07       	cpc	r27, r18
  82:	e1 f7       	brne	.-8      	; 0x7c <.do_clear_bss_loop>
  84:	02 d0       	rcall	.+4      	; 0x8a <main>
  86:	88 c0       	rjmp	.+272    	; 0x198 <exit>

00000088 <__bad_interrupt>:
  88:	bb cf       	rjmp	.-138    	; 0x0 <__vectors>

0000008a <main>:
  8a:	4b d0       	rcall	.+150    	; 0x122 <init>
  8c:	ff cf       	rjmp	.-2      	; 0x8c <main+0x2>

0000008e <__vector_16>:
  8e:	1f 92       	push	r1
  90:	0f 92       	push	r0
  92:	0f b6       	in	r0, 0x3f	; 63
  94:	0f 92       	push	r0
  96:	11 24       	eor	r1, r1
  98:	2f 93       	push	r18
  9a:	3f 93       	push	r19
  9c:	8f 93       	push	r24
  9e:	9f 93       	push	r25
  a0:	af 93       	push	r26
  a2:	bf 93       	push	r27
  a4:	80 91 00 01 	lds	r24, 0x0100
  a8:	90 91 01 01 	lds	r25, 0x0101
  ac:	a0 91 02 01 	lds	r26, 0x0102
  b0:	b0 91 03 01 	lds	r27, 0x0103
  b4:	30 91 08 01 	lds	r19, 0x0108
  b8:	23 2f       	mov	r18, r19
  ba:	2d 5f       	subi	r18, 0xFD	; 253
  bc:	2d 37       	cpi	r18, 0x7D	; 125
  be:	20 f4       	brcc	.+8      	; 0xc8 <__vector_16+0x3a>
  c0:	01 96       	adiw	r24, 0x01	; 1
  c2:	a1 1d       	adc	r26, r1
  c4:	b1 1d       	adc	r27, r1
  c6:	05 c0       	rjmp	.+10     	; 0xd2 <__vector_16+0x44>
  c8:	23 2f       	mov	r18, r19
  ca:	2a 57       	subi	r18, 0x7A	; 122
  cc:	02 96       	adiw	r24, 0x02	; 2
  ce:	a1 1d       	adc	r26, r1
  d0:	b1 1d       	adc	r27, r1
  d2:	20 93 08 01 	sts	0x0108, r18
  d6:	80 93 00 01 	sts	0x0100, r24
  da:	90 93 01 01 	sts	0x0101, r25
  de:	a0 93 02 01 	sts	0x0102, r26
  e2:	b0 93 03 01 	sts	0x0103, r27
  e6:	80 91 04 01 	lds	r24, 0x0104
  ea:	90 91 05 01 	lds	r25, 0x0105
  ee:	a0 91 06 01 	lds	r26, 0x0106
  f2:	b0 91 07 01 	lds	r27, 0x0107
  f6:	01 96       	adiw	r24, 0x01	; 1
  f8:	a1 1d       	adc	r26, r1
  fa:	b1 1d       	adc	r27, r1
  fc:	80 93 04 01 	sts	0x0104, r24
 100:	90 93 05 01 	sts	0x0105, r25
 104:	a0 93 06 01 	sts	0x0106, r26
 108:	b0 93 07 01 	sts	0x0107, r27
 10c:	bf 91       	pop	r27
 10e:	af 91       	pop	r26
 110:	9f 91       	pop	r25
 112:	8f 91       	pop	r24
 114:	3f 91       	pop	r19
 116:	2f 91       	pop	r18
 118:	0f 90       	pop	r0
 11a:	0f be       	out	0x3f, r0	; 63
 11c:	0f 90       	pop	r0
 11e:	1f 90       	pop	r1
 120:	18 95       	reti

00000122 <init>:
 122:	78 94       	sei
 124:	84 b5       	in	r24, 0x24	; 36
 126:	82 60       	ori	r24, 0x02	; 2
 128:	84 bd       	out	0x24, r24	; 36
 12a:	84 b5       	in	r24, 0x24	; 36
 12c:	81 60       	ori	r24, 0x01	; 1
 12e:	84 bd       	out	0x24, r24	; 36
 130:	85 b5       	in	r24, 0x25	; 37
 132:	82 60       	ori	r24, 0x02	; 2
 134:	85 bd       	out	0x25, r24	; 37
 136:	85 b5       	in	r24, 0x25	; 37
 138:	81 60       	ori	r24, 0x01	; 1
 13a:	85 bd       	out	0x25, r24	; 37
 13c:	ee e6       	ldi	r30, 0x6E	; 110
 13e:	f0 e0       	ldi	r31, 0x00	; 0
 140:	80 81       	ld	r24, Z
 142:	81 60       	ori	r24, 0x01	; 1
 144:	80 83       	st	Z, r24
 146:	e1 e8       	ldi	r30, 0x81	; 129
 148:	f0 e0       	ldi	r31, 0x00	; 0
 14a:	10 82       	st	Z, r1
 14c:	80 81       	ld	r24, Z
 14e:	82 60       	ori	r24, 0x02	; 2
 150:	80 83       	st	Z, r24
 152:	80 81       	ld	r24, Z
 154:	81 60       	ori	r24, 0x01	; 1
 156:	80 83       	st	Z, r24
 158:	e0 e8       	ldi	r30, 0x80	; 128
 15a:	f0 e0       	ldi	r31, 0x00	; 0
 15c:	80 81       	ld	r24, Z
 15e:	81 60       	ori	r24, 0x01	; 1
 160:	80 83       	st	Z, r24
 162:	e1 eb       	ldi	r30, 0xB1	; 177
 164:	f0 e0       	ldi	r31, 0x00	; 0
 166:	80 81       	ld	r24, Z
 168:	84 60       	ori	r24, 0x04	; 4
 16a:	80 83       	st	Z, r24
 16c:	e0 eb       	ldi	r30, 0xB0	; 176
 16e:	f0 e0       	ldi	r31, 0x00	; 0
 170:	80 81       	ld	r24, Z
 172:	81 60       	ori	r24, 0x01	; 1
 174:	80 83       	st	Z, r24
 176:	ea e7       	ldi	r30, 0x7A	; 122
 178:	f0 e0       	ldi	r31, 0x00	; 0
 17a:	80 81       	ld	r24, Z
 17c:	84 60       	ori	r24, 0x04	; 4
 17e:	80 83       	st	Z, r24
 180:	80 81       	ld	r24, Z
 182:	82 60       	ori	r24, 0x02	; 2
 184:	80 83       	st	Z, r24
 186:	80 81       	ld	r24, Z
 188:	81 60       	ori	r24, 0x01	; 1
 18a:	80 83       	st	Z, r24
 18c:	80 81       	ld	r24, Z
 18e:	80 68       	ori	r24, 0x80	; 128
 190:	80 83       	st	Z, r24
 192:	10 92 c1 00 	sts	0x00C1, r1
 196:	08 95       	ret

00000198 <exit>:
 198:	f8 94       	cli
 19a:	00 c0       	rjmp	.+0      	; 0x19c <_exit>

0000019c <_exit>:
 19c:	f8 94       	cli

0000019e <__stop_program>:
 19e:	ff cf       	rjmp	.-2      	; 0x19e <__stop_program>
