
midiCVtoolie.elf:     file format elf32-avr

Sections:
Idx Name          Size      VMA       LMA       File off  Algn
  0 .data         00000040  00800100  000018b0  00001944  2**0
                  CONTENTS, ALLOC, LOAD, DATA
  1 .text         000018b0  00000000  00000000  00000094  2**1
                  CONTENTS, ALLOC, LOAD, READONLY, CODE
  2 .bss          0000032c  00800140  00800140  00001984  2**0
                  ALLOC
  3 .stab         00003144  00000000  00000000  00001984  2**2
                  CONTENTS, READONLY, DEBUGGING
  4 .stabstr      00000fb6  00000000  00000000  00004ac8  2**0
                  CONTENTS, READONLY, DEBUGGING
  5 .comment      00000011  00000000  00000000  00005a7e  2**0
                  CONTENTS, READONLY
  6 .debug_aranges 000001f8  00000000  00000000  00005a90  2**3
                  CONTENTS, READONLY, DEBUGGING
  7 .debug_info   00000bc5  00000000  00000000  00005c88  2**0
                  CONTENTS, READONLY, DEBUGGING
  8 .debug_abbrev 000001f0  00000000  00000000  0000684d  2**0
                  CONTENTS, READONLY, DEBUGGING
  9 .debug_line   000005d1  00000000  00000000  00006a3d  2**0
                  CONTENTS, READONLY, DEBUGGING
 10 .debug_frame  00000088  00000000  00000000  00007010  2**2
                  CONTENTS, READONLY, DEBUGGING
 11 .debug_str    000000c6  00000000  00000000  00007098  2**0
                  CONTENTS, READONLY, DEBUGGING
 12 .debug_loc    000001e8  00000000  00000000  0000715e  2**0
                  CONTENTS, READONLY, DEBUGGING
 13 .debug_ranges 00000028  00000000  00000000  00007346  2**0
                  CONTENTS, READONLY, DEBUGGING

Disassembly of section .text:

00000000 <__vectors>:
       0:	5d c0       	rjmp	.+186    	; 0xbc <__ctors_end>
       2:	00 00       	nop
       4:	82 c0       	rjmp	.+260    	; 0x10a <__bad_interrupt>
       6:	00 00       	nop
       8:	80 c0       	rjmp	.+256    	; 0x10a <__bad_interrupt>
       a:	00 00       	nop
       c:	7e c0       	rjmp	.+252    	; 0x10a <__bad_interrupt>
       e:	00 00       	nop
      10:	7c c0       	rjmp	.+248    	; 0x10a <__bad_interrupt>
      12:	00 00       	nop
      14:	7a c0       	rjmp	.+244    	; 0x10a <__bad_interrupt>
      16:	00 00       	nop
      18:	78 c0       	rjmp	.+240    	; 0x10a <__bad_interrupt>
      1a:	00 00       	nop
      1c:	76 c0       	rjmp	.+236    	; 0x10a <__bad_interrupt>
      1e:	00 00       	nop
      20:	74 c0       	rjmp	.+232    	; 0x10a <__bad_interrupt>
      22:	00 00       	nop
      24:	72 c0       	rjmp	.+228    	; 0x10a <__bad_interrupt>
      26:	00 00       	nop
      28:	70 c0       	rjmp	.+224    	; 0x10a <__bad_interrupt>
      2a:	00 00       	nop
      2c:	6e c0       	rjmp	.+220    	; 0x10a <__bad_interrupt>
      2e:	00 00       	nop
      30:	6c c0       	rjmp	.+216    	; 0x10a <__bad_interrupt>
      32:	00 00       	nop
      34:	6a c0       	rjmp	.+212    	; 0x10a <__bad_interrupt>
      36:	00 00       	nop
      38:	68 c0       	rjmp	.+208    	; 0x10a <__bad_interrupt>
      3a:	00 00       	nop
      3c:	66 c0       	rjmp	.+204    	; 0x10a <__bad_interrupt>
      3e:	00 00       	nop
      40:	0c 94 c7 0a 	jmp	0x158e	; 0x158e <__vector_16>
      44:	62 c0       	rjmp	.+196    	; 0x10a <__bad_interrupt>
      46:	00 00       	nop
      48:	0c 94 0b 09 	jmp	0x1216	; 0x1216 <__vector_18>
      4c:	0c 94 45 09 	jmp	0x128a	; 0x128a <__vector_19>
      50:	5c c0       	rjmp	.+184    	; 0x10a <__bad_interrupt>
      52:	00 00       	nop
      54:	5a c0       	rjmp	.+180    	; 0x10a <__bad_interrupt>
      56:	00 00       	nop
      58:	58 c0       	rjmp	.+176    	; 0x10a <__bad_interrupt>
      5a:	00 00       	nop
      5c:	56 c0       	rjmp	.+172    	; 0x10a <__bad_interrupt>
      5e:	00 00       	nop
      60:	54 c0       	rjmp	.+168    	; 0x10a <__bad_interrupt>
      62:	00 00       	nop
      64:	52 c0       	rjmp	.+164    	; 0x10a <__bad_interrupt>
	...

00000068 <digital_pin_to_timer_PGM>:
      68:	00 00 00 07 00 02 01 00 00 03 04 06 00 00 00 00     ................
      78:	00 00 00 00                                         ....

0000007c <digital_pin_to_bit_mask_PGM>:
      7c:	01 02 04 08 10 20 40 80 01 02 04 08 10 20 01 02     ..... @...... ..
      8c:	04 08 10 20                                         ... 

00000090 <digital_pin_to_port_PGM>:
      90:	04 04 04 04 04 04 04 04 02 02 02 02 02 02 03 03     ................
      a0:	03 03 03 03                                         ....

000000a4 <port_to_output_PGM>:
      a4:	00 00 00 00 25 00 28 00 2b 00                       ....%.(.+.

000000ae <port_to_mode_PGM>:
      ae:	00 00 00 00 24 00 27 00 2a 00                       ....$.'.*.

000000b8 <__ctors_start>:
      b8:	78 07       	cpc	r23, r24
      ba:	ff 09       	sbc	r31, r15

000000bc <__ctors_end>:
      bc:	11 24       	eor	r1, r1
      be:	1f be       	out	0x3f, r1	; 63
      c0:	cf ef       	ldi	r28, 0xFF	; 255
      c2:	d8 e0       	ldi	r29, 0x08	; 8
      c4:	de bf       	out	0x3e, r29	; 62
      c6:	cd bf       	out	0x3d, r28	; 61

000000c8 <__do_copy_data>:
      c8:	11 e0       	ldi	r17, 0x01	; 1
      ca:	a0 e0       	ldi	r26, 0x00	; 0
      cc:	b1 e0       	ldi	r27, 0x01	; 1
      ce:	e0 eb       	ldi	r30, 0xB0	; 176
      d0:	f8 e1       	ldi	r31, 0x18	; 24
      d2:	02 c0       	rjmp	.+4      	; 0xd8 <__do_copy_data+0x10>
      d4:	05 90       	lpm	r0, Z+
      d6:	0d 92       	st	X+, r0
      d8:	a0 34       	cpi	r26, 0x40	; 64
      da:	b1 07       	cpc	r27, r17
      dc:	d9 f7       	brne	.-10     	; 0xd4 <__do_copy_data+0xc>

000000de <__do_clear_bss>:
      de:	24 e0       	ldi	r18, 0x04	; 4
      e0:	a0 e4       	ldi	r26, 0x40	; 64
      e2:	b1 e0       	ldi	r27, 0x01	; 1
      e4:	01 c0       	rjmp	.+2      	; 0xe8 <.do_clear_bss_start>

000000e6 <.do_clear_bss_loop>:
      e6:	1d 92       	st	X+, r1

000000e8 <.do_clear_bss_start>:
      e8:	ac 36       	cpi	r26, 0x6C	; 108
      ea:	b2 07       	cpc	r27, r18
      ec:	e1 f7       	brne	.-8      	; 0xe6 <.do_clear_bss_loop>

000000ee <__do_global_ctors>:
      ee:	10 e0       	ldi	r17, 0x00	; 0
      f0:	cc eb       	ldi	r28, 0xBC	; 188
      f2:	d0 e0       	ldi	r29, 0x00	; 0
      f4:	04 c0       	rjmp	.+8      	; 0xfe <__do_global_ctors+0x10>
      f6:	22 97       	sbiw	r28, 0x02	; 2
      f8:	fe 01       	movw	r30, r28
      fa:	0e 94 46 0c 	call	0x188c	; 0x188c <__tablejump__>
      fe:	c8 3b       	cpi	r28, 0xB8	; 184
     100:	d1 07       	cpc	r29, r17
     102:	c9 f7       	brne	.-14     	; 0xf6 <__do_global_ctors+0x8>
     104:	f1 d6       	rcall	.+3554   	; 0xee8 <main>
     106:	0c 94 e4 0b 	jmp	0x17c8	; 0x17c8 <exit>

0000010a <__bad_interrupt>:
     10a:	7a cf       	rjmp	.-268    	; 0x0 <__vectors>

0000010c <_Z41__static_initialization_and_destruction_0ii.part.9>:
     10c:	89 eb       	ldi	r24, 0xB9	; 185
     10e:	93 e0       	ldi	r25, 0x03	; 3
     110:	90 93 b7 03 	sts	0x03B7, r25
     114:	80 93 b6 03 	sts	0x03B6, r24
     118:	10 92 91 03 	sts	0x0391, r1
     11c:	10 92 90 03 	sts	0x0390, r1
     120:	10 92 93 03 	sts	0x0393, r1
     124:	10 92 92 03 	sts	0x0392, r1
     128:	10 92 95 03 	sts	0x0395, r1
     12c:	10 92 94 03 	sts	0x0394, r1
     130:	10 92 97 03 	sts	0x0397, r1
     134:	10 92 96 03 	sts	0x0396, r1
     138:	10 92 99 03 	sts	0x0399, r1
     13c:	10 92 98 03 	sts	0x0398, r1
     140:	10 92 9b 03 	sts	0x039B, r1
     144:	10 92 9a 03 	sts	0x039A, r1
     148:	10 92 9d 03 	sts	0x039D, r1
     14c:	10 92 9c 03 	sts	0x039C, r1
     150:	10 92 9f 03 	sts	0x039F, r1
     154:	10 92 9e 03 	sts	0x039E, r1
     158:	10 92 a1 03 	sts	0x03A1, r1
     15c:	10 92 a0 03 	sts	0x03A0, r1
     160:	10 92 a3 03 	sts	0x03A3, r1
     164:	10 92 a2 03 	sts	0x03A2, r1
     168:	10 92 a5 03 	sts	0x03A5, r1
     16c:	10 92 a4 03 	sts	0x03A4, r1
     170:	10 92 a7 03 	sts	0x03A7, r1
     174:	10 92 a6 03 	sts	0x03A6, r1
     178:	10 92 a9 03 	sts	0x03A9, r1
     17c:	10 92 a8 03 	sts	0x03A8, r1
     180:	10 92 ab 03 	sts	0x03AB, r1
     184:	10 92 aa 03 	sts	0x03AA, r1
     188:	10 92 ad 03 	sts	0x03AD, r1
     18c:	10 92 ac 03 	sts	0x03AC, r1
     190:	10 92 af 03 	sts	0x03AF, r1
     194:	10 92 ae 03 	sts	0x03AE, r1
     198:	10 92 b1 03 	sts	0x03B1, r1
     19c:	10 92 b0 03 	sts	0x03B0, r1
     1a0:	10 92 b3 03 	sts	0x03B3, r1
     1a4:	10 92 b2 03 	sts	0x03B2, r1
     1a8:	08 95       	ret

000001aa <_ZN14HardwareSerial5writeEj>:
     1aa:	dc 01       	movw	r26, r24
     1ac:	ed 91       	ld	r30, X+
     1ae:	fc 91       	ld	r31, X
     1b0:	01 90       	ld	r0, Z+
     1b2:	f0 81       	ld	r31, Z
     1b4:	e0 2d       	mov	r30, r0
     1b6:	09 94       	ijmp

000001b8 <_ZN14HardwareSerial5writeEi>:
     1b8:	dc 01       	movw	r26, r24
     1ba:	ed 91       	ld	r30, X+
     1bc:	fc 91       	ld	r31, X
     1be:	01 90       	ld	r0, Z+
     1c0:	f0 81       	ld	r31, Z
     1c2:	e0 2d       	mov	r30, r0
     1c4:	09 94       	ijmp

000001c6 <_Z8writeDACj>:
     1c6:	2a 98       	cbi	0x05, 2	; 5
     1c8:	29 2f       	mov	r18, r25
     1ca:	30 e0       	ldi	r19, 0x00	; 0
     1cc:	2f 70       	andi	r18, 0x0F	; 15
     1ce:	33 27       	eor	r19, r19
     1d0:	20 63       	ori	r18, 0x30	; 48
     1d2:	2e bd       	out	0x2e, r18	; 46
     1d4:	0d b4       	in	r0, 0x2d	; 45
     1d6:	07 fe       	sbrs	r0, 7
     1d8:	fd cf       	rjmp	.-6      	; 0x1d4 <_Z8writeDACj+0xe>
     1da:	9e b5       	in	r25, 0x2e	; 46
     1dc:	8e bd       	out	0x2e, r24	; 46
     1de:	0d b4       	in	r0, 0x2d	; 45
     1e0:	07 fe       	sbrs	r0, 7
     1e2:	fd cf       	rjmp	.-6      	; 0x1de <_Z8writeDACj+0x18>
     1e4:	8e b5       	in	r24, 0x2e	; 46
     1e6:	2a 9a       	sbi	0x05, 2	; 5
     1e8:	08 95       	ret

000001ea <_Z7dacInitv>:
     1ea:	2d 98       	cbi	0x05, 5	; 5
     1ec:	2c 98       	cbi	0x05, 4	; 5
     1ee:	2b 98       	cbi	0x05, 3	; 5
     1f0:	2a 9a       	sbi	0x05, 2	; 5
     1f2:	25 9a       	sbi	0x04, 5	; 4
     1f4:	24 98       	cbi	0x04, 4	; 4
     1f6:	23 9a       	sbi	0x04, 3	; 4
     1f8:	22 9a       	sbi	0x04, 2	; 4
     1fa:	2a 9a       	sbi	0x05, 2	; 5
     1fc:	22 9a       	sbi	0x04, 2	; 4
     1fe:	8c b5       	in	r24, 0x2c	; 44
     200:	80 64       	ori	r24, 0x40	; 64
     202:	8c bd       	out	0x2c, r24	; 44
     204:	8c b5       	in	r24, 0x2c	; 44
     206:	80 61       	ori	r24, 0x10	; 16
     208:	8c bd       	out	0x2c, r24	; 44
     20a:	8c b5       	in	r24, 0x2c	; 44
     20c:	8f 77       	andi	r24, 0x7F	; 127
     20e:	8c bd       	out	0x2c, r24	; 44
     210:	8c b5       	in	r24, 0x2c	; 44
     212:	8f 7d       	andi	r24, 0xDF	; 223
     214:	8c bd       	out	0x2c, r24	; 44
     216:	8c b5       	in	r24, 0x2c	; 44
     218:	87 7f       	andi	r24, 0xF7	; 247
     21a:	8c bd       	out	0x2c, r24	; 44
     21c:	8c b5       	in	r24, 0x2c	; 44
     21e:	8b 7f       	andi	r24, 0xFB	; 251
     220:	8c bd       	out	0x2c, r24	; 44
     222:	8c b5       	in	r24, 0x2c	; 44
     224:	8d 7f       	andi	r24, 0xFD	; 253
     226:	8c bd       	out	0x2c, r24	; 44
     228:	8c b5       	in	r24, 0x2c	; 44
     22a:	8e 7f       	andi	r24, 0xFE	; 254
     22c:	8c bd       	out	0x2c, r24	; 44
     22e:	8d b5       	in	r24, 0x2d	; 45
     230:	81 60       	ori	r24, 0x01	; 1
     232:	8d bd       	out	0x2d, r24	; 45
     234:	08 95       	ret

00000236 <_Z7setGateb>:
     236:	cf 93       	push	r28
     238:	c8 2f       	mov	r28, r24
     23a:	68 2f       	mov	r22, r24
     23c:	88 e0       	ldi	r24, 0x08	; 8
     23e:	0e 94 ae 0b 	call	0x175c	; 0x175c <digitalWrite>
     242:	6c 2f       	mov	r22, r28
     244:	87 e0       	ldi	r24, 0x07	; 7
     246:	cf 91       	pop	r28
     248:	0c 94 ae 0b 	jmp	0x175c	; 0x175c <digitalWrite>

0000024c <_Z9loadTablev>:
     24c:	ff 92       	push	r15
     24e:	0f 93       	push	r16
     250:	1f 93       	push	r17
     252:	cf 93       	push	r28
     254:	df 93       	push	r29
     256:	04 e0       	ldi	r16, 0x04	; 4
     258:	11 e0       	ldi	r17, 0x01	; 1
     25a:	c0 e0       	ldi	r28, 0x00	; 0
     25c:	d0 e0       	ldi	r29, 0x00	; 0
     25e:	be 01       	movw	r22, r28
     260:	6f 5f       	subi	r22, 0xFF	; 255
     262:	7f 4f       	sbci	r23, 0xFF	; 255
     264:	88 eb       	ldi	r24, 0xB8	; 184
     266:	93 e0       	ldi	r25, 0x03	; 3
     268:	44 d6       	rcall	.+3208   	; 0xef2 <_ZN11EEPROMClass4readEi>
     26a:	f8 2e       	mov	r15, r24
     26c:	be 01       	movw	r22, r28
     26e:	88 eb       	ldi	r24, 0xB8	; 184
     270:	93 e0       	ldi	r25, 0x03	; 3
     272:	3f d6       	rcall	.+3198   	; 0xef2 <_ZN11EEPROMClass4readEi>
     274:	6f 2d       	mov	r22, r15
     276:	0e 94 c2 0a 	call	0x1584	; 0x1584 <_Z8makeWordhh>
     27a:	f8 01       	movw	r30, r16
     27c:	81 93       	st	Z+, r24
     27e:	91 93       	st	Z+, r25
     280:	8f 01       	movw	r16, r30
     282:	22 96       	adiw	r28, 0x02	; 2
     284:	cc 32       	cpi	r28, 0x2C	; 44
     286:	d1 05       	cpc	r29, r1
     288:	51 f7       	brne	.-44     	; 0x25e <_Z9loadTablev+0x12>
     28a:	df 91       	pop	r29
     28c:	cf 91       	pop	r28
     28e:	1f 91       	pop	r17
     290:	0f 91       	pop	r16
     292:	ff 90       	pop	r15
     294:	08 95       	ret

00000296 <_Z8curveMaphhPj>:
     296:	2f 92       	push	r2
     298:	3f 92       	push	r3
     29a:	4f 92       	push	r4
     29c:	5f 92       	push	r5
     29e:	6f 92       	push	r6
     2a0:	7f 92       	push	r7
     2a2:	8f 92       	push	r8
     2a4:	9f 92       	push	r9
     2a6:	af 92       	push	r10
     2a8:	bf 92       	push	r11
     2aa:	cf 92       	push	r12
     2ac:	df 92       	push	r13
     2ae:	ef 92       	push	r14
     2b0:	ff 92       	push	r15
     2b2:	0f 93       	push	r16
     2b4:	1f 93       	push	r17
     2b6:	cf 93       	push	r28
     2b8:	df 93       	push	r29
     2ba:	cd b7       	in	r28, 0x3d	; 61
     2bc:	de b7       	in	r29, 0x3e	; 62
     2be:	27 97       	sbiw	r28, 0x07	; 7
     2c0:	0f b6       	in	r0, 0x3f	; 63
     2c2:	f8 94       	cli
     2c4:	de bf       	out	0x3e, r29	; 62
     2c6:	0f be       	out	0x3f, r0	; 63
     2c8:	cd bf       	out	0x3d, r28	; 61
     2ca:	8f 83       	std	Y+7, r24	; 0x07
     2cc:	86 2f       	mov	r24, r22
     2ce:	da 01       	movw	r26, r20
     2d0:	60 e0       	ldi	r22, 0x00	; 0
     2d2:	70 e0       	ldi	r23, 0x00	; 0
     2d4:	41 2c       	mov	r4, r1
     2d6:	51 2c       	mov	r5, r1
     2d8:	32 01       	movw	r6, r4
     2da:	4a 94       	dec	r4
     2dc:	a1 2c       	mov	r10, r1
     2de:	b1 2c       	mov	r11, r1
     2e0:	65 01       	movw	r12, r10
     2e2:	e1 2c       	mov	r14, r1
     2e4:	f1 2c       	mov	r15, r1
     2e6:	87 01       	movw	r16, r14
     2e8:	ea 94       	dec	r14
     2ea:	20 e0       	ldi	r18, 0x00	; 0
     2ec:	30 e0       	ldi	r19, 0x00	; 0
     2ee:	a9 01       	movw	r20, r18
     2f0:	e8 2f       	mov	r30, r24
     2f2:	f0 e0       	ldi	r31, 0x00	; 0
     2f4:	fe 83       	std	Y+6, r31	; 0x06
     2f6:	ed 83       	std	Y+5, r30	; 0x05
     2f8:	31 97       	sbiw	r30, 0x01	; 1
     2fa:	fa 83       	std	Y+2, r31	; 0x02
     2fc:	e9 83       	std	Y+1, r30	; 0x01
     2fe:	ff 81       	ldd	r31, Y+7	; 0x07
     300:	2f 2e       	mov	r2, r31
     302:	31 2c       	mov	r3, r1
     304:	8d 81       	ldd	r24, Y+5	; 0x05
     306:	9e 81       	ldd	r25, Y+6	; 0x06
     308:	0a 96       	adiw	r24, 0x0a	; 10
     30a:	9c 83       	std	Y+4, r25	; 0x04
     30c:	8b 83       	std	Y+3, r24	; 0x03
     30e:	39 c0       	rjmp	.+114    	; 0x382 <_Z8curveMaphhPj+0xec>
     310:	fb 01       	movw	r30, r22
     312:	ee 0f       	add	r30, r30
     314:	ff 1f       	adc	r31, r31
     316:	ea 0f       	add	r30, r26
     318:	fb 1f       	adc	r31, r27
     31a:	80 80       	ld	r8, Z
     31c:	91 80       	ldd	r9, Z+1	; 0x01
     31e:	28 14       	cp	r2, r8
     320:	39 04       	cpc	r3, r9
     322:	68 f1       	brcs	.+90     	; 0x37e <_Z8curveMaphhPj+0xe8>
     324:	fb 01       	movw	r30, r22
     326:	31 96       	adiw	r30, 0x01	; 1
     328:	ee 0f       	add	r30, r30
     32a:	ff 1f       	adc	r31, r31
     32c:	ea 0f       	add	r30, r26
     32e:	fb 1f       	adc	r31, r27
     330:	01 90       	ld	r0, Z+
     332:	f0 81       	ld	r31, Z
     334:	e0 2d       	mov	r30, r0
     336:	e2 15       	cp	r30, r2
     338:	f3 05       	cpc	r31, r3
     33a:	08 f1       	brcs	.+66     	; 0x37e <_Z8curveMaphhPj+0xe8>
     33c:	7f 01       	movw	r14, r30
     33e:	00 e0       	ldi	r16, 0x00	; 0
     340:	10 e0       	ldi	r17, 0x00	; 0
     342:	94 01       	movw	r18, r8
     344:	40 e0       	ldi	r20, 0x00	; 0
     346:	50 e0       	ldi	r21, 0x00	; 0
     348:	8d 81       	ldd	r24, Y+5	; 0x05
     34a:	9e 81       	ldd	r25, Y+6	; 0x06
     34c:	86 0f       	add	r24, r22
     34e:	97 1f       	adc	r25, r23
     350:	bc 01       	movw	r22, r24
     352:	6f 5f       	subi	r22, 0xFF	; 255
     354:	7f 4f       	sbci	r23, 0xFF	; 255
     356:	66 0f       	add	r22, r22
     358:	77 1f       	adc	r23, r23
     35a:	6a 0f       	add	r22, r26
     35c:	7b 1f       	adc	r23, r27
     35e:	fb 01       	movw	r30, r22
     360:	40 80       	ld	r4, Z
     362:	51 80       	ldd	r5, Z+1	; 0x01
     364:	61 2c       	mov	r6, r1
     366:	71 2c       	mov	r7, r1
     368:	fc 01       	movw	r30, r24
     36a:	ee 0f       	add	r30, r30
     36c:	ff 1f       	adc	r31, r31
     36e:	ea 0f       	add	r30, r26
     370:	fb 1f       	adc	r31, r27
     372:	a0 80       	ld	r10, Z
     374:	b1 80       	ldd	r11, Z+1	; 0x01
     376:	c1 2c       	mov	r12, r1
     378:	d1 2c       	mov	r13, r1
     37a:	6b 81       	ldd	r22, Y+3	; 0x03
     37c:	7c 81       	ldd	r23, Y+4	; 0x04
     37e:	6f 5f       	subi	r22, 0xFF	; 255
     380:	7f 4f       	sbci	r23, 0xFF	; 255
     382:	89 81       	ldd	r24, Y+1	; 0x01
     384:	9a 81       	ldd	r25, Y+2	; 0x02
     386:	68 17       	cp	r22, r24
     388:	79 07       	cpc	r23, r25
     38a:	14 f2       	brlt	.-124    	; 0x310 <_Z8curveMaphhPj+0x7a>
     38c:	ef 81       	ldd	r30, Y+7	; 0x07
     38e:	6e 2f       	mov	r22, r30
     390:	70 e0       	ldi	r23, 0x00	; 0
     392:	80 e0       	ldi	r24, 0x00	; 0
     394:	90 e0       	ldi	r25, 0x00	; 0
     396:	7f 92       	push	r7
     398:	6f 92       	push	r6
     39a:	5f 92       	push	r5
     39c:	4f 92       	push	r4
     39e:	0e 94 7d 0a 	call	0x14fa	; 0x14fa <_Z3maplllll>
     3a2:	0f 90       	pop	r0
     3a4:	0f 90       	pop	r0
     3a6:	0f 90       	pop	r0
     3a8:	0f 90       	pop	r0
     3aa:	27 96       	adiw	r28, 0x07	; 7
     3ac:	0f b6       	in	r0, 0x3f	; 63
     3ae:	f8 94       	cli
     3b0:	de bf       	out	0x3e, r29	; 62
     3b2:	0f be       	out	0x3f, r0	; 63
     3b4:	cd bf       	out	0x3d, r28	; 61
     3b6:	df 91       	pop	r29
     3b8:	cf 91       	pop	r28
     3ba:	1f 91       	pop	r17
     3bc:	0f 91       	pop	r16
     3be:	ff 90       	pop	r15
     3c0:	ef 90       	pop	r14
     3c2:	df 90       	pop	r13
     3c4:	cf 90       	pop	r12
     3c6:	bf 90       	pop	r11
     3c8:	af 90       	pop	r10
     3ca:	9f 90       	pop	r9
     3cc:	8f 90       	pop	r8
     3ce:	7f 90       	pop	r7
     3d0:	6f 90       	pop	r6
     3d2:	5f 90       	pop	r5
     3d4:	4f 90       	pop	r4
     3d6:	3f 90       	pop	r3
     3d8:	2f 90       	pop	r2
     3da:	08 95       	ret

000003dc <_Z13handleNoteOffhhh>:
     3dc:	cf 93       	push	r28
     3de:	c6 2f       	mov	r28, r22
     3e0:	80 ec       	ldi	r24, 0xC0	; 192
     3e2:	91 e0       	ldi	r25, 0x01	; 1
     3e4:	12 d6       	rcall	.+3108   	; 0x100a <_ZN14MIDInoteBuffer20removeNoteFromBufferEh>
     3e6:	80 ec       	ldi	r24, 0xC0	; 192
     3e8:	91 e0       	ldi	r25, 0x01	; 1
     3ea:	88 d5       	rcall	.+2832   	; 0xefc <_ZN14MIDInoteBuffer24getNumberOfNotesInBufferEv>
     3ec:	88 23       	and	r24, r24
     3ee:	61 f0       	breq	.+24     	; 0x408 <_Z13handleNoteOffhhh+0x2c>
     3f0:	60 e0       	ldi	r22, 0x00	; 0
     3f2:	80 ec       	ldi	r24, 0xC0	; 192
     3f4:	91 e0       	ldi	r25, 0x01	; 1
     3f6:	85 d5       	rcall	.+2826   	; 0xf02 <_ZN14MIDInoteBuffer17getNoteFromBufferEh>
     3f8:	44 e0       	ldi	r20, 0x04	; 4
     3fa:	51 e0       	ldi	r21, 0x01	; 1
     3fc:	6b e0       	ldi	r22, 0x0B	; 11
     3fe:	84 52       	subi	r24, 0x24	; 36
     400:	4a df       	rcall	.-364    	; 0x296 <_Z8curveMaphhPj>
     402:	cb 01       	movw	r24, r22
     404:	e0 de       	rcall	.-576    	; 0x1c6 <_Z8writeDACj>
     406:	02 c0       	rjmp	.+4      	; 0x40c <_Z13handleNoteOffhhh+0x30>
     408:	80 e0       	ldi	r24, 0x00	; 0
     40a:	15 df       	rcall	.-470    	; 0x236 <_Z7setGateb>
     40c:	ec 2f       	mov	r30, r28
     40e:	f0 e0       	ldi	r31, 0x00	; 0
     410:	ef 5b       	subi	r30, 0xBF	; 191
     412:	fe 4f       	sbci	r31, 0xFE	; 254
     414:	10 82       	st	Z, r1
     416:	cf 91       	pop	r28
     418:	08 95       	ret

0000041a <_Z12handleNoteOnhhh>:
     41a:	1f 93       	push	r17
     41c:	cf 93       	push	r28
     41e:	df 93       	push	r29
     420:	1f 92       	push	r1
     422:	cd b7       	in	r28, 0x3d	; 61
     424:	de b7       	in	r29, 0x3e	; 62
     426:	16 2f       	mov	r17, r22
     428:	e6 2f       	mov	r30, r22
     42a:	f0 e0       	ldi	r31, 0x00	; 0
     42c:	ef 5b       	subi	r30, 0xBF	; 191
     42e:	fe 4f       	sbci	r31, 0xFE	; 254
     430:	81 e0       	ldi	r24, 0x01	; 1
     432:	80 83       	st	Z, r24
     434:	49 83       	std	Y+1, r20	; 0x01
     436:	ff de       	rcall	.-514    	; 0x236 <_Z7setGateb>
     438:	10 92 40 01 	sts	0x0140, r1
     43c:	49 81       	ldd	r20, Y+1	; 0x01
     43e:	61 2f       	mov	r22, r17
     440:	80 ec       	ldi	r24, 0xC0	; 192
     442:	91 e0       	ldi	r25, 0x01	; 1
     444:	fc d5       	rcall	.+3064   	; 0x103e <_ZN14MIDInoteBuffer15addNoteToBufferEhh>
     446:	81 2f       	mov	r24, r17
     448:	84 52       	subi	r24, 0x24	; 36
     44a:	8d 33       	cpi	r24, 0x3D	; 61
     44c:	50 f4       	brcc	.+20     	; 0x462 <_Z12handleNoteOnhhh+0x48>
     44e:	44 e0       	ldi	r20, 0x04	; 4
     450:	51 e0       	ldi	r21, 0x01	; 1
     452:	6b e0       	ldi	r22, 0x0B	; 11
     454:	20 df       	rcall	.-448    	; 0x296 <_Z8curveMaphhPj>
     456:	cb 01       	movw	r24, r22
     458:	0f 90       	pop	r0
     45a:	df 91       	pop	r29
     45c:	cf 91       	pop	r28
     45e:	1f 91       	pop	r17
     460:	b2 ce       	rjmp	.-668    	; 0x1c6 <_Z8writeDACj>
     462:	0f 90       	pop	r0
     464:	df 91       	pop	r29
     466:	cf 91       	pop	r28
     468:	1f 91       	pop	r17
     46a:	08 95       	ret

0000046c <setup>:
     46c:	be de       	rcall	.-644    	; 0x1ea <_Z7dacInitv>
     46e:	42 e1       	ldi	r20, 0x12	; 18
     470:	5a e7       	ldi	r21, 0x7A	; 122
     472:	60 e0       	ldi	r22, 0x00	; 0
     474:	70 e0       	ldi	r23, 0x00	; 0
     476:	80 91 b6 03 	lds	r24, 0x03B6
     47a:	90 91 b7 03 	lds	r25, 0x03B7
     47e:	40 d7       	rcall	.+3712   	; 0x1300 <_ZN14HardwareSerial5beginEm>
     480:	10 92 b5 03 	sts	0x03B5, r1
     484:	10 92 83 02 	sts	0x0283, r1
     488:	10 92 82 02 	sts	0x0282, r1
     48c:	10 92 8a 02 	sts	0x028A, r1
     490:	10 92 89 02 	sts	0x0289, r1
     494:	10 92 88 02 	sts	0x0288, r1
     498:	10 92 87 02 	sts	0x0287, r1
     49c:	10 92 8f 03 	sts	0x038F, r1
     4a0:	10 92 8d 02 	sts	0x028D, r1
     4a4:	10 92 8c 02 	sts	0x028C, r1
     4a8:	10 92 8b 02 	sts	0x028B, r1
     4ac:	10 92 8e 02 	sts	0x028E, r1
     4b0:	10 92 8f 02 	sts	0x028F, r1
     4b4:	e4 eb       	ldi	r30, 0xB4	; 180
     4b6:	f3 e0       	ldi	r31, 0x03	; 3
     4b8:	80 81       	ld	r24, Z
     4ba:	81 70       	andi	r24, 0x01	; 1
     4bc:	82 60       	ori	r24, 0x02	; 2
     4be:	81 60       	ori	r24, 0x01	; 1
     4c0:	80 83       	st	Z, r24
     4c2:	8d e0       	ldi	r24, 0x0D	; 13
     4c4:	92 e0       	ldi	r25, 0x02	; 2
     4c6:	90 93 93 03 	sts	0x0393, r25
     4ca:	80 93 92 03 	sts	0x0392, r24
     4ce:	8e ee       	ldi	r24, 0xEE	; 238
     4d0:	91 e0       	ldi	r25, 0x01	; 1
     4d2:	90 93 91 03 	sts	0x0391, r25
     4d6:	80 93 90 03 	sts	0x0390, r24
     4da:	b8 de       	rcall	.-656    	; 0x24c <_Z9loadTablev>
     4dc:	61 e0       	ldi	r22, 0x01	; 1
     4de:	88 e0       	ldi	r24, 0x08	; 8
     4e0:	0e 94 76 0b 	call	0x16ec	; 0x16ec <pinMode>
     4e4:	61 e0       	ldi	r22, 0x01	; 1
     4e6:	87 e0       	ldi	r24, 0x07	; 7
     4e8:	0e 94 76 0b 	call	0x16ec	; 0x16ec <pinMode>
     4ec:	80 ec       	ldi	r24, 0xC0	; 192
     4ee:	91 e0       	ldi	r25, 0x01	; 1
     4f0:	26 d5       	rcall	.+2636   	; 0xf3e <_ZN14MIDInoteBuffer4initEv>
     4f2:	61 e0       	ldi	r22, 0x01	; 1
     4f4:	80 ec       	ldi	r24, 0xC0	; 192
     4f6:	91 e0       	ldi	r25, 0x01	; 1
     4f8:	fe c4       	rjmp	.+2556   	; 0xef6 <_ZN14MIDInoteBuffer12setPolyphonyEh>

000004fa <_ZN4midi13MidiInterfaceI14HardwareSerialE14launchCallbackEv>:
     4fa:	dc 01       	movw	r26, r24
     4fc:	1a 96       	adiw	r26, 0x0a	; 10
     4fe:	8d 91       	ld	r24, X+
     500:	9c 91       	ld	r25, X
     502:	1b 97       	sbiw	r26, 0x0b	; 11
     504:	81 3f       	cpi	r24, 0xF1	; 241
     506:	91 05       	cpc	r25, r1
     508:	09 f4       	brne	.+2      	; 0x50c <_ZN4midi13MidiInterfaceI14HardwareSerialE14launchCallbackEv+0x12>
     50a:	ac c0       	rjmp	.+344    	; 0x664 <_ZN4midi13MidiInterfaceI14HardwareSerialE14launchCallbackEv+0x16a>
     50c:	24 f5       	brge	.+72     	; 0x556 <_ZN4midi13MidiInterfaceI14HardwareSerialE14launchCallbackEv+0x5c>
     50e:	80 3b       	cpi	r24, 0xB0	; 176
     510:	91 05       	cpc	r25, r1
     512:	09 f4       	brne	.+2      	; 0x516 <_ZN4midi13MidiInterfaceI14HardwareSerialE14launchCallbackEv+0x1c>
     514:	56 c0       	rjmp	.+172    	; 0x5c2 <_ZN4midi13MidiInterfaceI14HardwareSerialE14launchCallbackEv+0xc8>
     516:	64 f4       	brge	.+24     	; 0x530 <_ZN4midi13MidiInterfaceI14HardwareSerialE14launchCallbackEv+0x36>
     518:	80 39       	cpi	r24, 0x90	; 144
     51a:	91 05       	cpc	r25, r1
     51c:	f9 f1       	breq	.+126    	; 0x59c <_ZN4midi13MidiInterfaceI14HardwareSerialE14launchCallbackEv+0xa2>
     51e:	80 3a       	cpi	r24, 0xA0	; 160
     520:	91 05       	cpc	r25, r1
     522:	09 f4       	brne	.+2      	; 0x526 <_ZN4midi13MidiInterfaceI14HardwareSerialE14launchCallbackEv+0x2c>
     524:	6c c0       	rjmp	.+216    	; 0x5fe <_ZN4midi13MidiInterfaceI14HardwareSerialE14launchCallbackEv+0x104>
     526:	80 38       	cpi	r24, 0x80	; 128
     528:	91 05       	cpc	r25, r1
     52a:	09 f0       	breq	.+2      	; 0x52e <_ZN4midi13MidiInterfaceI14HardwareSerialE14launchCallbackEv+0x34>
     52c:	c9 c0       	rjmp	.+402    	; 0x6c0 <_ZN4midi13MidiInterfaceI14HardwareSerialE14launchCallbackEv+0x1c6>
     52e:	32 c0       	rjmp	.+100    	; 0x594 <_ZN4midi13MidiInterfaceI14HardwareSerialE14launchCallbackEv+0x9a>
     530:	80 3d       	cpi	r24, 0xD0	; 208
     532:	91 05       	cpc	r25, r1
     534:	09 f4       	brne	.+2      	; 0x538 <_ZN4midi13MidiInterfaceI14HardwareSerialE14launchCallbackEv+0x3e>
     536:	75 c0       	rjmp	.+234    	; 0x622 <_ZN4midi13MidiInterfaceI14HardwareSerialE14launchCallbackEv+0x128>
     538:	2c f4       	brge	.+10     	; 0x544 <_ZN4midi13MidiInterfaceI14HardwareSerialE14launchCallbackEv+0x4a>
     53a:	80 3c       	cpi	r24, 0xC0	; 192
     53c:	91 05       	cpc	r25, r1
     53e:	09 f0       	breq	.+2      	; 0x542 <_ZN4midi13MidiInterfaceI14HardwareSerialE14launchCallbackEv+0x48>
     540:	bf c0       	rjmp	.+382    	; 0x6c0 <_ZN4midi13MidiInterfaceI14HardwareSerialE14launchCallbackEv+0x1c6>
     542:	73 c0       	rjmp	.+230    	; 0x62a <_ZN4midi13MidiInterfaceI14HardwareSerialE14launchCallbackEv+0x130>
     544:	80 3e       	cpi	r24, 0xE0	; 224
     546:	91 05       	cpc	r25, r1
     548:	09 f4       	brne	.+2      	; 0x54c <_ZN4midi13MidiInterfaceI14HardwareSerialE14launchCallbackEv+0x52>
     54a:	3f c0       	rjmp	.+126    	; 0x5ca <_ZN4midi13MidiInterfaceI14HardwareSerialE14launchCallbackEv+0xd0>
     54c:	80 3f       	cpi	r24, 0xF0	; 240
     54e:	91 05       	cpc	r25, r1
     550:	09 f0       	breq	.+2      	; 0x554 <_ZN4midi13MidiInterfaceI14HardwareSerialE14launchCallbackEv+0x5a>
     552:	b6 c0       	rjmp	.+364    	; 0x6c0 <_ZN4midi13MidiInterfaceI14HardwareSerialE14launchCallbackEv+0x1c6>
     554:	79 c0       	rjmp	.+242    	; 0x648 <_ZN4midi13MidiInterfaceI14HardwareSerialE14launchCallbackEv+0x14e>
     556:	8a 3f       	cpi	r24, 0xFA	; 250
     558:	91 05       	cpc	r25, r1
     55a:	39 f1       	breq	.+78     	; 0x5aa <_ZN4midi13MidiInterfaceI14HardwareSerialE14launchCallbackEv+0xb0>
     55c:	7c f4       	brge	.+30     	; 0x57c <_ZN4midi13MidiInterfaceI14HardwareSerialE14launchCallbackEv+0x82>
     55e:	83 3f       	cpi	r24, 0xF3	; 243
     560:	91 05       	cpc	r25, r1
     562:	09 f4       	brne	.+2      	; 0x566 <_ZN4midi13MidiInterfaceI14HardwareSerialE14launchCallbackEv+0x6c>
     564:	98 c0       	rjmp	.+304    	; 0x696 <_ZN4midi13MidiInterfaceI14HardwareSerialE14launchCallbackEv+0x19c>
     566:	0c f4       	brge	.+2      	; 0x56a <_ZN4midi13MidiInterfaceI14HardwareSerialE14launchCallbackEv+0x70>
     568:	81 c0       	rjmp	.+258    	; 0x66c <_ZN4midi13MidiInterfaceI14HardwareSerialE14launchCallbackEv+0x172>
     56a:	86 3f       	cpi	r24, 0xF6	; 246
     56c:	91 05       	cpc	r25, r1
     56e:	09 f4       	brne	.+2      	; 0x572 <_ZN4midi13MidiInterfaceI14HardwareSerialE14launchCallbackEv+0x78>
     570:	9d c0       	rjmp	.+314    	; 0x6ac <_ZN4midi13MidiInterfaceI14HardwareSerialE14launchCallbackEv+0x1b2>
     572:	88 3f       	cpi	r24, 0xF8	; 248
     574:	91 05       	cpc	r25, r1
     576:	09 f0       	breq	.+2      	; 0x57a <_ZN4midi13MidiInterfaceI14HardwareSerialE14launchCallbackEv+0x80>
     578:	a3 c0       	rjmp	.+326    	; 0x6c0 <_ZN4midi13MidiInterfaceI14HardwareSerialE14launchCallbackEv+0x1c6>
     57a:	14 c0       	rjmp	.+40     	; 0x5a4 <_ZN4midi13MidiInterfaceI14HardwareSerialE14launchCallbackEv+0xaa>
     57c:	8c 3f       	cpi	r24, 0xFC	; 252
     57e:	91 05       	cpc	r25, r1
     580:	d1 f0       	breq	.+52     	; 0x5b6 <_ZN4midi13MidiInterfaceI14HardwareSerialE14launchCallbackEv+0xbc>
     582:	b4 f0       	brlt	.+44     	; 0x5b0 <_ZN4midi13MidiInterfaceI14HardwareSerialE14launchCallbackEv+0xb6>
     584:	8e 3f       	cpi	r24, 0xFE	; 254
     586:	91 05       	cpc	r25, r1
     588:	c9 f0       	breq	.+50     	; 0x5bc <_ZN4midi13MidiInterfaceI14HardwareSerialE14launchCallbackEv+0xc2>
     58a:	8f 3f       	cpi	r24, 0xFF	; 255
     58c:	91 05       	cpc	r25, r1
     58e:	09 f0       	breq	.+2      	; 0x592 <_ZN4midi13MidiInterfaceI14HardwareSerialE14launchCallbackEv+0x98>
     590:	97 c0       	rjmp	.+302    	; 0x6c0 <_ZN4midi13MidiInterfaceI14HardwareSerialE14launchCallbackEv+0x1c6>
     592:	8f c0       	rjmp	.+286    	; 0x6b2 <_ZN4midi13MidiInterfaceI14HardwareSerialE14launchCallbackEv+0x1b8>
     594:	fd 01       	movw	r30, r26
     596:	e2 5f       	subi	r30, 0xF2	; 242
     598:	fe 4f       	sbci	r31, 0xFE	; 254
     59a:	34 c0       	rjmp	.+104    	; 0x604 <_ZN4midi13MidiInterfaceI14HardwareSerialE14launchCallbackEv+0x10a>
     59c:	fd 01       	movw	r30, r26
     59e:	e0 5f       	subi	r30, 0xF0	; 240
     5a0:	fe 4f       	sbci	r31, 0xFE	; 254
     5a2:	30 c0       	rjmp	.+96     	; 0x604 <_ZN4midi13MidiInterfaceI14HardwareSerialE14launchCallbackEv+0x10a>
     5a4:	aa 5d       	subi	r26, 0xDA	; 218
     5a6:	be 4f       	sbci	r27, 0xFE	; 254
     5a8:	86 c0       	rjmp	.+268    	; 0x6b6 <_ZN4midi13MidiInterfaceI14HardwareSerialE14launchCallbackEv+0x1bc>
     5aa:	a8 5d       	subi	r26, 0xD8	; 216
     5ac:	be 4f       	sbci	r27, 0xFE	; 254
     5ae:	83 c0       	rjmp	.+262    	; 0x6b6 <_ZN4midi13MidiInterfaceI14HardwareSerialE14launchCallbackEv+0x1bc>
     5b0:	a6 5d       	subi	r26, 0xD6	; 214
     5b2:	be 4f       	sbci	r27, 0xFE	; 254
     5b4:	80 c0       	rjmp	.+256    	; 0x6b6 <_ZN4midi13MidiInterfaceI14HardwareSerialE14launchCallbackEv+0x1bc>
     5b6:	a4 5d       	subi	r26, 0xD4	; 212
     5b8:	be 4f       	sbci	r27, 0xFE	; 254
     5ba:	7d c0       	rjmp	.+250    	; 0x6b6 <_ZN4midi13MidiInterfaceI14HardwareSerialE14launchCallbackEv+0x1bc>
     5bc:	a2 5d       	subi	r26, 0xD2	; 210
     5be:	be 4f       	sbci	r27, 0xFE	; 254
     5c0:	7a c0       	rjmp	.+244    	; 0x6b6 <_ZN4midi13MidiInterfaceI14HardwareSerialE14launchCallbackEv+0x1bc>
     5c2:	fd 01       	movw	r30, r26
     5c4:	ec 5e       	subi	r30, 0xEC	; 236
     5c6:	fe 4f       	sbci	r31, 0xFE	; 254
     5c8:	1d c0       	rjmp	.+58     	; 0x604 <_ZN4midi13MidiInterfaceI14HardwareSerialE14launchCallbackEv+0x10a>
     5ca:	fd 01       	movw	r30, r26
     5cc:	e6 5e       	subi	r30, 0xE6	; 230
     5ce:	fe 4f       	sbci	r31, 0xFE	; 254
     5d0:	01 90       	ld	r0, Z+
     5d2:	f0 81       	ld	r31, Z
     5d4:	e0 2d       	mov	r30, r0
     5d6:	30 97       	sbiw	r30, 0x00	; 0
     5d8:	09 f4       	brne	.+2      	; 0x5dc <_ZN4midi13MidiInterfaceI14HardwareSerialE14launchCallbackEv+0xe2>
     5da:	72 c0       	rjmp	.+228    	; 0x6c0 <_ZN4midi13MidiInterfaceI14HardwareSerialE14launchCallbackEv+0x1c6>
     5dc:	1d 96       	adiw	r26, 0x0d	; 13
     5de:	6c 91       	ld	r22, X
     5e0:	1d 97       	sbiw	r26, 0x0d	; 13
     5e2:	6f 77       	andi	r22, 0x7F	; 127
     5e4:	20 e8       	ldi	r18, 0x80	; 128
     5e6:	62 9f       	mul	r22, r18
     5e8:	b0 01       	movw	r22, r0
     5ea:	11 24       	eor	r1, r1
     5ec:	1c 96       	adiw	r26, 0x0c	; 12
     5ee:	8c 91       	ld	r24, X
     5f0:	1c 97       	sbiw	r26, 0x0c	; 12
     5f2:	8f 77       	andi	r24, 0x7F	; 127
     5f4:	68 2b       	or	r22, r24
     5f6:	70 52       	subi	r23, 0x20	; 32
     5f8:	19 96       	adiw	r26, 0x09	; 9
     5fa:	8c 91       	ld	r24, X
     5fc:	09 94       	ijmp
     5fe:	fd 01       	movw	r30, r26
     600:	ee 5e       	subi	r30, 0xEE	; 238
     602:	fe 4f       	sbci	r31, 0xFE	; 254
     604:	01 90       	ld	r0, Z+
     606:	f0 81       	ld	r31, Z
     608:	e0 2d       	mov	r30, r0
     60a:	30 97       	sbiw	r30, 0x00	; 0
     60c:	09 f4       	brne	.+2      	; 0x610 <_ZN4midi13MidiInterfaceI14HardwareSerialE14launchCallbackEv+0x116>
     60e:	58 c0       	rjmp	.+176    	; 0x6c0 <_ZN4midi13MidiInterfaceI14HardwareSerialE14launchCallbackEv+0x1c6>
     610:	1d 96       	adiw	r26, 0x0d	; 13
     612:	4c 91       	ld	r20, X
     614:	1d 97       	sbiw	r26, 0x0d	; 13
     616:	1c 96       	adiw	r26, 0x0c	; 12
     618:	6c 91       	ld	r22, X
     61a:	1c 97       	sbiw	r26, 0x0c	; 12
     61c:	19 96       	adiw	r26, 0x09	; 9
     61e:	8c 91       	ld	r24, X
     620:	09 94       	ijmp
     622:	fd 01       	movw	r30, r26
     624:	e8 5e       	subi	r30, 0xE8	; 232
     626:	fe 4f       	sbci	r31, 0xFE	; 254
     628:	03 c0       	rjmp	.+6      	; 0x630 <_ZN4midi13MidiInterfaceI14HardwareSerialE14launchCallbackEv+0x136>
     62a:	fd 01       	movw	r30, r26
     62c:	ea 5e       	subi	r30, 0xEA	; 234
     62e:	fe 4f       	sbci	r31, 0xFE	; 254
     630:	01 90       	ld	r0, Z+
     632:	f0 81       	ld	r31, Z
     634:	e0 2d       	mov	r30, r0
     636:	30 97       	sbiw	r30, 0x00	; 0
     638:	09 f4       	brne	.+2      	; 0x63c <_ZN4midi13MidiInterfaceI14HardwareSerialE14launchCallbackEv+0x142>
     63a:	42 c0       	rjmp	.+132    	; 0x6c0 <_ZN4midi13MidiInterfaceI14HardwareSerialE14launchCallbackEv+0x1c6>
     63c:	1c 96       	adiw	r26, 0x0c	; 12
     63e:	6c 91       	ld	r22, X
     640:	1c 97       	sbiw	r26, 0x0c	; 12
     642:	19 96       	adiw	r26, 0x09	; 9
     644:	8c 91       	ld	r24, X
     646:	09 94       	ijmp
     648:	fd 01       	movw	r30, r26
     64a:	e4 5e       	subi	r30, 0xE4	; 228
     64c:	fe 4f       	sbci	r31, 0xFE	; 254
     64e:	01 90       	ld	r0, Z+
     650:	f0 81       	ld	r31, Z
     652:	e0 2d       	mov	r30, r0
     654:	30 97       	sbiw	r30, 0x00	; 0
     656:	a1 f1       	breq	.+104    	; 0x6c0 <_ZN4midi13MidiInterfaceI14HardwareSerialE14launchCallbackEv+0x1c6>
     658:	1c 96       	adiw	r26, 0x0c	; 12
     65a:	6c 91       	ld	r22, X
     65c:	1c 97       	sbiw	r26, 0x0c	; 12
     65e:	cd 01       	movw	r24, r26
     660:	0e 96       	adiw	r24, 0x0e	; 14
     662:	09 94       	ijmp
     664:	fd 01       	movw	r30, r26
     666:	e2 5e       	subi	r30, 0xE2	; 226
     668:	fe 4f       	sbci	r31, 0xFE	; 254
     66a:	18 c0       	rjmp	.+48     	; 0x69c <_ZN4midi13MidiInterfaceI14HardwareSerialE14launchCallbackEv+0x1a2>
     66c:	fd 01       	movw	r30, r26
     66e:	e0 5e       	subi	r30, 0xE0	; 224
     670:	fe 4f       	sbci	r31, 0xFE	; 254
     672:	01 90       	ld	r0, Z+
     674:	f0 81       	ld	r31, Z
     676:	e0 2d       	mov	r30, r0
     678:	30 97       	sbiw	r30, 0x00	; 0
     67a:	11 f1       	breq	.+68     	; 0x6c0 <_ZN4midi13MidiInterfaceI14HardwareSerialE14launchCallbackEv+0x1c6>
     67c:	1d 96       	adiw	r26, 0x0d	; 13
     67e:	8c 91       	ld	r24, X
     680:	1d 97       	sbiw	r26, 0x0d	; 13
     682:	8f 77       	andi	r24, 0x7F	; 127
     684:	20 e8       	ldi	r18, 0x80	; 128
     686:	82 9f       	mul	r24, r18
     688:	c0 01       	movw	r24, r0
     68a:	11 24       	eor	r1, r1
     68c:	1c 96       	adiw	r26, 0x0c	; 12
     68e:	2c 91       	ld	r18, X
     690:	2f 77       	andi	r18, 0x7F	; 127
     692:	82 2b       	or	r24, r18
     694:	09 94       	ijmp
     696:	fd 01       	movw	r30, r26
     698:	ee 5d       	subi	r30, 0xDE	; 222
     69a:	fe 4f       	sbci	r31, 0xFE	; 254
     69c:	01 90       	ld	r0, Z+
     69e:	f0 81       	ld	r31, Z
     6a0:	e0 2d       	mov	r30, r0
     6a2:	30 97       	sbiw	r30, 0x00	; 0
     6a4:	69 f0       	breq	.+26     	; 0x6c0 <_ZN4midi13MidiInterfaceI14HardwareSerialE14launchCallbackEv+0x1c6>
     6a6:	1c 96       	adiw	r26, 0x0c	; 12
     6a8:	8c 91       	ld	r24, X
     6aa:	09 94       	ijmp
     6ac:	ac 5d       	subi	r26, 0xDC	; 220
     6ae:	be 4f       	sbci	r27, 0xFE	; 254
     6b0:	02 c0       	rjmp	.+4      	; 0x6b6 <_ZN4midi13MidiInterfaceI14HardwareSerialE14launchCallbackEv+0x1bc>
     6b2:	a0 5d       	subi	r26, 0xD0	; 208
     6b4:	be 4f       	sbci	r27, 0xFE	; 254
     6b6:	ed 91       	ld	r30, X+
     6b8:	fc 91       	ld	r31, X
     6ba:	30 97       	sbiw	r30, 0x00	; 0
     6bc:	09 f0       	breq	.+2      	; 0x6c0 <_ZN4midi13MidiInterfaceI14HardwareSerialE14launchCallbackEv+0x1c6>
     6be:	09 94       	ijmp
     6c0:	08 95       	ret

000006c2 <_ZN4midi13MidiInterfaceI14HardwareSerialE16isChannelMessageENS_8MidiTypeE>:
     6c2:	80 38       	cpi	r24, 0x80	; 128
     6c4:	91 05       	cpc	r25, r1
     6c6:	a9 f0       	breq	.+42     	; 0x6f2 <_ZN4midi13MidiInterfaceI14HardwareSerialE16isChannelMessageENS_8MidiTypeE+0x30>
     6c8:	80 39       	cpi	r24, 0x90	; 144
     6ca:	91 05       	cpc	r25, r1
     6cc:	91 f0       	breq	.+36     	; 0x6f2 <_ZN4midi13MidiInterfaceI14HardwareSerialE16isChannelMessageENS_8MidiTypeE+0x30>
     6ce:	80 3b       	cpi	r24, 0xB0	; 176
     6d0:	91 05       	cpc	r25, r1
     6d2:	79 f0       	breq	.+30     	; 0x6f2 <_ZN4midi13MidiInterfaceI14HardwareSerialE16isChannelMessageENS_8MidiTypeE+0x30>
     6d4:	80 3a       	cpi	r24, 0xA0	; 160
     6d6:	91 05       	cpc	r25, r1
     6d8:	61 f0       	breq	.+24     	; 0x6f2 <_ZN4midi13MidiInterfaceI14HardwareSerialE16isChannelMessageENS_8MidiTypeE+0x30>
     6da:	80 3d       	cpi	r24, 0xD0	; 208
     6dc:	91 05       	cpc	r25, r1
     6de:	49 f0       	breq	.+18     	; 0x6f2 <_ZN4midi13MidiInterfaceI14HardwareSerialE16isChannelMessageENS_8MidiTypeE+0x30>
     6e0:	21 e0       	ldi	r18, 0x01	; 1
     6e2:	80 3e       	cpi	r24, 0xE0	; 224
     6e4:	91 05       	cpc	r25, r1
     6e6:	31 f0       	breq	.+12     	; 0x6f4 <_ZN4midi13MidiInterfaceI14HardwareSerialE16isChannelMessageENS_8MidiTypeE+0x32>
     6e8:	80 3c       	cpi	r24, 0xC0	; 192
     6ea:	91 05       	cpc	r25, r1
     6ec:	19 f0       	breq	.+6      	; 0x6f4 <_ZN4midi13MidiInterfaceI14HardwareSerialE16isChannelMessageENS_8MidiTypeE+0x32>
     6ee:	20 e0       	ldi	r18, 0x00	; 0
     6f0:	01 c0       	rjmp	.+2      	; 0x6f4 <_ZN4midi13MidiInterfaceI14HardwareSerialE16isChannelMessageENS_8MidiTypeE+0x32>
     6f2:	21 e0       	ldi	r18, 0x01	; 1
     6f4:	82 2f       	mov	r24, r18
     6f6:	08 95       	ret

000006f8 <_ZN4midi13MidiInterfaceI14HardwareSerialE21getTypeFromStatusByteEh>:
     6f8:	87 ff       	sbrs	r24, 7
     6fa:	0e c0       	rjmp	.+28     	; 0x718 <_ZN4midi13MidiInterfaceI14HardwareSerialE21getTypeFromStatusByteEh+0x20>
     6fc:	84 3f       	cpi	r24, 0xF4	; 244
     6fe:	61 f0       	breq	.+24     	; 0x718 <_ZN4midi13MidiInterfaceI14HardwareSerialE21getTypeFromStatusByteEh+0x20>
     700:	85 3f       	cpi	r24, 0xF5	; 245
     702:	51 f0       	breq	.+20     	; 0x718 <_ZN4midi13MidiInterfaceI14HardwareSerialE21getTypeFromStatusByteEh+0x20>
     704:	89 3f       	cpi	r24, 0xF9	; 249
     706:	41 f0       	breq	.+16     	; 0x718 <_ZN4midi13MidiInterfaceI14HardwareSerialE21getTypeFromStatusByteEh+0x20>
     708:	8d 3f       	cpi	r24, 0xFD	; 253
     70a:	31 f0       	breq	.+12     	; 0x718 <_ZN4midi13MidiInterfaceI14HardwareSerialE21getTypeFromStatusByteEh+0x20>
     70c:	80 3f       	cpi	r24, 0xF0	; 240
     70e:	08 f4       	brcc	.+2      	; 0x712 <_ZN4midi13MidiInterfaceI14HardwareSerialE21getTypeFromStatusByteEh+0x1a>
     710:	80 7f       	andi	r24, 0xF0	; 240
     712:	28 2f       	mov	r18, r24
     714:	30 e0       	ldi	r19, 0x00	; 0
     716:	02 c0       	rjmp	.+4      	; 0x71c <_ZN4midi13MidiInterfaceI14HardwareSerialE21getTypeFromStatusByteEh+0x24>
     718:	20 e0       	ldi	r18, 0x00	; 0
     71a:	30 e0       	ldi	r19, 0x00	; 0
     71c:	c9 01       	movw	r24, r18
     71e:	08 95       	ret

00000720 <_ZN4midi13MidiInterfaceI14HardwareSerialE5parseEv>:
     720:	2f 92       	push	r2
     722:	3f 92       	push	r3
     724:	4f 92       	push	r4
     726:	5f 92       	push	r5
     728:	6f 92       	push	r6
     72a:	7f 92       	push	r7
     72c:	8f 92       	push	r8
     72e:	9f 92       	push	r9
     730:	af 92       	push	r10
     732:	bf 92       	push	r11
     734:	cf 92       	push	r12
     736:	df 92       	push	r13
     738:	ef 92       	push	r14
     73a:	ff 92       	push	r15
     73c:	0f 93       	push	r16
     73e:	1f 93       	push	r17
     740:	cf 93       	push	r28
     742:	df 93       	push	r29
     744:	1f 92       	push	r1
     746:	cd b7       	in	r28, 0x3d	; 61
     748:	de b7       	in	r29, 0x3e	; 62
     74a:	1c 01       	movw	r2, r24
     74c:	8c 01       	movw	r16, r24
     74e:	0c 5c       	subi	r16, 0xCC	; 204
     750:	1e 4f       	sbci	r17, 0xFE	; 254
     752:	52 e0       	ldi	r21, 0x02	; 2
     754:	e5 2e       	mov	r14, r21
     756:	f1 2c       	mov	r15, r1
     758:	63 e0       	ldi	r22, 0x03	; 3
     75a:	c6 2e       	mov	r12, r22
     75c:	d1 2c       	mov	r13, r1
     75e:	aa 24       	eor	r10, r10
     760:	aa 94       	dec	r10
     762:	b1 2c       	mov	r11, r1
     764:	e0 ef       	ldi	r30, 0xF0	; 240
     766:	7e 2e       	mov	r7, r30
     768:	88 24       	eor	r8, r8
     76a:	83 94       	inc	r8
     76c:	91 2c       	mov	r9, r1
     76e:	d8 01       	movw	r26, r16
     770:	8d 91       	ld	r24, X+
     772:	9c 91       	ld	r25, X
     774:	dc 01       	movw	r26, r24
     776:	ed 91       	ld	r30, X+
     778:	fc 91       	ld	r31, X
     77a:	04 80       	ldd	r0, Z+4	; 0x04
     77c:	f5 81       	ldd	r31, Z+5	; 0x05
     77e:	e0 2d       	mov	r30, r0
     780:	09 95       	icall
     782:	89 2b       	or	r24, r25
     784:	09 f4       	brne	.+2      	; 0x788 <_ZN4midi13MidiInterfaceI14HardwareSerialE5parseEv+0x68>
     786:	8e c1       	rjmp	.+796    	; 0xaa4 <__stack+0x1a5>
     788:	f8 01       	movw	r30, r16
     78a:	80 81       	ld	r24, Z
     78c:	91 81       	ldd	r25, Z+1	; 0x01
     78e:	dc 01       	movw	r26, r24
     790:	ed 91       	ld	r30, X+
     792:	fc 91       	ld	r31, X
     794:	06 80       	ldd	r0, Z+6	; 0x06
     796:	f7 81       	ldd	r31, Z+7	; 0x07
     798:	e0 2d       	mov	r30, r0
     79a:	09 95       	icall
     79c:	2c 01       	movw	r4, r24
     79e:	48 2f       	mov	r20, r24
     7a0:	f1 01       	movw	r30, r2
     7a2:	87 81       	ldd	r24, Z+7	; 0x07
     7a4:	90 85       	ldd	r25, Z+8	; 0x08
     7a6:	00 97       	sbiw	r24, 0x00	; 0
     7a8:	09 f0       	breq	.+2      	; 0x7ac <_ZN4midi13MidiInterfaceI14HardwareSerialE5parseEv+0x8c>
     7aa:	c0 c0       	rjmp	.+384    	; 0x92c <__stack+0x2d>
     7ac:	42 82       	std	Z+2, r4	; 0x02
     7ae:	60 80       	ld	r6, Z
     7b0:	86 2d       	mov	r24, r6
     7b2:	a2 df       	rcall	.-188    	; 0x6f8 <_ZN4midi13MidiInterfaceI14HardwareSerialE21getTypeFromStatusByteEh>
     7b4:	86 df       	rcall	.-244    	; 0x6c2 <_ZN4midi13MidiInterfaceI14HardwareSerialE16isChannelMessageENS_8MidiTypeE>
     7b6:	88 23       	and	r24, r24
     7b8:	69 f0       	breq	.+26     	; 0x7d4 <_ZN4midi13MidiInterfaceI14HardwareSerialE5parseEv+0xb4>
     7ba:	47 fc       	sbrc	r4, 7
     7bc:	0b c0       	rjmp	.+22     	; 0x7d4 <_ZN4midi13MidiInterfaceI14HardwareSerialE5parseEv+0xb4>
     7be:	d1 01       	movw	r26, r2
     7c0:	12 96       	adiw	r26, 0x02	; 2
     7c2:	6c 92       	st	X, r6
     7c4:	12 97       	sbiw	r26, 0x02	; 2
     7c6:	13 96       	adiw	r26, 0x03	; 3
     7c8:	4c 92       	st	X, r4
     7ca:	13 97       	sbiw	r26, 0x03	; 3
     7cc:	18 96       	adiw	r26, 0x08	; 8
     7ce:	9c 92       	st	X, r9
     7d0:	8e 92       	st	-X, r8
     7d2:	17 97       	sbiw	r26, 0x07	; 7
     7d4:	f1 01       	movw	r30, r2
     7d6:	52 80       	ldd	r5, Z+2	; 0x02
     7d8:	85 2d       	mov	r24, r5
     7da:	8e df       	rcall	.-228    	; 0x6f8 <_ZN4midi13MidiInterfaceI14HardwareSerialE21getTypeFromStatusByteEh>
     7dc:	81 3f       	cpi	r24, 0xF1	; 241
     7de:	91 05       	cpc	r25, r1
     7e0:	09 f4       	brne	.+2      	; 0x7e4 <_ZN4midi13MidiInterfaceI14HardwareSerialE5parseEv+0xc4>
     7e2:	54 c0       	rjmp	.+168    	; 0x88c <_ZN4midi13MidiInterfaceI14HardwareSerialE5parseEv+0x16c>
     7e4:	1c f5       	brge	.+70     	; 0x82c <_ZN4midi13MidiInterfaceI14HardwareSerialE5parseEv+0x10c>
     7e6:	80 3b       	cpi	r24, 0xB0	; 176
     7e8:	91 05       	cpc	r25, r1
     7ea:	09 f4       	brne	.+2      	; 0x7ee <_ZN4midi13MidiInterfaceI14HardwareSerialE5parseEv+0xce>
     7ec:	55 c0       	rjmp	.+170    	; 0x898 <_ZN4midi13MidiInterfaceI14HardwareSerialE5parseEv+0x178>
     7ee:	6c f4       	brge	.+26     	; 0x80a <_ZN4midi13MidiInterfaceI14HardwareSerialE5parseEv+0xea>
     7f0:	80 39       	cpi	r24, 0x90	; 144
     7f2:	91 05       	cpc	r25, r1
     7f4:	09 f4       	brne	.+2      	; 0x7f8 <_ZN4midi13MidiInterfaceI14HardwareSerialE5parseEv+0xd8>
     7f6:	50 c0       	rjmp	.+160    	; 0x898 <_ZN4midi13MidiInterfaceI14HardwareSerialE5parseEv+0x178>
     7f8:	80 3a       	cpi	r24, 0xA0	; 160
     7fa:	91 05       	cpc	r25, r1
     7fc:	09 f4       	brne	.+2      	; 0x800 <_ZN4midi13MidiInterfaceI14HardwareSerialE5parseEv+0xe0>
     7fe:	4c c0       	rjmp	.+152    	; 0x898 <_ZN4midi13MidiInterfaceI14HardwareSerialE5parseEv+0x178>
     800:	80 38       	cpi	r24, 0x80	; 128
     802:	91 05       	cpc	r25, r1
     804:	09 f0       	breq	.+2      	; 0x808 <_ZN4midi13MidiInterfaceI14HardwareSerialE5parseEv+0xe8>
     806:	55 c0       	rjmp	.+170    	; 0x8b2 <_ZN4midi13MidiInterfaceI14HardwareSerialE5parseEv+0x192>
     808:	47 c0       	rjmp	.+142    	; 0x898 <_ZN4midi13MidiInterfaceI14HardwareSerialE5parseEv+0x178>
     80a:	80 3d       	cpi	r24, 0xD0	; 208
     80c:	91 05       	cpc	r25, r1
     80e:	f1 f1       	breq	.+124    	; 0x88c <_ZN4midi13MidiInterfaceI14HardwareSerialE5parseEv+0x16c>
     810:	2c f4       	brge	.+10     	; 0x81c <_ZN4midi13MidiInterfaceI14HardwareSerialE5parseEv+0xfc>
     812:	80 3c       	cpi	r24, 0xC0	; 192
     814:	91 05       	cpc	r25, r1
     816:	09 f0       	breq	.+2      	; 0x81a <_ZN4midi13MidiInterfaceI14HardwareSerialE5parseEv+0xfa>
     818:	4c c0       	rjmp	.+152    	; 0x8b2 <_ZN4midi13MidiInterfaceI14HardwareSerialE5parseEv+0x192>
     81a:	38 c0       	rjmp	.+112    	; 0x88c <_ZN4midi13MidiInterfaceI14HardwareSerialE5parseEv+0x16c>
     81c:	80 3e       	cpi	r24, 0xE0	; 224
     81e:	91 05       	cpc	r25, r1
     820:	d9 f1       	breq	.+118    	; 0x898 <_ZN4midi13MidiInterfaceI14HardwareSerialE5parseEv+0x178>
     822:	80 3f       	cpi	r24, 0xF0	; 240
     824:	91 05       	cpc	r25, r1
     826:	09 f0       	breq	.+2      	; 0x82a <_ZN4midi13MidiInterfaceI14HardwareSerialE5parseEv+0x10a>
     828:	44 c0       	rjmp	.+136    	; 0x8b2 <_ZN4midi13MidiInterfaceI14HardwareSerialE5parseEv+0x192>
     82a:	3a c0       	rjmp	.+116    	; 0x8a0 <_ZN4midi13MidiInterfaceI14HardwareSerialE5parseEv+0x180>
     82c:	88 3f       	cpi	r24, 0xF8	; 248
     82e:	91 05       	cpc	r25, r1
     830:	a9 f0       	breq	.+42     	; 0x85c <_ZN4midi13MidiInterfaceI14HardwareSerialE5parseEv+0x13c>
     832:	44 f4       	brge	.+16     	; 0x844 <_ZN4midi13MidiInterfaceI14HardwareSerialE5parseEv+0x124>
     834:	83 3f       	cpi	r24, 0xF3	; 243
     836:	91 05       	cpc	r25, r1
     838:	49 f1       	breq	.+82     	; 0x88c <_ZN4midi13MidiInterfaceI14HardwareSerialE5parseEv+0x16c>
     83a:	74 f1       	brlt	.+92     	; 0x898 <_ZN4midi13MidiInterfaceI14HardwareSerialE5parseEv+0x178>
     83c:	86 3f       	cpi	r24, 0xF6	; 246
     83e:	91 05       	cpc	r25, r1
     840:	c1 f5       	brne	.+112    	; 0x8b2 <_ZN4midi13MidiInterfaceI14HardwareSerialE5parseEv+0x192>
     842:	0c c0       	rjmp	.+24     	; 0x85c <_ZN4midi13MidiInterfaceI14HardwareSerialE5parseEv+0x13c>
     844:	8a 3f       	cpi	r24, 0xFA	; 250
     846:	91 05       	cpc	r25, r1
     848:	a4 f1       	brlt	.+104    	; 0x8b2 <_ZN4midi13MidiInterfaceI14HardwareSerialE5parseEv+0x192>
     84a:	8d 3f       	cpi	r24, 0xFD	; 253
     84c:	91 05       	cpc	r25, r1
     84e:	34 f0       	brlt	.+12     	; 0x85c <_ZN4midi13MidiInterfaceI14HardwareSerialE5parseEv+0x13c>
     850:	9c 01       	movw	r18, r24
     852:	2e 5f       	subi	r18, 0xFE	; 254
     854:	31 09       	sbc	r19, r1
     856:	22 30       	cpi	r18, 0x02	; 2
     858:	31 05       	cpc	r19, r1
     85a:	58 f5       	brcc	.+86     	; 0x8b2 <_ZN4midi13MidiInterfaceI14HardwareSerialE5parseEv+0x192>
     85c:	d1 01       	movw	r26, r2
     85e:	1b 96       	adiw	r26, 0x0b	; 11
     860:	9c 93       	st	X, r25
     862:	8e 93       	st	-X, r24
     864:	1a 97       	sbiw	r26, 0x0a	; 10
     866:	19 96       	adiw	r26, 0x09	; 9
     868:	1c 92       	st	X, r1
     86a:	19 97       	sbiw	r26, 0x09	; 9
     86c:	1c 96       	adiw	r26, 0x0c	; 12
     86e:	1c 92       	st	X, r1
     870:	1c 97       	sbiw	r26, 0x0c	; 12
     872:	1d 96       	adiw	r26, 0x0d	; 13
     874:	1c 92       	st	X, r1
     876:	f1 01       	movw	r30, r2
     878:	e3 5f       	subi	r30, 0xF3	; 243
     87a:	fe 4f       	sbci	r31, 0xFE	; 254
     87c:	81 e0       	ldi	r24, 0x01	; 1
     87e:	80 83       	st	Z, r24
     880:	f1 01       	movw	r30, r2
     882:	10 86       	std	Z+8, r1	; 0x08
     884:	17 82       	std	Z+7, r1	; 0x07
     886:	16 82       	std	Z+6, r1	; 0x06
     888:	15 82       	std	Z+5, r1	; 0x05
     88a:	0d c1       	rjmp	.+538    	; 0xaa6 <__stack+0x1a7>
     88c:	d1 01       	movw	r26, r2
     88e:	16 96       	adiw	r26, 0x06	; 6
     890:	fc 92       	st	X, r15
     892:	ee 92       	st	-X, r14
     894:	15 97       	sbiw	r26, 0x05	; 5
     896:	0f c0       	rjmp	.+30     	; 0x8b6 <_ZN4midi13MidiInterfaceI14HardwareSerialE5parseEv+0x196>
     898:	f1 01       	movw	r30, r2
     89a:	d6 82       	std	Z+6, r13	; 0x06
     89c:	c5 82       	std	Z+5, r12	; 0x05
     89e:	0b c0       	rjmp	.+22     	; 0x8b6 <_ZN4midi13MidiInterfaceI14HardwareSerialE5parseEv+0x196>
     8a0:	d1 01       	movw	r26, r2
     8a2:	16 96       	adiw	r26, 0x06	; 6
     8a4:	bc 92       	st	X, r11
     8a6:	ae 92       	st	-X, r10
     8a8:	15 97       	sbiw	r26, 0x05	; 5
     8aa:	1c 92       	st	X, r1
     8ac:	1e 96       	adiw	r26, 0x0e	; 14
     8ae:	7c 92       	st	X, r7
     8b0:	02 c0       	rjmp	.+4      	; 0x8b6 <_ZN4midi13MidiInterfaceI14HardwareSerialE5parseEv+0x196>
     8b2:	f1 01       	movw	r30, r2
     8b4:	9a c0       	rjmp	.+308    	; 0x9ea <__stack+0xeb>
     8b6:	d1 01       	movw	r26, r2
     8b8:	17 96       	adiw	r26, 0x07	; 7
     8ba:	2d 91       	ld	r18, X+
     8bc:	3c 91       	ld	r19, X
     8be:	18 97       	sbiw	r26, 0x08	; 8
     8c0:	15 96       	adiw	r26, 0x05	; 5
     8c2:	4d 91       	ld	r20, X+
     8c4:	5c 91       	ld	r21, X
     8c6:	16 97       	sbiw	r26, 0x06	; 6
     8c8:	ba 01       	movw	r22, r20
     8ca:	61 50       	subi	r22, 0x01	; 1
     8cc:	71 09       	sbc	r23, r1
     8ce:	26 17       	cp	r18, r22
     8d0:	37 07       	cpc	r19, r23
     8d2:	30 f1       	brcs	.+76     	; 0x920 <__stack+0x21>
     8d4:	1b 96       	adiw	r26, 0x0b	; 11
     8d6:	9c 93       	st	X, r25
     8d8:	8e 93       	st	-X, r24
     8da:	1a 97       	sbiw	r26, 0x0a	; 10
     8dc:	85 2d       	mov	r24, r5
     8de:	8f 70       	andi	r24, 0x0F	; 15
     8e0:	8f 5f       	subi	r24, 0xFF	; 255
     8e2:	19 96       	adiw	r26, 0x09	; 9
     8e4:	8c 93       	st	X, r24
     8e6:	19 97       	sbiw	r26, 0x09	; 9
     8e8:	13 96       	adiw	r26, 0x03	; 3
     8ea:	8c 91       	ld	r24, X
     8ec:	13 97       	sbiw	r26, 0x03	; 3
     8ee:	1c 96       	adiw	r26, 0x0c	; 12
     8f0:	8c 93       	st	X, r24
     8f2:	1c 97       	sbiw	r26, 0x0c	; 12
     8f4:	43 30       	cpi	r20, 0x03	; 3
     8f6:	51 05       	cpc	r21, r1
     8f8:	31 f4       	brne	.+12     	; 0x906 <__stack+0x7>
     8fa:	14 96       	adiw	r26, 0x04	; 4
     8fc:	8c 91       	ld	r24, X
     8fe:	14 97       	sbiw	r26, 0x04	; 4
     900:	1d 96       	adiw	r26, 0x0d	; 13
     902:	8c 93       	st	X, r24
     904:	02 c0       	rjmp	.+4      	; 0x90a <__stack+0xb>
     906:	f1 01       	movw	r30, r2
     908:	15 86       	std	Z+13, r1	; 0x0d
     90a:	d1 01       	movw	r26, r2
     90c:	18 96       	adiw	r26, 0x08	; 8
     90e:	1c 92       	st	X, r1
     910:	1e 92       	st	-X, r1
     912:	17 97       	sbiw	r26, 0x07	; 7
     914:	16 96       	adiw	r26, 0x06	; 6
     916:	1c 92       	st	X, r1
     918:	1e 92       	st	-X, r1
     91a:	15 97       	sbiw	r26, 0x05	; 5
     91c:	f1 01       	movw	r30, r2
     91e:	26 c0       	rjmp	.+76     	; 0x96c <__stack+0x6d>
     920:	2f 5f       	subi	r18, 0xFF	; 255
     922:	3f 4f       	sbci	r19, 0xFF	; 255
     924:	f1 01       	movw	r30, r2
     926:	30 87       	std	Z+8, r19	; 0x08
     928:	27 83       	std	Z+7, r18	; 0x07
     92a:	21 cf       	rjmp	.-446    	; 0x76e <_ZN4midi13MidiInterfaceI14HardwareSerialE5parseEv+0x4e>
     92c:	47 fe       	sbrs	r4, 7
     92e:	45 c0       	rjmp	.+138    	; 0x9ba <__stack+0xbb>
     930:	55 24       	eor	r5, r5
     932:	fd ef       	ldi	r31, 0xFD	; 253
     934:	4f 16       	cp	r4, r31
     936:	51 04       	cpc	r5, r1
     938:	6c f4       	brge	.+26     	; 0x954 <__stack+0x55>
     93a:	2a ef       	ldi	r18, 0xFA	; 250
     93c:	42 16       	cp	r4, r18
     93e:	51 04       	cpc	r5, r1
     940:	7c f4       	brge	.+30     	; 0x960 <__stack+0x61>
     942:	a7 ef       	ldi	r26, 0xF7	; 247
     944:	4a 16       	cp	r4, r26
     946:	51 04       	cpc	r5, r1
     948:	b1 f0       	breq	.+44     	; 0x976 <__stack+0x77>
     94a:	b8 ef       	ldi	r27, 0xF8	; 248
     94c:	4b 16       	cp	r4, r27
     94e:	51 04       	cpc	r5, r1
     950:	a1 f5       	brne	.+104    	; 0x9ba <__stack+0xbb>
     952:	06 c0       	rjmp	.+12     	; 0x960 <__stack+0x61>
     954:	92 01       	movw	r18, r4
     956:	2e 5f       	subi	r18, 0xFE	; 254
     958:	31 09       	sbc	r19, r1
     95a:	22 30       	cpi	r18, 0x02	; 2
     95c:	31 05       	cpc	r19, r1
     95e:	68 f5       	brcc	.+90     	; 0x9ba <__stack+0xbb>
     960:	f1 01       	movw	r30, r2
     962:	53 86       	std	Z+11, r5	; 0x0b
     964:	42 86       	std	Z+10, r4	; 0x0a
     966:	14 86       	std	Z+12, r1	; 0x0c
     968:	15 86       	std	Z+13, r1	; 0x0d
     96a:	11 86       	std	Z+9, r1	; 0x09
     96c:	e3 5f       	subi	r30, 0xF3	; 243
     96e:	fe 4f       	sbci	r31, 0xFE	; 254
     970:	81 e0       	ldi	r24, 0x01	; 1
     972:	80 83       	st	Z, r24
     974:	98 c0       	rjmp	.+304    	; 0xaa6 <__stack+0x1a7>
     976:	d1 01       	movw	r26, r2
     978:	1e 96       	adiw	r26, 0x0e	; 14
     97a:	2c 91       	ld	r18, X
     97c:	1e 97       	sbiw	r26, 0x0e	; 14
     97e:	f1 01       	movw	r30, r2
     980:	20 3f       	cpi	r18, 0xF0	; 240
     982:	99 f5       	brne	.+102    	; 0x9ea <__stack+0xeb>
     984:	e8 0f       	add	r30, r24
     986:	f9 1f       	adc	r31, r25
     988:	27 ef       	ldi	r18, 0xF7	; 247
     98a:	26 87       	std	Z+14, r18	; 0x0e
     98c:	01 96       	adiw	r24, 0x01	; 1
     98e:	20 ef       	ldi	r18, 0xF0	; 240
     990:	30 e0       	ldi	r19, 0x00	; 0
     992:	f1 01       	movw	r30, r2
     994:	33 87       	std	Z+11, r19	; 0x0b
     996:	22 87       	std	Z+10, r18	; 0x0a
     998:	84 87       	std	Z+12, r24	; 0x0c
     99a:	95 87       	std	Z+13, r25	; 0x0d
     99c:	11 86       	std	Z+9, r1	; 0x09
     99e:	e3 5f       	subi	r30, 0xF3	; 243
     9a0:	fe 4f       	sbci	r31, 0xFE	; 254
     9a2:	81 e0       	ldi	r24, 0x01	; 1
     9a4:	80 83       	st	Z, r24
     9a6:	18 96       	adiw	r26, 0x08	; 8
     9a8:	1c 92       	st	X, r1
     9aa:	1e 92       	st	-X, r1
     9ac:	17 97       	sbiw	r26, 0x07	; 7
     9ae:	16 96       	adiw	r26, 0x06	; 6
     9b0:	1c 92       	st	X, r1
     9b2:	1e 92       	st	-X, r1
     9b4:	15 97       	sbiw	r26, 0x05	; 5
     9b6:	1c 92       	st	X, r1
     9b8:	76 c0       	rjmp	.+236    	; 0xaa6 <__stack+0x1a7>
     9ba:	d1 01       	movw	r26, r2
     9bc:	12 96       	adiw	r26, 0x02	; 2
     9be:	2c 91       	ld	r18, X
     9c0:	f1 01       	movw	r30, r2
     9c2:	e8 0f       	add	r30, r24
     9c4:	f9 1f       	adc	r31, r25
     9c6:	20 3f       	cpi	r18, 0xF0	; 240
     9c8:	11 f4       	brne	.+4      	; 0x9ce <__stack+0xcf>
     9ca:	46 87       	std	Z+14, r20	; 0x0e
     9cc:	01 c0       	rjmp	.+2      	; 0x9d0 <__stack+0xd1>
     9ce:	42 83       	std	Z+2, r20	; 0x02
     9d0:	f1 01       	movw	r30, r2
     9d2:	45 80       	ldd	r4, Z+5	; 0x05
     9d4:	56 80       	ldd	r5, Z+6	; 0x06
     9d6:	92 01       	movw	r18, r4
     9d8:	21 50       	subi	r18, 0x01	; 1
     9da:	31 09       	sbc	r19, r1
     9dc:	82 17       	cp	r24, r18
     9de:	93 07       	cpc	r25, r19
     9e0:	08 f4       	brcc	.+2      	; 0x9e4 <__stack+0xe5>
     9e2:	5b c0       	rjmp	.+182    	; 0xa9a <__stack+0x19b>
     9e4:	22 81       	ldd	r18, Z+2	; 0x02
     9e6:	20 3f       	cpi	r18, 0xF0	; 240
     9e8:	31 f4       	brne	.+12     	; 0x9f6 <__stack+0xf7>
     9ea:	10 86       	std	Z+8, r1	; 0x08
     9ec:	17 82       	std	Z+7, r1	; 0x07
     9ee:	16 82       	std	Z+6, r1	; 0x06
     9f0:	15 82       	std	Z+5, r1	; 0x05
     9f2:	10 82       	st	Z, r1
     9f4:	57 c0       	rjmp	.+174    	; 0xaa4 <__stack+0x1a5>
     9f6:	82 2f       	mov	r24, r18
     9f8:	29 83       	std	Y+1, r18	; 0x01
     9fa:	7e de       	rcall	.-772    	; 0x6f8 <_ZN4midi13MidiInterfaceI14HardwareSerialE21getTypeFromStatusByteEh>
     9fc:	8c 01       	movw	r16, r24
     9fe:	d1 01       	movw	r26, r2
     a00:	1b 96       	adiw	r26, 0x0b	; 11
     a02:	9c 93       	st	X, r25
     a04:	8e 93       	st	-X, r24
     a06:	1a 97       	sbiw	r26, 0x0a	; 10
     a08:	5c de       	rcall	.-840    	; 0x6c2 <_ZN4midi13MidiInterfaceI14HardwareSerialE16isChannelMessageENS_8MidiTypeE>
     a0a:	29 81       	ldd	r18, Y+1	; 0x01
     a0c:	88 23       	and	r24, r24
     a0e:	31 f0       	breq	.+12     	; 0xa1c <__stack+0x11d>
     a10:	82 2f       	mov	r24, r18
     a12:	8f 70       	andi	r24, 0x0F	; 15
     a14:	8f 5f       	subi	r24, 0xFF	; 255
     a16:	f1 01       	movw	r30, r2
     a18:	81 87       	std	Z+9, r24	; 0x09
     a1a:	03 c0       	rjmp	.+6      	; 0xa22 <__stack+0x123>
     a1c:	d1 01       	movw	r26, r2
     a1e:	19 96       	adiw	r26, 0x09	; 9
     a20:	1c 92       	st	X, r1
     a22:	f1 01       	movw	r30, r2
     a24:	83 81       	ldd	r24, Z+3	; 0x03
     a26:	84 87       	std	Z+12, r24	; 0x0c
     a28:	f3 e0       	ldi	r31, 0x03	; 3
     a2a:	4f 16       	cp	r4, r31
     a2c:	51 04       	cpc	r5, r1
     a2e:	39 f4       	brne	.+14     	; 0xa3e <__stack+0x13f>
     a30:	d1 01       	movw	r26, r2
     a32:	14 96       	adiw	r26, 0x04	; 4
     a34:	8c 91       	ld	r24, X
     a36:	14 97       	sbiw	r26, 0x04	; 4
     a38:	1d 96       	adiw	r26, 0x0d	; 13
     a3a:	8c 93       	st	X, r24
     a3c:	02 c0       	rjmp	.+4      	; 0xa42 <__stack+0x143>
     a3e:	f1 01       	movw	r30, r2
     a40:	15 86       	std	Z+13, r1	; 0x0d
     a42:	d1 01       	movw	r26, r2
     a44:	18 96       	adiw	r26, 0x08	; 8
     a46:	1c 92       	st	X, r1
     a48:	1e 92       	st	-X, r1
     a4a:	17 97       	sbiw	r26, 0x07	; 7
     a4c:	16 96       	adiw	r26, 0x06	; 6
     a4e:	1c 92       	st	X, r1
     a50:	1e 92       	st	-X, r1
     a52:	15 97       	sbiw	r26, 0x05	; 5
     a54:	f1 01       	movw	r30, r2
     a56:	e3 5f       	subi	r30, 0xF3	; 243
     a58:	fe 4f       	sbci	r31, 0xFE	; 254
     a5a:	81 e0       	ldi	r24, 0x01	; 1
     a5c:	80 83       	st	Z, r24
     a5e:	00 3b       	cpi	r16, 0xB0	; 176
     a60:	11 05       	cpc	r17, r1
     a62:	a1 f0       	breq	.+40     	; 0xa8c <__stack+0x18d>
     a64:	54 f4       	brge	.+20     	; 0xa7a <__stack+0x17b>
     a66:	00 39       	cpi	r16, 0x90	; 144
     a68:	11 05       	cpc	r17, r1
     a6a:	81 f0       	breq	.+32     	; 0xa8c <__stack+0x18d>
     a6c:	00 3a       	cpi	r16, 0xA0	; 160
     a6e:	11 05       	cpc	r17, r1
     a70:	69 f0       	breq	.+26     	; 0xa8c <__stack+0x18d>
     a72:	00 38       	cpi	r16, 0x80	; 128
     a74:	11 05       	cpc	r17, r1
     a76:	69 f4       	brne	.+26     	; 0xa92 <__stack+0x193>
     a78:	09 c0       	rjmp	.+18     	; 0xa8c <__stack+0x18d>
     a7a:	00 3d       	cpi	r16, 0xD0	; 208
     a7c:	11 05       	cpc	r17, r1
     a7e:	31 f0       	breq	.+12     	; 0xa8c <__stack+0x18d>
     a80:	00 3e       	cpi	r16, 0xE0	; 224
     a82:	11 05       	cpc	r17, r1
     a84:	19 f0       	breq	.+6      	; 0xa8c <__stack+0x18d>
     a86:	00 3c       	cpi	r16, 0xC0	; 192
     a88:	11 05       	cpc	r17, r1
     a8a:	19 f4       	brne	.+6      	; 0xa92 <__stack+0x193>
     a8c:	f1 01       	movw	r30, r2
     a8e:	20 83       	st	Z, r18
     a90:	02 c0       	rjmp	.+4      	; 0xa96 <__stack+0x197>
     a92:	d1 01       	movw	r26, r2
     a94:	1c 92       	st	X, r1
     a96:	81 e0       	ldi	r24, 0x01	; 1
     a98:	06 c0       	rjmp	.+12     	; 0xaa6 <__stack+0x1a7>
     a9a:	01 96       	adiw	r24, 0x01	; 1
     a9c:	f1 01       	movw	r30, r2
     a9e:	90 87       	std	Z+8, r25	; 0x08
     aa0:	87 83       	std	Z+7, r24	; 0x07
     aa2:	65 ce       	rjmp	.-822    	; 0x76e <_ZN4midi13MidiInterfaceI14HardwareSerialE5parseEv+0x4e>
     aa4:	80 e0       	ldi	r24, 0x00	; 0
     aa6:	0f 90       	pop	r0
     aa8:	df 91       	pop	r29
     aaa:	cf 91       	pop	r28
     aac:	1f 91       	pop	r17
     aae:	0f 91       	pop	r16
     ab0:	ff 90       	pop	r15
     ab2:	ef 90       	pop	r14
     ab4:	df 90       	pop	r13
     ab6:	cf 90       	pop	r12
     ab8:	bf 90       	pop	r11
     aba:	af 90       	pop	r10
     abc:	9f 90       	pop	r9
     abe:	8f 90       	pop	r8
     ac0:	7f 90       	pop	r7
     ac2:	6f 90       	pop	r6
     ac4:	5f 90       	pop	r5
     ac6:	4f 90       	pop	r4
     ac8:	3f 90       	pop	r3
     aca:	2f 90       	pop	r2
     acc:	08 95       	ret

00000ace <_ZN4midi13MidiInterfaceI14HardwareSerialE12sendRealTimeENS_8MidiTypeE>:
     ace:	0f 93       	push	r16
     ad0:	1f 93       	push	r17
     ad2:	cf 93       	push	r28
     ad4:	df 93       	push	r29
     ad6:	8c 01       	movw	r16, r24
     ad8:	eb 01       	movw	r28, r22
     ada:	6d 3f       	cpi	r22, 0xFD	; 253
     adc:	71 05       	cpc	r23, r1
     ade:	54 f4       	brge	.+20     	; 0xaf4 <_ZN4midi13MidiInterfaceI14HardwareSerialE12sendRealTimeENS_8MidiTypeE+0x26>
     ae0:	6a 3f       	cpi	r22, 0xFA	; 250
     ae2:	71 05       	cpc	r23, r1
     ae4:	64 f4       	brge	.+24     	; 0xafe <_ZN4midi13MidiInterfaceI14HardwareSerialE12sendRealTimeENS_8MidiTypeE+0x30>
     ae6:	66 3f       	cpi	r22, 0xF6	; 246
     ae8:	71 05       	cpc	r23, r1
     aea:	49 f0       	breq	.+18     	; 0xafe <_ZN4midi13MidiInterfaceI14HardwareSerialE12sendRealTimeENS_8MidiTypeE+0x30>
     aec:	68 3f       	cpi	r22, 0xF8	; 248
     aee:	71 05       	cpc	r23, r1
     af0:	99 f4       	brne	.+38     	; 0xb18 <_ZN4midi13MidiInterfaceI14HardwareSerialE12sendRealTimeENS_8MidiTypeE+0x4a>
     af2:	05 c0       	rjmp	.+10     	; 0xafe <_ZN4midi13MidiInterfaceI14HardwareSerialE12sendRealTimeENS_8MidiTypeE+0x30>
     af4:	cb 01       	movw	r24, r22
     af6:	8e 5f       	subi	r24, 0xFE	; 254
     af8:	91 09       	sbc	r25, r1
     afa:	02 97       	sbiw	r24, 0x02	; 2
     afc:	68 f4       	brcc	.+26     	; 0xb18 <_ZN4midi13MidiInterfaceI14HardwareSerialE12sendRealTimeENS_8MidiTypeE+0x4a>
     afe:	f8 01       	movw	r30, r16
     b00:	ec 5c       	subi	r30, 0xCC	; 204
     b02:	fe 4f       	sbci	r31, 0xFE	; 254
     b04:	80 81       	ld	r24, Z
     b06:	91 81       	ldd	r25, Z+1	; 0x01
     b08:	dc 01       	movw	r26, r24
     b0a:	ed 91       	ld	r30, X+
     b0c:	fc 91       	ld	r31, X
     b0e:	01 90       	ld	r0, Z+
     b10:	f0 81       	ld	r31, Z
     b12:	e0 2d       	mov	r30, r0
     b14:	6c 2f       	mov	r22, r28
     b16:	09 95       	icall
     b18:	c6 3f       	cpi	r28, 0xF6	; 246
     b1a:	d1 05       	cpc	r29, r1
     b1c:	21 f4       	brne	.+8      	; 0xb26 <_ZN4midi13MidiInterfaceI14HardwareSerialE12sendRealTimeENS_8MidiTypeE+0x58>
     b1e:	f8 01       	movw	r30, r16
     b20:	ed 5c       	subi	r30, 0xCD	; 205
     b22:	fe 4f       	sbci	r31, 0xFE	; 254
     b24:	10 82       	st	Z, r1
     b26:	df 91       	pop	r29
     b28:	cf 91       	pop	r28
     b2a:	1f 91       	pop	r17
     b2c:	0f 91       	pop	r16
     b2e:	08 95       	ret

00000b30 <_ZN4midi13MidiInterfaceI14HardwareSerialE4sendENS_8MidiTypeEhhh>:
     b30:	df 92       	push	r13
     b32:	ef 92       	push	r14
     b34:	ff 92       	push	r15
     b36:	0f 93       	push	r16
     b38:	1f 93       	push	r17
     b3a:	cf 93       	push	r28
     b3c:	df 93       	push	r29
     b3e:	7c 01       	movw	r14, r24
     b40:	eb 01       	movw	r28, r22
     b42:	12 2f       	mov	r17, r18
     b44:	01 50       	subi	r16, 0x01	; 1
     b46:	00 31       	cpi	r16, 0x10	; 16
     b48:	18 f4       	brcc	.+6      	; 0xb50 <_ZN4midi13MidiInterfaceI14HardwareSerialE4sendENS_8MidiTypeEhhh+0x20>
     b4a:	60 38       	cpi	r22, 0x80	; 128
     b4c:	71 05       	cpc	r23, r1
     b4e:	2c f4       	brge	.+10     	; 0xb5a <_ZN4midi13MidiInterfaceI14HardwareSerialE4sendENS_8MidiTypeEhhh+0x2a>
     b50:	f7 01       	movw	r30, r14
     b52:	ed 5c       	subi	r30, 0xCD	; 205
     b54:	fe 4f       	sbci	r31, 0xFE	; 254
     b56:	10 82       	st	Z, r1
     b58:	51 c0       	rjmp	.+162    	; 0xbfc <_ZN4midi13MidiInterfaceI14HardwareSerialE4sendENS_8MidiTypeEhhh+0xcc>
     b5a:	61 3e       	cpi	r22, 0xE1	; 225
     b5c:	71 05       	cpc	r23, r1
     b5e:	0c f0       	brlt	.+2      	; 0xb62 <_ZN4midi13MidiInterfaceI14HardwareSerialE4sendENS_8MidiTypeEhhh+0x32>
     b60:	3f c0       	rjmp	.+126    	; 0xbe0 <_ZN4midi13MidiInterfaceI14HardwareSerialE4sendENS_8MidiTypeEhhh+0xb0>
     b62:	af e7       	ldi	r26, 0x7F	; 127
     b64:	da 2e       	mov	r13, r26
     b66:	d4 22       	and	r13, r20
     b68:	60 2b       	or	r22, r16
     b6a:	fc 01       	movw	r30, r24
     b6c:	ed 5c       	subi	r30, 0xCD	; 205
     b6e:	fe 4f       	sbci	r31, 0xFE	; 254
     b70:	80 81       	ld	r24, Z
     b72:	86 17       	cp	r24, r22
     b74:	69 f0       	breq	.+26     	; 0xb90 <_ZN4midi13MidiInterfaceI14HardwareSerialE4sendENS_8MidiTypeEhhh+0x60>
     b76:	60 83       	st	Z, r22
     b78:	f7 01       	movw	r30, r14
     b7a:	ec 5c       	subi	r30, 0xCC	; 204
     b7c:	fe 4f       	sbci	r31, 0xFE	; 254
     b7e:	80 81       	ld	r24, Z
     b80:	91 81       	ldd	r25, Z+1	; 0x01
     b82:	dc 01       	movw	r26, r24
     b84:	ed 91       	ld	r30, X+
     b86:	fc 91       	ld	r31, X
     b88:	01 90       	ld	r0, Z+
     b8a:	f0 81       	ld	r31, Z
     b8c:	e0 2d       	mov	r30, r0
     b8e:	09 95       	icall
     b90:	bc ec       	ldi	r27, 0xCC	; 204
     b92:	eb 1a       	sub	r14, r27
     b94:	be ef       	ldi	r27, 0xFE	; 254
     b96:	fb 0a       	sbc	r15, r27
     b98:	f7 01       	movw	r30, r14
     b9a:	80 81       	ld	r24, Z
     b9c:	91 81       	ldd	r25, Z+1	; 0x01
     b9e:	dc 01       	movw	r26, r24
     ba0:	ed 91       	ld	r30, X+
     ba2:	fc 91       	ld	r31, X
     ba4:	01 90       	ld	r0, Z+
     ba6:	f0 81       	ld	r31, Z
     ba8:	e0 2d       	mov	r30, r0
     baa:	6d 2d       	mov	r22, r13
     bac:	09 95       	icall
     bae:	c0 3c       	cpi	r28, 0xC0	; 192
     bb0:	d1 05       	cpc	r29, r1
     bb2:	21 f1       	breq	.+72     	; 0xbfc <_ZN4midi13MidiInterfaceI14HardwareSerialE4sendENS_8MidiTypeEhhh+0xcc>
     bb4:	c0 3d       	cpi	r28, 0xD0	; 208
     bb6:	d1 05       	cpc	r29, r1
     bb8:	09 f1       	breq	.+66     	; 0xbfc <_ZN4midi13MidiInterfaceI14HardwareSerialE4sendENS_8MidiTypeEhhh+0xcc>
     bba:	f7 01       	movw	r30, r14
     bbc:	80 81       	ld	r24, Z
     bbe:	91 81       	ldd	r25, Z+1	; 0x01
     bc0:	dc 01       	movw	r26, r24
     bc2:	ed 91       	ld	r30, X+
     bc4:	fc 91       	ld	r31, X
     bc6:	61 2f       	mov	r22, r17
     bc8:	6f 77       	andi	r22, 0x7F	; 127
     bca:	01 90       	ld	r0, Z+
     bcc:	f0 81       	ld	r31, Z
     bce:	e0 2d       	mov	r30, r0
     bd0:	df 91       	pop	r29
     bd2:	cf 91       	pop	r28
     bd4:	1f 91       	pop	r17
     bd6:	0f 91       	pop	r16
     bd8:	ff 90       	pop	r15
     bda:	ef 90       	pop	r14
     bdc:	df 90       	pop	r13
     bde:	09 94       	ijmp
     be0:	cb 01       	movw	r24, r22
     be2:	86 5f       	subi	r24, 0xF6	; 246
     be4:	91 09       	sbc	r25, r1
     be6:	0a 97       	sbiw	r24, 0x0a	; 10
     be8:	48 f4       	brcc	.+18     	; 0xbfc <_ZN4midi13MidiInterfaceI14HardwareSerialE4sendENS_8MidiTypeEhhh+0xcc>
     bea:	c7 01       	movw	r24, r14
     bec:	df 91       	pop	r29
     bee:	cf 91       	pop	r28
     bf0:	1f 91       	pop	r17
     bf2:	0f 91       	pop	r16
     bf4:	ff 90       	pop	r15
     bf6:	ef 90       	pop	r14
     bf8:	df 90       	pop	r13
     bfa:	69 cf       	rjmp	.-302    	; 0xace <_ZN4midi13MidiInterfaceI14HardwareSerialE12sendRealTimeENS_8MidiTypeE>
     bfc:	df 91       	pop	r29
     bfe:	cf 91       	pop	r28
     c00:	1f 91       	pop	r17
     c02:	0f 91       	pop	r16
     c04:	ff 90       	pop	r15
     c06:	ef 90       	pop	r14
     c08:	df 90       	pop	r13
     c0a:	08 95       	ret

00000c0c <_ZN4midi13MidiInterfaceI14HardwareSerialE10thruFilterEh>:
     c0c:	af 92       	push	r10
     c0e:	bf 92       	push	r11
     c10:	cf 92       	push	r12
     c12:	df 92       	push	r13
     c14:	ef 92       	push	r14
     c16:	ff 92       	push	r15
     c18:	0f 93       	push	r16
     c1a:	1f 93       	push	r17
     c1c:	cf 93       	push	r28
     c1e:	df 93       	push	r29
     c20:	1f 92       	push	r1
     c22:	cd b7       	in	r28, 0x3d	; 61
     c24:	de b7       	in	r29, 0x3e	; 62
     c26:	5c 01       	movw	r10, r24
     c28:	fc 01       	movw	r30, r24
     c2a:	ee 5c       	subi	r30, 0xCE	; 206
     c2c:	fe 4f       	sbci	r31, 0xFE	; 254
     c2e:	80 81       	ld	r24, Z
     c30:	80 ff       	sbrs	r24, 0
     c32:	0b c1       	rjmp	.+534    	; 0xe4a <_ZN4midi13MidiInterfaceI14HardwareSerialE10thruFilterEh+0x23e>
     c34:	8e 7f       	andi	r24, 0xFE	; 254
     c36:	09 f4       	brne	.+2      	; 0xc3a <_ZN4midi13MidiInterfaceI14HardwareSerialE10thruFilterEh+0x2e>
     c38:	08 c1       	rjmp	.+528    	; 0xe4a <_ZN4midi13MidiInterfaceI14HardwareSerialE10thruFilterEh+0x23e>
     c3a:	d5 01       	movw	r26, r10
     c3c:	1a 96       	adiw	r26, 0x0a	; 10
     c3e:	6d 91       	ld	r22, X+
     c40:	7c 91       	ld	r23, X
     c42:	1b 97       	sbiw	r26, 0x0b	; 11
     c44:	cb 01       	movw	r24, r22
     c46:	80 58       	subi	r24, 0x80	; 128
     c48:	91 09       	sbc	r25, r1
     c4a:	81 36       	cpi	r24, 0x61	; 97
     c4c:	91 05       	cpc	r25, r1
     c4e:	60 f5       	brcc	.+88     	; 0xca8 <_ZN4midi13MidiInterfaceI14HardwareSerialE10thruFilterEh+0x9c>
     c50:	19 96       	adiw	r26, 0x09	; 9
     c52:	0c 91       	ld	r16, X
     c54:	19 97       	sbiw	r26, 0x09	; 9
     c56:	11 96       	adiw	r26, 0x01	; 1
     c58:	8c 91       	ld	r24, X
     c5a:	21 e0       	ldi	r18, 0x01	; 1
     c5c:	08 17       	cp	r16, r24
     c5e:	11 f0       	breq	.+4      	; 0xc64 <_ZN4midi13MidiInterfaceI14HardwareSerialE10thruFilterEh+0x58>
     c60:	81 11       	cpse	r24, r1
     c62:	20 e0       	ldi	r18, 0x00	; 0
     c64:	f5 01       	movw	r30, r10
     c66:	ee 5c       	subi	r30, 0xCE	; 206
     c68:	fe 4f       	sbci	r31, 0xFE	; 254
     c6a:	80 81       	ld	r24, Z
     c6c:	86 95       	lsr	r24
     c6e:	90 e0       	ldi	r25, 0x00	; 0
     c70:	82 30       	cpi	r24, 0x02	; 2
     c72:	91 05       	cpc	r25, r1
     c74:	39 f0       	breq	.+14     	; 0xc84 <_ZN4midi13MidiInterfaceI14HardwareSerialE10thruFilterEh+0x78>
     c76:	83 30       	cpi	r24, 0x03	; 3
     c78:	91 05       	cpc	r25, r1
     c7a:	71 f0       	breq	.+28     	; 0xc98 <_ZN4midi13MidiInterfaceI14HardwareSerialE10thruFilterEh+0x8c>
     c7c:	01 97       	sbiw	r24, 0x01	; 1
     c7e:	09 f0       	breq	.+2      	; 0xc82 <_ZN4midi13MidiInterfaceI14HardwareSerialE10thruFilterEh+0x76>
     c80:	e4 c0       	rjmp	.+456    	; 0xe4a <_ZN4midi13MidiInterfaceI14HardwareSerialE10thruFilterEh+0x23e>
     c82:	0c c0       	rjmp	.+24     	; 0xc9c <_ZN4midi13MidiInterfaceI14HardwareSerialE10thruFilterEh+0x90>
     c84:	22 23       	and	r18, r18
     c86:	09 f4       	brne	.+2      	; 0xc8a <_ZN4midi13MidiInterfaceI14HardwareSerialE10thruFilterEh+0x7e>
     c88:	e0 c0       	rjmp	.+448    	; 0xe4a <_ZN4midi13MidiInterfaceI14HardwareSerialE10thruFilterEh+0x23e>
     c8a:	d5 01       	movw	r26, r10
     c8c:	1d 96       	adiw	r26, 0x0d	; 13
     c8e:	2c 91       	ld	r18, X
     c90:	1d 97       	sbiw	r26, 0x0d	; 13
     c92:	1c 96       	adiw	r26, 0x0c	; 12
     c94:	4c 91       	ld	r20, X
     c96:	05 c0       	rjmp	.+10     	; 0xca2 <_ZN4midi13MidiInterfaceI14HardwareSerialE10thruFilterEh+0x96>
     c98:	21 11       	cpse	r18, r1
     c9a:	d7 c0       	rjmp	.+430    	; 0xe4a <_ZN4midi13MidiInterfaceI14HardwareSerialE10thruFilterEh+0x23e>
     c9c:	f5 01       	movw	r30, r10
     c9e:	25 85       	ldd	r18, Z+13	; 0x0d
     ca0:	44 85       	ldd	r20, Z+12	; 0x0c
     ca2:	c5 01       	movw	r24, r10
     ca4:	45 df       	rcall	.-374    	; 0xb30 <_ZN4midi13MidiInterfaceI14HardwareSerialE4sendENS_8MidiTypeEhhh>
     ca6:	d1 c0       	rjmp	.+418    	; 0xe4a <_ZN4midi13MidiInterfaceI14HardwareSerialE10thruFilterEh+0x23e>
     ca8:	66 3f       	cpi	r22, 0xF6	; 246
     caa:	71 05       	cpc	r23, r1
     cac:	29 f1       	breq	.+74     	; 0xcf8 <_ZN4midi13MidiInterfaceI14HardwareSerialE10thruFilterEh+0xec>
     cae:	9c f4       	brge	.+38     	; 0xcd6 <_ZN4midi13MidiInterfaceI14HardwareSerialE10thruFilterEh+0xca>
     cb0:	61 3f       	cpi	r22, 0xF1	; 241
     cb2:	71 05       	cpc	r23, r1
     cb4:	09 f4       	brne	.+2      	; 0xcb8 <_ZN4midi13MidiInterfaceI14HardwareSerialE10thruFilterEh+0xac>
     cb6:	9e c0       	rjmp	.+316    	; 0xdf4 <_ZN4midi13MidiInterfaceI14HardwareSerialE10thruFilterEh+0x1e8>
     cb8:	2c f4       	brge	.+10     	; 0xcc4 <_ZN4midi13MidiInterfaceI14HardwareSerialE10thruFilterEh+0xb8>
     cba:	60 3f       	cpi	r22, 0xF0	; 240
     cbc:	71 05       	cpc	r23, r1
     cbe:	09 f0       	breq	.+2      	; 0xcc2 <_ZN4midi13MidiInterfaceI14HardwareSerialE10thruFilterEh+0xb6>
     cc0:	c4 c0       	rjmp	.+392    	; 0xe4a <_ZN4midi13MidiInterfaceI14HardwareSerialE10thruFilterEh+0x23e>
     cc2:	27 c0       	rjmp	.+78     	; 0xd12 <_ZN4midi13MidiInterfaceI14HardwareSerialE10thruFilterEh+0x106>
     cc4:	62 3f       	cpi	r22, 0xF2	; 242
     cc6:	71 05       	cpc	r23, r1
     cc8:	09 f4       	brne	.+2      	; 0xccc <_ZN4midi13MidiInterfaceI14HardwareSerialE10thruFilterEh+0xc0>
     cca:	66 c0       	rjmp	.+204    	; 0xd98 <_ZN4midi13MidiInterfaceI14HardwareSerialE10thruFilterEh+0x18c>
     ccc:	63 3f       	cpi	r22, 0xF3	; 243
     cce:	71 05       	cpc	r23, r1
     cd0:	09 f0       	breq	.+2      	; 0xcd4 <_ZN4midi13MidiInterfaceI14HardwareSerialE10thruFilterEh+0xc8>
     cd2:	bb c0       	rjmp	.+374    	; 0xe4a <_ZN4midi13MidiInterfaceI14HardwareSerialE10thruFilterEh+0x23e>
     cd4:	49 c0       	rjmp	.+146    	; 0xd68 <_ZN4midi13MidiInterfaceI14HardwareSerialE10thruFilterEh+0x15c>
     cd6:	6d 3f       	cpi	r22, 0xFD	; 253
     cd8:	71 05       	cpc	r23, r1
     cda:	44 f4       	brge	.+16     	; 0xcec <_ZN4midi13MidiInterfaceI14HardwareSerialE10thruFilterEh+0xe0>
     cdc:	6a 3f       	cpi	r22, 0xFA	; 250
     cde:	71 05       	cpc	r23, r1
     ce0:	5c f4       	brge	.+22     	; 0xcf8 <_ZN4midi13MidiInterfaceI14HardwareSerialE10thruFilterEh+0xec>
     ce2:	68 3f       	cpi	r22, 0xF8	; 248
     ce4:	71 05       	cpc	r23, r1
     ce6:	09 f0       	breq	.+2      	; 0xcea <_ZN4midi13MidiInterfaceI14HardwareSerialE10thruFilterEh+0xde>
     ce8:	b0 c0       	rjmp	.+352    	; 0xe4a <_ZN4midi13MidiInterfaceI14HardwareSerialE10thruFilterEh+0x23e>
     cea:	06 c0       	rjmp	.+12     	; 0xcf8 <_ZN4midi13MidiInterfaceI14HardwareSerialE10thruFilterEh+0xec>
     cec:	cb 01       	movw	r24, r22
     cee:	8e 5f       	subi	r24, 0xFE	; 254
     cf0:	91 09       	sbc	r25, r1
     cf2:	02 97       	sbiw	r24, 0x02	; 2
     cf4:	08 f0       	brcs	.+2      	; 0xcf8 <_ZN4midi13MidiInterfaceI14HardwareSerialE10thruFilterEh+0xec>
     cf6:	a9 c0       	rjmp	.+338    	; 0xe4a <_ZN4midi13MidiInterfaceI14HardwareSerialE10thruFilterEh+0x23e>
     cf8:	c5 01       	movw	r24, r10
     cfa:	0f 90       	pop	r0
     cfc:	df 91       	pop	r29
     cfe:	cf 91       	pop	r28
     d00:	1f 91       	pop	r17
     d02:	0f 91       	pop	r16
     d04:	ff 90       	pop	r15
     d06:	ef 90       	pop	r14
     d08:	df 90       	pop	r13
     d0a:	cf 90       	pop	r12
     d0c:	bf 90       	pop	r11
     d0e:	af 90       	pop	r10
     d10:	de ce       	rjmp	.-580    	; 0xace <_ZN4midi13MidiInterfaceI14HardwareSerialE12sendRealTimeENS_8MidiTypeE>
     d12:	85 01       	movw	r16, r10
     d14:	02 5f       	subi	r16, 0xF2	; 242
     d16:	1f 4f       	sbci	r17, 0xFF	; 255
     d18:	d5 01       	movw	r26, r10
     d1a:	1d 96       	adiw	r26, 0x0d	; 13
     d1c:	9c 91       	ld	r25, X
     d1e:	1d 97       	sbiw	r26, 0x0d	; 13
     d20:	80 e0       	ldi	r24, 0x00	; 0
     d22:	1c 96       	adiw	r26, 0x0c	; 12
     d24:	2c 91       	ld	r18, X
     d26:	82 2b       	or	r24, r18
     d28:	8f 3f       	cpi	r24, 0xFF	; 255
     d2a:	91 05       	cpc	r25, r1
     d2c:	19 f0       	breq	.+6      	; 0xd34 <_ZN4midi13MidiInterfaceI14HardwareSerialE10thruFilterEh+0x128>
     d2e:	10 f0       	brcs	.+4      	; 0xd34 <_ZN4midi13MidiInterfaceI14HardwareSerialE10thruFilterEh+0x128>
     d30:	8f ef       	ldi	r24, 0xFF	; 255
     d32:	90 e0       	ldi	r25, 0x00	; 0
     d34:	6c 01       	movw	r12, r24
     d36:	c0 0e       	add	r12, r16
     d38:	d1 1e       	adc	r13, r17
     d3a:	75 01       	movw	r14, r10
     d3c:	bc ec       	ldi	r27, 0xCC	; 204
     d3e:	eb 1a       	sub	r14, r27
     d40:	be ef       	ldi	r27, 0xFE	; 254
     d42:	fb 0a       	sbc	r15, r27
     d44:	0d c0       	rjmp	.+26     	; 0xd60 <_ZN4midi13MidiInterfaceI14HardwareSerialE10thruFilterEh+0x154>
     d46:	f7 01       	movw	r30, r14
     d48:	80 81       	ld	r24, Z
     d4a:	91 81       	ldd	r25, Z+1	; 0x01
     d4c:	d8 01       	movw	r26, r16
     d4e:	6d 91       	ld	r22, X+
     d50:	8d 01       	movw	r16, r26
     d52:	dc 01       	movw	r26, r24
     d54:	ed 91       	ld	r30, X+
     d56:	fc 91       	ld	r31, X
     d58:	01 90       	ld	r0, Z+
     d5a:	f0 81       	ld	r31, Z
     d5c:	e0 2d       	mov	r30, r0
     d5e:	09 95       	icall
     d60:	0c 15       	cp	r16, r12
     d62:	1d 05       	cpc	r17, r13
     d64:	81 f7       	brne	.-32     	; 0xd46 <_ZN4midi13MidiInterfaceI14HardwareSerialE10thruFilterEh+0x13a>
     d66:	6d c0       	rjmp	.+218    	; 0xe42 <_ZN4midi13MidiInterfaceI14HardwareSerialE10thruFilterEh+0x236>
     d68:	f5 01       	movw	r30, r10
     d6a:	f4 84       	ldd	r15, Z+12	; 0x0c
     d6c:	85 01       	movw	r16, r10
     d6e:	0c 5c       	subi	r16, 0xCC	; 204
     d70:	1e 4f       	sbci	r17, 0xFE	; 254
     d72:	d8 01       	movw	r26, r16
     d74:	8d 91       	ld	r24, X+
     d76:	9c 91       	ld	r25, X
     d78:	dc 01       	movw	r26, r24
     d7a:	ed 91       	ld	r30, X+
     d7c:	fc 91       	ld	r31, X
     d7e:	01 90       	ld	r0, Z+
     d80:	f0 81       	ld	r31, Z
     d82:	e0 2d       	mov	r30, r0
     d84:	63 ef       	ldi	r22, 0xF3	; 243
     d86:	09 95       	icall
     d88:	6f 2d       	mov	r22, r15
     d8a:	6f 77       	andi	r22, 0x7F	; 127
     d8c:	70 e0       	ldi	r23, 0x00	; 0
     d8e:	f8 01       	movw	r30, r16
     d90:	80 81       	ld	r24, Z
     d92:	91 81       	ldd	r25, Z+1	; 0x01
     d94:	11 da       	rcall	.-3038   	; 0x1b8 <_ZN14HardwareSerial5writeEi>
     d96:	55 c0       	rjmp	.+170    	; 0xe42 <_ZN4midi13MidiInterfaceI14HardwareSerialE10thruFilterEh+0x236>
     d98:	d5 01       	movw	r26, r10
     d9a:	1d 96       	adiw	r26, 0x0d	; 13
     d9c:	0c 91       	ld	r16, X
     d9e:	b0 e8       	ldi	r27, 0x80	; 128
     da0:	0b 9f       	mul	r16, r27
     da2:	80 01       	movw	r16, r0
     da4:	11 24       	eor	r1, r1
     da6:	f5 01       	movw	r30, r10
     da8:	84 85       	ldd	r24, Z+12	; 0x0c
     daa:	08 2b       	or	r16, r24
     dac:	75 01       	movw	r14, r10
     dae:	fc ec       	ldi	r31, 0xCC	; 204
     db0:	ef 1a       	sub	r14, r31
     db2:	fe ef       	ldi	r31, 0xFE	; 254
     db4:	ff 0a       	sbc	r15, r31
     db6:	d7 01       	movw	r26, r14
     db8:	8d 91       	ld	r24, X+
     dba:	9c 91       	ld	r25, X
     dbc:	dc 01       	movw	r26, r24
     dbe:	ed 91       	ld	r30, X+
     dc0:	fc 91       	ld	r31, X
     dc2:	01 90       	ld	r0, Z+
     dc4:	f0 81       	ld	r31, Z
     dc6:	e0 2d       	mov	r30, r0
     dc8:	62 ef       	ldi	r22, 0xF2	; 242
     dca:	09 95       	icall
     dcc:	b8 01       	movw	r22, r16
     dce:	6f 77       	andi	r22, 0x7F	; 127
     dd0:	77 27       	eor	r23, r23
     dd2:	f7 01       	movw	r30, r14
     dd4:	80 81       	ld	r24, Z
     dd6:	91 81       	ldd	r25, Z+1	; 0x01
     dd8:	e8 d9       	rcall	.-3120   	; 0x1aa <_ZN14HardwareSerial5writeEj>
     dda:	b8 01       	movw	r22, r16
     ddc:	66 0f       	add	r22, r22
     dde:	67 2f       	mov	r22, r23
     de0:	66 1f       	adc	r22, r22
     de2:	77 0b       	sbc	r23, r23
     de4:	71 95       	neg	r23
     de6:	6f 77       	andi	r22, 0x7F	; 127
     de8:	77 27       	eor	r23, r23
     dea:	d7 01       	movw	r26, r14
     dec:	8d 91       	ld	r24, X+
     dee:	9c 91       	ld	r25, X
     df0:	dc d9       	rcall	.-3144   	; 0x1aa <_ZN14HardwareSerial5writeEj>
     df2:	27 c0       	rjmp	.+78     	; 0xe42 <_ZN4midi13MidiInterfaceI14HardwareSerialE10thruFilterEh+0x236>
     df4:	f5 01       	movw	r30, r10
     df6:	84 85       	ldd	r24, Z+12	; 0x0c
     df8:	87 70       	andi	r24, 0x07	; 7
     dfa:	f0 e1       	ldi	r31, 0x10	; 16
     dfc:	8f 9f       	mul	r24, r31
     dfe:	c0 01       	movw	r24, r0
     e00:	11 24       	eor	r1, r1
     e02:	d5 01       	movw	r26, r10
     e04:	1d 96       	adiw	r26, 0x0d	; 13
     e06:	2c 91       	ld	r18, X
     e08:	2f 70       	andi	r18, 0x0F	; 15
     e0a:	28 2b       	or	r18, r24
     e0c:	85 01       	movw	r16, r10
     e0e:	0c 5c       	subi	r16, 0xCC	; 204
     e10:	1e 4f       	sbci	r17, 0xFE	; 254
     e12:	f8 01       	movw	r30, r16
     e14:	80 81       	ld	r24, Z
     e16:	91 81       	ldd	r25, Z+1	; 0x01
     e18:	dc 01       	movw	r26, r24
     e1a:	ed 91       	ld	r30, X+
     e1c:	fc 91       	ld	r31, X
     e1e:	01 90       	ld	r0, Z+
     e20:	f0 81       	ld	r31, Z
     e22:	e0 2d       	mov	r30, r0
     e24:	61 ef       	ldi	r22, 0xF1	; 241
     e26:	29 83       	std	Y+1, r18	; 0x01
     e28:	09 95       	icall
     e2a:	f8 01       	movw	r30, r16
     e2c:	80 81       	ld	r24, Z
     e2e:	91 81       	ldd	r25, Z+1	; 0x01
     e30:	dc 01       	movw	r26, r24
     e32:	ed 91       	ld	r30, X+
     e34:	fc 91       	ld	r31, X
     e36:	01 90       	ld	r0, Z+
     e38:	f0 81       	ld	r31, Z
     e3a:	e0 2d       	mov	r30, r0
     e3c:	29 81       	ldd	r18, Y+1	; 0x01
     e3e:	62 2f       	mov	r22, r18
     e40:	09 95       	icall
     e42:	f5 01       	movw	r30, r10
     e44:	ed 5c       	subi	r30, 0xCD	; 205
     e46:	fe 4f       	sbci	r31, 0xFE	; 254
     e48:	10 82       	st	Z, r1
     e4a:	0f 90       	pop	r0
     e4c:	df 91       	pop	r29
     e4e:	cf 91       	pop	r28
     e50:	1f 91       	pop	r17
     e52:	0f 91       	pop	r16
     e54:	ff 90       	pop	r15
     e56:	ef 90       	pop	r14
     e58:	df 90       	pop	r13
     e5a:	cf 90       	pop	r12
     e5c:	bf 90       	pop	r11
     e5e:	af 90       	pop	r10
     e60:	08 95       	ret

00000e62 <loop>:
     e62:	cf 93       	push	r28
     e64:	df 93       	push	r29
     e66:	1f 92       	push	r1
     e68:	cd b7       	in	r28, 0x3d	; 61
     e6a:	de b7       	in	r29, 0x3e	; 62
     e6c:	60 91 83 02 	lds	r22, 0x0283
     e70:	61 31       	cpi	r22, 0x11	; 17
     e72:	b0 f5       	brcc	.+108    	; 0xee0 <loop+0x7e>
     e74:	82 e8       	ldi	r24, 0x82	; 130
     e76:	92 e0       	ldi	r25, 0x02	; 2
     e78:	69 83       	std	Y+1, r22	; 0x01
     e7a:	52 dc       	rcall	.-1884   	; 0x720 <_ZN4midi13MidiInterfaceI14HardwareSerialE5parseEv>
     e7c:	69 81       	ldd	r22, Y+1	; 0x01
     e7e:	88 23       	and	r24, r24
     e80:	79 f1       	breq	.+94     	; 0xee0 <loop+0x7e>
     e82:	80 91 8c 02 	lds	r24, 0x028C
     e86:	90 91 8d 02 	lds	r25, 0x028D
     e8a:	80 39       	cpi	r24, 0x90	; 144
     e8c:	91 05       	cpc	r25, r1
     e8e:	21 f4       	brne	.+8      	; 0xe98 <loop+0x36>
     e90:	80 91 8f 02 	lds	r24, 0x028F
     e94:	88 23       	and	r24, r24
     e96:	a1 f0       	breq	.+40     	; 0xec0 <loop+0x5e>
     e98:	80 91 8c 02 	lds	r24, 0x028C
     e9c:	90 91 8d 02 	lds	r25, 0x028D
     ea0:	00 97       	sbiw	r24, 0x00	; 0
     ea2:	f1 f0       	breq	.+60     	; 0xee0 <loop+0x7e>
     ea4:	80 58       	subi	r24, 0x80	; 128
     ea6:	91 09       	sbc	r25, r1
     ea8:	81 36       	cpi	r24, 0x61	; 97
     eaa:	91 05       	cpc	r25, r1
     eac:	80 f4       	brcc	.+32     	; 0xece <loop+0x6c>
     eae:	80 91 83 02 	lds	r24, 0x0283
     eb2:	90 91 8b 02 	lds	r25, 0x028B
     eb6:	98 17       	cp	r25, r24
     eb8:	51 f0       	breq	.+20     	; 0xece <loop+0x6c>
     eba:	81 11       	cpse	r24, r1
     ebc:	11 c0       	rjmp	.+34     	; 0xee0 <loop+0x7e>
     ebe:	07 c0       	rjmp	.+14     	; 0xece <loop+0x6c>
     ec0:	80 e8       	ldi	r24, 0x80	; 128
     ec2:	90 e0       	ldi	r25, 0x00	; 0
     ec4:	90 93 8d 02 	sts	0x028D, r25
     ec8:	80 93 8c 02 	sts	0x028C, r24
     ecc:	e5 cf       	rjmp	.-54     	; 0xe98 <loop+0x36>
     ece:	82 e8       	ldi	r24, 0x82	; 130
     ed0:	92 e0       	ldi	r25, 0x02	; 2
     ed2:	9c de       	rcall	.-712    	; 0xc0c <_ZN4midi13MidiInterfaceI14HardwareSerialE10thruFilterEh>
     ed4:	82 e8       	ldi	r24, 0x82	; 130
     ed6:	92 e0       	ldi	r25, 0x02	; 2
     ed8:	0f 90       	pop	r0
     eda:	df 91       	pop	r29
     edc:	cf 91       	pop	r28
     ede:	0d cb       	rjmp	.-2534   	; 0x4fa <_ZN4midi13MidiInterfaceI14HardwareSerialE14launchCallbackEv>
     ee0:	0f 90       	pop	r0
     ee2:	df 91       	pop	r29
     ee4:	cf 91       	pop	r28
     ee6:	08 95       	ret

00000ee8 <main>:
     ee8:	9c d3       	rcall	.+1848   	; 0x1622 <init>
     eea:	c0 da       	rcall	.-2688   	; 0x46c <setup>
     eec:	ba df       	rcall	.-140    	; 0xe62 <loop>
     eee:	fe cf       	rjmp	.-4      	; 0xeec <main+0x4>

00000ef0 <_GLOBAL__sub_I_main>:
     ef0:	0d c9       	rjmp	.-3558   	; 0x10c <_Z41__static_initialization_and_destruction_0ii.part.9>

00000ef2 <_ZN11EEPROMClass4readEi>:
     ef2:	cb 01       	movw	r24, r22
     ef4:	6b c4       	rjmp	.+2262   	; 0x17cc <__eerd_byte_m328p>

00000ef6 <_ZN14MIDInoteBuffer12setPolyphonyEh>:
     ef6:	fc 01       	movw	r30, r24
     ef8:	60 83       	st	Z, r22
     efa:	08 95       	ret

00000efc <_ZN14MIDInoteBuffer24getNumberOfNotesInBufferEv>:
     efc:	fc 01       	movw	r30, r24
     efe:	81 81       	ldd	r24, Z+1	; 0x01
     f00:	08 95       	ret

00000f02 <_ZN14MIDInoteBuffer17getNoteFromBufferEh>:
     f02:	86 0f       	add	r24, r22
     f04:	91 1d       	adc	r25, r1
     f06:	fc 01       	movw	r30, r24
     f08:	82 81       	ldd	r24, Z+2	; 0x02
     f0a:	08 95       	ret

00000f0c <_ZN14MIDInoteBuffer12clearBuffersEv>:
     f0c:	ac 01       	movw	r20, r24
     f0e:	20 e0       	ldi	r18, 0x00	; 0
     f10:	30 e0       	ldi	r19, 0x00	; 0
     f12:	fc 01       	movw	r30, r24
     f14:	e2 0f       	add	r30, r18
     f16:	f3 1f       	adc	r31, r19
     f18:	12 82       	std	Z+2, r1	; 0x02
     f1a:	fa 01       	movw	r30, r20
     f1c:	ee 5b       	subi	r30, 0xBE	; 190
     f1e:	ff 4f       	sbci	r31, 0xFF	; 255
     f20:	10 82       	st	Z, r1
     f22:	fa 01       	movw	r30, r20
     f24:	ee 57       	subi	r30, 0x7E	; 126
     f26:	ff 4f       	sbci	r31, 0xFF	; 255
     f28:	10 82       	st	Z, r1
     f2a:	2f 5f       	subi	r18, 0xFF	; 255
     f2c:	3f 4f       	sbci	r19, 0xFF	; 255
     f2e:	4f 5f       	subi	r20, 0xFF	; 255
     f30:	5f 4f       	sbci	r21, 0xFF	; 255
     f32:	20 34       	cpi	r18, 0x40	; 64
     f34:	31 05       	cpc	r19, r1
     f36:	69 f7       	brne	.-38     	; 0xf12 <_ZN14MIDInoteBuffer12clearBuffersEv+0x6>
     f38:	fc 01       	movw	r30, r24
     f3a:	11 82       	std	Z+1, r1	; 0x01
     f3c:	08 95       	ret

00000f3e <_ZN14MIDInoteBuffer4initEv>:
     f3e:	e6 cf       	rjmp	.-52     	; 0xf0c <_ZN14MIDInoteBuffer12clearBuffersEv>

00000f40 <_ZN14MIDInoteBuffer11shiftBufferEhh>:
     f40:	1f 93       	push	r17
     f42:	cf 93       	push	r28
     f44:	df 93       	push	r29
     f46:	61 11       	cpse	r22, r1
     f48:	1f c0       	rjmp	.+62     	; 0xf88 <_ZN14MIDInoteBuffer11shiftBufferEhh+0x48>
     f4a:	dc 01       	movw	r26, r24
     f4c:	11 96       	adiw	r26, 0x01	; 1
     f4e:	6c 91       	ld	r22, X
     f50:	70 e0       	ldi	r23, 0x00	; 0
     f52:	20 e0       	ldi	r18, 0x00	; 0
     f54:	30 e0       	ldi	r19, 0x00	; 0
     f56:	50 e0       	ldi	r21, 0x00	; 0
     f58:	84 0f       	add	r24, r20
     f5a:	95 1f       	adc	r25, r21
     f5c:	0e c0       	rjmp	.+28     	; 0xf7a <_ZN14MIDInoteBuffer11shiftBufferEhh+0x3a>
     f5e:	fc 01       	movw	r30, r24
     f60:	e2 0f       	add	r30, r18
     f62:	f3 1f       	adc	r31, r19
     f64:	a3 81       	ldd	r26, Z+3	; 0x03
     f66:	a2 83       	std	Z+2, r26	; 0x02
     f68:	df 01       	movw	r26, r30
     f6a:	ad 5b       	subi	r26, 0xBD	; 189
     f6c:	bf 4f       	sbci	r27, 0xFF	; 255
     f6e:	ac 91       	ld	r26, X
     f70:	ee 5b       	subi	r30, 0xBE	; 190
     f72:	ff 4f       	sbci	r31, 0xFF	; 255
     f74:	a0 83       	st	Z, r26
     f76:	2f 5f       	subi	r18, 0xFF	; 255
     f78:	3f 4f       	sbci	r19, 0xFF	; 255
     f7a:	f9 01       	movw	r30, r18
     f7c:	e4 0f       	add	r30, r20
     f7e:	f5 1f       	adc	r31, r21
     f80:	e6 17       	cp	r30, r22
     f82:	f7 07       	cpc	r31, r23
     f84:	64 f3       	brlt	.-40     	; 0xf5e <_ZN14MIDInoteBuffer11shiftBufferEhh+0x1e>
     f86:	28 c0       	rjmp	.+80     	; 0xfd8 <_ZN14MIDInoteBuffer11shiftBufferEhh+0x98>
     f88:	61 30       	cpi	r22, 0x01	; 1
     f8a:	31 f5       	brne	.+76     	; 0xfd8 <_ZN14MIDInoteBuffer11shiftBufferEhh+0x98>
     f8c:	dc 01       	movw	r26, r24
     f8e:	11 96       	adiw	r26, 0x01	; 1
     f90:	ec 91       	ld	r30, X
     f92:	20 e0       	ldi	r18, 0x00	; 0
     f94:	30 e0       	ldi	r19, 0x00	; 0
     f96:	60 e0       	ldi	r22, 0x00	; 0
     f98:	70 e0       	ldi	r23, 0x00	; 0
     f9a:	f0 e0       	ldi	r31, 0x00	; 0
     f9c:	50 e0       	ldi	r21, 0x00	; 0
     f9e:	8e 0f       	add	r24, r30
     fa0:	9f 1f       	adc	r25, r31
     fa2:	12 c0       	rjmp	.+36     	; 0xfc8 <_ZN14MIDInoteBuffer11shiftBufferEhh+0x88>
     fa4:	ec 01       	movw	r28, r24
     fa6:	c6 0f       	add	r28, r22
     fa8:	d7 1f       	adc	r29, r23
     faa:	1a 81       	ldd	r17, Y+2	; 0x02
     fac:	dc 01       	movw	r26, r24
     fae:	a2 0f       	add	r26, r18
     fb0:	b3 1f       	adc	r27, r19
     fb2:	12 96       	adiw	r26, 0x02	; 2
     fb4:	1c 93       	st	X, r17
     fb6:	12 97       	sbiw	r26, 0x02	; 2
     fb8:	ce 5b       	subi	r28, 0xBE	; 190
     fba:	df 4f       	sbci	r29, 0xFF	; 255
     fbc:	c8 81       	ld	r28, Y
     fbe:	ae 5b       	subi	r26, 0xBE	; 190
     fc0:	bf 4f       	sbci	r27, 0xFF	; 255
     fc2:	cc 93       	st	X, r28
     fc4:	21 50       	subi	r18, 0x01	; 1
     fc6:	31 09       	sbc	r19, r1
     fc8:	61 50       	subi	r22, 0x01	; 1
     fca:	71 09       	sbc	r23, r1
     fcc:	d9 01       	movw	r26, r18
     fce:	ae 0f       	add	r26, r30
     fd0:	bf 1f       	adc	r27, r31
     fd2:	4a 17       	cp	r20, r26
     fd4:	5b 07       	cpc	r21, r27
     fd6:	34 f3       	brlt	.-52     	; 0xfa4 <_ZN14MIDInoteBuffer11shiftBufferEhh+0x64>
     fd8:	df 91       	pop	r29
     fda:	cf 91       	pop	r28
     fdc:	1f 91       	pop	r17
     fde:	08 95       	ret

00000fe0 <_ZN14MIDInoteBuffer16findNoteInBufferEh>:
     fe0:	fc 01       	movw	r30, r24
     fe2:	41 81       	ldd	r20, Z+1	; 0x01
     fe4:	50 e0       	ldi	r21, 0x00	; 0
     fe6:	20 e0       	ldi	r18, 0x00	; 0
     fe8:	30 e0       	ldi	r19, 0x00	; 0
     fea:	0a c0       	rjmp	.+20     	; 0x1000 <_ZN14MIDInoteBuffer16findNoteInBufferEh+0x20>
     fec:	fc 01       	movw	r30, r24
     fee:	e2 0f       	add	r30, r18
     ff0:	f3 1f       	adc	r31, r19
     ff2:	72 81       	ldd	r23, Z+2	; 0x02
     ff4:	76 13       	cpse	r23, r22
     ff6:	02 c0       	rjmp	.+4      	; 0xffc <_ZN14MIDInoteBuffer16findNoteInBufferEh+0x1c>
     ff8:	82 2f       	mov	r24, r18
     ffa:	08 95       	ret
     ffc:	2f 5f       	subi	r18, 0xFF	; 255
     ffe:	3f 4f       	sbci	r19, 0xFF	; 255
    1000:	24 17       	cp	r18, r20
    1002:	35 07       	cpc	r19, r21
    1004:	9c f3       	brlt	.-26     	; 0xfec <_ZN14MIDInoteBuffer16findNoteInBufferEh+0xc>
    1006:	8f ef       	ldi	r24, 0xFF	; 255
    1008:	08 95       	ret

0000100a <_ZN14MIDInoteBuffer20removeNoteFromBufferEh>:
    100a:	cf 93       	push	r28
    100c:	df 93       	push	r29
    100e:	ec 01       	movw	r28, r24
    1010:	89 81       	ldd	r24, Y+1	; 0x01
    1012:	88 23       	and	r24, r24
    1014:	59 f0       	breq	.+22     	; 0x102c <_ZN14MIDInoteBuffer20removeNoteFromBufferEh+0x22>
    1016:	ce 01       	movw	r24, r28
    1018:	e3 df       	rcall	.-58     	; 0xfe0 <_ZN14MIDInoteBuffer16findNoteInBufferEh>
    101a:	8f 3f       	cpi	r24, 0xFF	; 255
    101c:	39 f0       	breq	.+14     	; 0x102c <_ZN14MIDInoteBuffer20removeNoteFromBufferEh+0x22>
    101e:	48 2f       	mov	r20, r24
    1020:	60 e0       	ldi	r22, 0x00	; 0
    1022:	ce 01       	movw	r24, r28
    1024:	8d df       	rcall	.-230    	; 0xf40 <_ZN14MIDInoteBuffer11shiftBufferEhh>
    1026:	89 81       	ldd	r24, Y+1	; 0x01
    1028:	81 50       	subi	r24, 0x01	; 1
    102a:	89 83       	std	Y+1, r24	; 0x01
    102c:	81 e0       	ldi	r24, 0x01	; 1
    102e:	29 81       	ldd	r18, Y+1	; 0x01
    1030:	98 81       	ld	r25, Y
    1032:	29 17       	cp	r18, r25
    1034:	08 f4       	brcc	.+2      	; 0x1038 <_ZN14MIDInoteBuffer20removeNoteFromBufferEh+0x2e>
    1036:	80 e0       	ldi	r24, 0x00	; 0
    1038:	df 91       	pop	r29
    103a:	cf 91       	pop	r28
    103c:	08 95       	ret

0000103e <_ZN14MIDInoteBuffer15addNoteToBufferEhh>:
    103e:	8f 92       	push	r8
    1040:	9f 92       	push	r9
    1042:	af 92       	push	r10
    1044:	bf 92       	push	r11
    1046:	df 92       	push	r13
    1048:	ef 92       	push	r14
    104a:	ff 92       	push	r15
    104c:	0f 93       	push	r16
    104e:	1f 93       	push	r17
    1050:	cf 93       	push	r28
    1052:	df 93       	push	r29
    1054:	1f 92       	push	r1
    1056:	cd b7       	in	r28, 0x3d	; 61
    1058:	de b7       	in	r29, 0x3e	; 62
    105a:	5c 01       	movw	r10, r24
    105c:	d6 2e       	mov	r13, r22
    105e:	49 83       	std	Y+1, r20	; 0x01
    1060:	d4 df       	rcall	.-88     	; 0x100a <_ZN14MIDInoteBuffer20removeNoteFromBufferEh>
    1062:	f5 01       	movw	r30, r10
    1064:	51 81       	ldd	r21, Z+1	; 0x01
    1066:	80 e0       	ldi	r24, 0x00	; 0
    1068:	90 e0       	ldi	r25, 0x00	; 0
    106a:	20 e0       	ldi	r18, 0x00	; 0
    106c:	30 e0       	ldi	r19, 0x00	; 0
    106e:	85 2e       	mov	r8, r21
    1070:	91 2c       	mov	r9, r1
    1072:	d5 01       	movw	r26, r10
    1074:	a8 0d       	add	r26, r8
    1076:	b9 1d       	adc	r27, r9
    1078:	49 81       	ldd	r20, Y+1	; 0x01
    107a:	14 c0       	rjmp	.+40     	; 0x10a4 <_ZN14MIDInoteBuffer15addNoteToBufferEhh+0x66>
    107c:	7d 01       	movw	r14, r26
    107e:	e2 0e       	add	r14, r18
    1080:	f3 1e       	adc	r15, r19
    1082:	f7 01       	movw	r30, r14
    1084:	62 81       	ldd	r22, Z+2	; 0x02
    1086:	8d 01       	movw	r16, r26
    1088:	08 0f       	add	r16, r24
    108a:	19 1f       	adc	r17, r25
    108c:	f8 01       	movw	r30, r16
    108e:	62 83       	std	Z+2, r22	; 0x02
    1090:	f2 e4       	ldi	r31, 0x42	; 66
    1092:	ef 0e       	add	r14, r31
    1094:	f1 1c       	adc	r15, r1
    1096:	f7 01       	movw	r30, r14
    1098:	60 81       	ld	r22, Z
    109a:	0e 5b       	subi	r16, 0xBE	; 190
    109c:	1f 4f       	sbci	r17, 0xFF	; 255
    109e:	f8 01       	movw	r30, r16
    10a0:	60 83       	st	Z, r22
    10a2:	01 97       	sbiw	r24, 0x01	; 1
    10a4:	21 50       	subi	r18, 0x01	; 1
    10a6:	31 09       	sbc	r19, r1
    10a8:	8c 01       	movw	r16, r24
    10aa:	08 0d       	add	r16, r8
    10ac:	19 1d       	adc	r17, r9
    10ae:	01 2b       	or	r16, r17
    10b0:	29 f7       	brne	.-54     	; 0x107c <_ZN14MIDInoteBuffer15addNoteToBufferEhh+0x3e>
    10b2:	50 34       	cpi	r21, 0x40	; 64
    10b4:	18 f4       	brcc	.+6      	; 0x10bc <_ZN14MIDInoteBuffer15addNoteToBufferEhh+0x7e>
    10b6:	5f 5f       	subi	r21, 0xFF	; 255
    10b8:	f5 01       	movw	r30, r10
    10ba:	51 83       	std	Z+1, r21	; 0x01
    10bc:	f5 01       	movw	r30, r10
    10be:	d2 82       	std	Z+2, r13	; 0x02
    10c0:	ee 5b       	subi	r30, 0xBE	; 190
    10c2:	ff 4f       	sbci	r31, 0xFF	; 255
    10c4:	40 83       	st	Z, r20
    10c6:	0f 90       	pop	r0
    10c8:	df 91       	pop	r29
    10ca:	cf 91       	pop	r28
    10cc:	1f 91       	pop	r17
    10ce:	0f 91       	pop	r16
    10d0:	ff 90       	pop	r15
    10d2:	ef 90       	pop	r14
    10d4:	df 90       	pop	r13
    10d6:	bf 90       	pop	r11
    10d8:	af 90       	pop	r10
    10da:	9f 90       	pop	r9
    10dc:	8f 90       	pop	r8
    10de:	08 95       	ret

000010e0 <_ZN14HardwareSerial9availableEv>:
    10e0:	fc 01       	movw	r30, r24
    10e2:	84 85       	ldd	r24, Z+12	; 0x0c
    10e4:	95 85       	ldd	r25, Z+13	; 0x0d
    10e6:	fc 01       	movw	r30, r24
    10e8:	e0 5c       	subi	r30, 0xC0	; 192
    10ea:	ff 4f       	sbci	r31, 0xFF	; 255
    10ec:	20 81       	ld	r18, Z
    10ee:	31 81       	ldd	r19, Z+1	; 0x01
    10f0:	fc 01       	movw	r30, r24
    10f2:	ee 5b       	subi	r30, 0xBE	; 190
    10f4:	ff 4f       	sbci	r31, 0xFF	; 255
    10f6:	80 81       	ld	r24, Z
    10f8:	91 81       	ldd	r25, Z+1	; 0x01
    10fa:	28 1b       	sub	r18, r24
    10fc:	39 0b       	sbc	r19, r25
    10fe:	2f 73       	andi	r18, 0x3F	; 63
    1100:	33 27       	eor	r19, r19
    1102:	c9 01       	movw	r24, r18
    1104:	08 95       	ret

00001106 <_ZN14HardwareSerial4peekEv>:
    1106:	fc 01       	movw	r30, r24
    1108:	84 85       	ldd	r24, Z+12	; 0x0c
    110a:	95 85       	ldd	r25, Z+13	; 0x0d
    110c:	fc 01       	movw	r30, r24
    110e:	e0 5c       	subi	r30, 0xC0	; 192
    1110:	ff 4f       	sbci	r31, 0xFF	; 255
    1112:	40 81       	ld	r20, Z
    1114:	51 81       	ldd	r21, Z+1	; 0x01
    1116:	fc 01       	movw	r30, r24
    1118:	ee 5b       	subi	r30, 0xBE	; 190
    111a:	ff 4f       	sbci	r31, 0xFF	; 255
    111c:	20 81       	ld	r18, Z
    111e:	31 81       	ldd	r19, Z+1	; 0x01
    1120:	42 17       	cp	r20, r18
    1122:	53 07       	cpc	r21, r19
    1124:	41 f0       	breq	.+16     	; 0x1136 <_ZN14HardwareSerial4peekEv+0x30>
    1126:	01 90       	ld	r0, Z+
    1128:	f0 81       	ld	r31, Z
    112a:	e0 2d       	mov	r30, r0
    112c:	e8 0f       	add	r30, r24
    112e:	f9 1f       	adc	r31, r25
    1130:	20 81       	ld	r18, Z
    1132:	30 e0       	ldi	r19, 0x00	; 0
    1134:	02 c0       	rjmp	.+4      	; 0x113a <_ZN14HardwareSerial4peekEv+0x34>
    1136:	2f ef       	ldi	r18, 0xFF	; 255
    1138:	3f ef       	ldi	r19, 0xFF	; 255
    113a:	c9 01       	movw	r24, r18
    113c:	08 95       	ret

0000113e <_ZN14HardwareSerial4readEv>:
    113e:	fc 01       	movw	r30, r24
    1140:	84 85       	ldd	r24, Z+12	; 0x0c
    1142:	95 85       	ldd	r25, Z+13	; 0x0d
    1144:	fc 01       	movw	r30, r24
    1146:	e0 5c       	subi	r30, 0xC0	; 192
    1148:	ff 4f       	sbci	r31, 0xFF	; 255
    114a:	40 81       	ld	r20, Z
    114c:	51 81       	ldd	r21, Z+1	; 0x01
    114e:	fc 01       	movw	r30, r24
    1150:	ee 5b       	subi	r30, 0xBE	; 190
    1152:	ff 4f       	sbci	r31, 0xFF	; 255
    1154:	20 81       	ld	r18, Z
    1156:	31 81       	ldd	r19, Z+1	; 0x01
    1158:	42 17       	cp	r20, r18
    115a:	53 07       	cpc	r21, r19
    115c:	81 f0       	breq	.+32     	; 0x117e <_ZN14HardwareSerial4readEv+0x40>
    115e:	a0 81       	ld	r26, Z
    1160:	b1 81       	ldd	r27, Z+1	; 0x01
    1162:	a8 0f       	add	r26, r24
    1164:	b9 1f       	adc	r27, r25
    1166:	8c 91       	ld	r24, X
    1168:	20 81       	ld	r18, Z
    116a:	31 81       	ldd	r19, Z+1	; 0x01
    116c:	2f 5f       	subi	r18, 0xFF	; 255
    116e:	3f 4f       	sbci	r19, 0xFF	; 255
    1170:	2f 73       	andi	r18, 0x3F	; 63
    1172:	33 27       	eor	r19, r19
    1174:	31 83       	std	Z+1, r19	; 0x01
    1176:	20 83       	st	Z, r18
    1178:	28 2f       	mov	r18, r24
    117a:	30 e0       	ldi	r19, 0x00	; 0
    117c:	02 c0       	rjmp	.+4      	; 0x1182 <_ZN14HardwareSerial4readEv+0x44>
    117e:	2f ef       	ldi	r18, 0xFF	; 255
    1180:	3f ef       	ldi	r19, 0xFF	; 255
    1182:	c9 01       	movw	r24, r18
    1184:	08 95       	ret

00001186 <_ZN14HardwareSerial5flushEv>:
    1186:	fc 01       	movw	r30, r24
    1188:	81 a1       	ldd	r24, Z+33	; 0x21
    118a:	88 23       	and	r24, r24
    118c:	29 f0       	breq	.+10     	; 0x1198 <_ZN14HardwareSerial5flushEv+0x12>
    118e:	a4 89       	ldd	r26, Z+20	; 0x14
    1190:	b5 89       	ldd	r27, Z+21	; 0x15
    1192:	8c 91       	ld	r24, X
    1194:	86 ff       	sbrs	r24, 6
    1196:	fb cf       	rjmp	.-10     	; 0x118e <_ZN14HardwareSerial5flushEv+0x8>
    1198:	11 a2       	std	Z+33, r1	; 0x21
    119a:	08 95       	ret

0000119c <_ZN14HardwareSerial5writeEh>:
    119c:	cf 93       	push	r28
    119e:	df 93       	push	r29
    11a0:	fc 01       	movw	r30, r24
    11a2:	26 85       	ldd	r18, Z+14	; 0x0e
    11a4:	37 85       	ldd	r19, Z+15	; 0x0f
    11a6:	d9 01       	movw	r26, r18
    11a8:	a0 5c       	subi	r26, 0xC0	; 192
    11aa:	bf 4f       	sbci	r27, 0xFF	; 255
    11ac:	8d 91       	ld	r24, X+
    11ae:	9c 91       	ld	r25, X
    11b0:	11 97       	sbiw	r26, 0x01	; 1
    11b2:	01 96       	adiw	r24, 0x01	; 1
    11b4:	8f 73       	andi	r24, 0x3F	; 63
    11b6:	99 27       	eor	r25, r25
    11b8:	e9 01       	movw	r28, r18
    11ba:	ce 5b       	subi	r28, 0xBE	; 190
    11bc:	df 4f       	sbci	r29, 0xFF	; 255
    11be:	48 81       	ld	r20, Y
    11c0:	59 81       	ldd	r21, Y+1	; 0x01
    11c2:	84 17       	cp	r24, r20
    11c4:	95 07       	cpc	r25, r21
    11c6:	d9 f3       	breq	.-10     	; 0x11be <_ZN14HardwareSerial5writeEh+0x22>
    11c8:	0d 90       	ld	r0, X+
    11ca:	bc 91       	ld	r27, X
    11cc:	a0 2d       	mov	r26, r0
    11ce:	a2 0f       	add	r26, r18
    11d0:	b3 1f       	adc	r27, r19
    11d2:	6c 93       	st	X, r22
    11d4:	a6 85       	ldd	r26, Z+14	; 0x0e
    11d6:	b7 85       	ldd	r27, Z+15	; 0x0f
    11d8:	a0 5c       	subi	r26, 0xC0	; 192
    11da:	bf 4f       	sbci	r27, 0xFF	; 255
    11dc:	11 96       	adiw	r26, 0x01	; 1
    11de:	9c 93       	st	X, r25
    11e0:	8e 93       	st	-X, r24
    11e2:	a6 89       	ldd	r26, Z+22	; 0x16
    11e4:	b7 89       	ldd	r27, Z+23	; 0x17
    11e6:	2c 91       	ld	r18, X
    11e8:	81 e0       	ldi	r24, 0x01	; 1
    11ea:	90 e0       	ldi	r25, 0x00	; 0
    11ec:	07 8c       	ldd	r0, Z+31	; 0x1f
    11ee:	02 c0       	rjmp	.+4      	; 0x11f4 <_ZN14HardwareSerial5writeEh+0x58>
    11f0:	88 0f       	add	r24, r24
    11f2:	99 1f       	adc	r25, r25
    11f4:	0a 94       	dec	r0
    11f6:	e2 f7       	brpl	.-8      	; 0x11f0 <_ZN14HardwareSerial5writeEh+0x54>
    11f8:	28 2b       	or	r18, r24
    11fa:	2c 93       	st	X, r18
    11fc:	81 e0       	ldi	r24, 0x01	; 1
    11fe:	81 a3       	std	Z+33, r24	; 0x21
    1200:	04 88       	ldd	r0, Z+20	; 0x14
    1202:	f5 89       	ldd	r31, Z+21	; 0x15
    1204:	e0 2d       	mov	r30, r0
    1206:	80 81       	ld	r24, Z
    1208:	80 64       	ori	r24, 0x40	; 64
    120a:	80 83       	st	Z, r24
    120c:	81 e0       	ldi	r24, 0x01	; 1
    120e:	90 e0       	ldi	r25, 0x00	; 0
    1210:	df 91       	pop	r29
    1212:	cf 91       	pop	r28
    1214:	08 95       	ret

00001216 <__vector_18>:
    1216:	1f 92       	push	r1
    1218:	0f 92       	push	r0
    121a:	0f b6       	in	r0, 0x3f	; 63
    121c:	0f 92       	push	r0
    121e:	11 24       	eor	r1, r1
    1220:	2f 93       	push	r18
    1222:	3f 93       	push	r19
    1224:	4f 93       	push	r20
    1226:	8f 93       	push	r24
    1228:	9f 93       	push	r25
    122a:	ef 93       	push	r30
    122c:	ff 93       	push	r31
    122e:	80 91 c0 00 	lds	r24, 0x00C0
    1232:	82 fd       	sbrc	r24, 2
    1234:	1c c0       	rjmp	.+56     	; 0x126e <__vector_18+0x58>
    1236:	40 91 c6 00 	lds	r20, 0x00C6
    123a:	80 91 5f 04 	lds	r24, 0x045F
    123e:	90 91 60 04 	lds	r25, 0x0460
    1242:	01 96       	adiw	r24, 0x01	; 1
    1244:	8f 73       	andi	r24, 0x3F	; 63
    1246:	99 27       	eor	r25, r25
    1248:	20 91 61 04 	lds	r18, 0x0461
    124c:	30 91 62 04 	lds	r19, 0x0462
    1250:	82 17       	cp	r24, r18
    1252:	93 07       	cpc	r25, r19
    1254:	71 f0       	breq	.+28     	; 0x1272 <__vector_18+0x5c>
    1256:	e0 91 5f 04 	lds	r30, 0x045F
    125a:	f0 91 60 04 	lds	r31, 0x0460
    125e:	e1 5e       	subi	r30, 0xE1	; 225
    1260:	fb 4f       	sbci	r31, 0xFB	; 251
    1262:	40 83       	st	Z, r20
    1264:	90 93 60 04 	sts	0x0460, r25
    1268:	80 93 5f 04 	sts	0x045F, r24
    126c:	02 c0       	rjmp	.+4      	; 0x1272 <__vector_18+0x5c>
    126e:	80 91 c6 00 	lds	r24, 0x00C6
    1272:	ff 91       	pop	r31
    1274:	ef 91       	pop	r30
    1276:	9f 91       	pop	r25
    1278:	8f 91       	pop	r24
    127a:	4f 91       	pop	r20
    127c:	3f 91       	pop	r19
    127e:	2f 91       	pop	r18
    1280:	0f 90       	pop	r0
    1282:	0f be       	out	0x3f, r0	; 63
    1284:	0f 90       	pop	r0
    1286:	1f 90       	pop	r1
    1288:	18 95       	reti

0000128a <__vector_19>:
    128a:	1f 92       	push	r1
    128c:	0f 92       	push	r0
    128e:	0f b6       	in	r0, 0x3f	; 63
    1290:	0f 92       	push	r0
    1292:	11 24       	eor	r1, r1
    1294:	2f 93       	push	r18
    1296:	3f 93       	push	r19
    1298:	8f 93       	push	r24
    129a:	9f 93       	push	r25
    129c:	ef 93       	push	r30
    129e:	ff 93       	push	r31
    12a0:	20 91 1b 04 	lds	r18, 0x041B
    12a4:	30 91 1c 04 	lds	r19, 0x041C
    12a8:	80 91 1d 04 	lds	r24, 0x041D
    12ac:	90 91 1e 04 	lds	r25, 0x041E
    12b0:	28 17       	cp	r18, r24
    12b2:	39 07       	cpc	r19, r25
    12b4:	31 f4       	brne	.+12     	; 0x12c2 <__vector_19+0x38>
    12b6:	80 91 c1 00 	lds	r24, 0x00C1
    12ba:	8f 7d       	andi	r24, 0xDF	; 223
    12bc:	80 93 c1 00 	sts	0x00C1, r24
    12c0:	14 c0       	rjmp	.+40     	; 0x12ea <__vector_19+0x60>
    12c2:	e0 91 1d 04 	lds	r30, 0x041D
    12c6:	f0 91 1e 04 	lds	r31, 0x041E
    12ca:	e5 52       	subi	r30, 0x25	; 37
    12cc:	fc 4f       	sbci	r31, 0xFC	; 252
    12ce:	20 81       	ld	r18, Z
    12d0:	80 91 1d 04 	lds	r24, 0x041D
    12d4:	90 91 1e 04 	lds	r25, 0x041E
    12d8:	01 96       	adiw	r24, 0x01	; 1
    12da:	8f 73       	andi	r24, 0x3F	; 63
    12dc:	99 27       	eor	r25, r25
    12de:	90 93 1e 04 	sts	0x041E, r25
    12e2:	80 93 1d 04 	sts	0x041D, r24
    12e6:	20 93 c6 00 	sts	0x00C6, r18
    12ea:	ff 91       	pop	r31
    12ec:	ef 91       	pop	r30
    12ee:	9f 91       	pop	r25
    12f0:	8f 91       	pop	r24
    12f2:	3f 91       	pop	r19
    12f4:	2f 91       	pop	r18
    12f6:	0f 90       	pop	r0
    12f8:	0f be       	out	0x3f, r0	; 63
    12fa:	0f 90       	pop	r0
    12fc:	1f 90       	pop	r1
    12fe:	18 95       	reti

00001300 <_ZN14HardwareSerial5beginEm>:
    1300:	cf 92       	push	r12
    1302:	df 92       	push	r13
    1304:	ef 92       	push	r14
    1306:	ff 92       	push	r15
    1308:	cf 93       	push	r28
    130a:	df 93       	push	r29
    130c:	ec 01       	movw	r28, r24
    130e:	6a 01       	movw	r12, r20
    1310:	7b 01       	movw	r14, r22
    1312:	41 15       	cp	r20, r1
    1314:	81 ee       	ldi	r24, 0xE1	; 225
    1316:	58 07       	cpc	r21, r24
    1318:	61 05       	cpc	r22, r1
    131a:	71 05       	cpc	r23, r1
    131c:	f1 f0       	breq	.+60     	; 0x135a <_ZN14HardwareSerial5beginEm+0x5a>
    131e:	ec 89       	ldd	r30, Y+20	; 0x14
    1320:	fd 89       	ldd	r31, Y+21	; 0x15
    1322:	81 e0       	ldi	r24, 0x01	; 1
    1324:	90 e0       	ldi	r25, 0x00	; 0
    1326:	08 a0       	ldd	r0, Y+32	; 0x20
    1328:	02 c0       	rjmp	.+4      	; 0x132e <_ZN14HardwareSerial5beginEm+0x2e>
    132a:	88 0f       	add	r24, r24
    132c:	99 1f       	adc	r25, r25
    132e:	0a 94       	dec	r0
    1330:	e2 f7       	brpl	.-8      	; 0x132a <_ZN14HardwareSerial5beginEm+0x2a>
    1332:	80 83       	st	Z, r24
    1334:	60 e0       	ldi	r22, 0x00	; 0
    1336:	79 e0       	ldi	r23, 0x09	; 9
    1338:	8d e3       	ldi	r24, 0x3D	; 61
    133a:	90 e0       	ldi	r25, 0x00	; 0
    133c:	a7 01       	movw	r20, r14
    133e:	96 01       	movw	r18, r12
    1340:	5c d2       	rcall	.+1208   	; 0x17fa <__udivmodsi4>
    1342:	21 50       	subi	r18, 0x01	; 1
    1344:	31 09       	sbc	r19, r1
    1346:	41 09       	sbc	r20, r1
    1348:	51 09       	sbc	r21, r1
    134a:	56 95       	lsr	r21
    134c:	47 95       	ror	r20
    134e:	37 95       	ror	r19
    1350:	27 95       	ror	r18
    1352:	21 15       	cp	r18, r1
    1354:	80 e1       	ldi	r24, 0x10	; 16
    1356:	38 07       	cpc	r19, r24
    1358:	90 f0       	brcs	.+36     	; 0x137e <_ZN14HardwareSerial5beginEm+0x7e>
    135a:	ec 89       	ldd	r30, Y+20	; 0x14
    135c:	fd 89       	ldd	r31, Y+21	; 0x15
    135e:	10 82       	st	Z, r1
    1360:	60 e8       	ldi	r22, 0x80	; 128
    1362:	74 e8       	ldi	r23, 0x84	; 132
    1364:	8e e1       	ldi	r24, 0x1E	; 30
    1366:	90 e0       	ldi	r25, 0x00	; 0
    1368:	a7 01       	movw	r20, r14
    136a:	96 01       	movw	r18, r12
    136c:	46 d2       	rcall	.+1164   	; 0x17fa <__udivmodsi4>
    136e:	21 50       	subi	r18, 0x01	; 1
    1370:	31 09       	sbc	r19, r1
    1372:	41 09       	sbc	r20, r1
    1374:	51 09       	sbc	r21, r1
    1376:	56 95       	lsr	r21
    1378:	47 95       	ror	r20
    137a:	37 95       	ror	r19
    137c:	27 95       	ror	r18
    137e:	e8 89       	ldd	r30, Y+16	; 0x10
    1380:	f9 89       	ldd	r31, Y+17	; 0x11
    1382:	30 83       	st	Z, r19
    1384:	ea 89       	ldd	r30, Y+18	; 0x12
    1386:	fb 89       	ldd	r31, Y+19	; 0x13
    1388:	20 83       	st	Z, r18
    138a:	19 a2       	std	Y+33, r1	; 0x21
    138c:	ee 89       	ldd	r30, Y+22	; 0x16
    138e:	ff 89       	ldd	r31, Y+23	; 0x17
    1390:	40 81       	ld	r20, Z
    1392:	81 e0       	ldi	r24, 0x01	; 1
    1394:	90 e0       	ldi	r25, 0x00	; 0
    1396:	9c 01       	movw	r18, r24
    1398:	0c 8c       	ldd	r0, Y+28	; 0x1c
    139a:	02 c0       	rjmp	.+4      	; 0x13a0 <_ZN14HardwareSerial5beginEm+0xa0>
    139c:	22 0f       	add	r18, r18
    139e:	33 1f       	adc	r19, r19
    13a0:	0a 94       	dec	r0
    13a2:	e2 f7       	brpl	.-8      	; 0x139c <_ZN14HardwareSerial5beginEm+0x9c>
    13a4:	42 2b       	or	r20, r18
    13a6:	40 83       	st	Z, r20
    13a8:	ee 89       	ldd	r30, Y+22	; 0x16
    13aa:	ff 89       	ldd	r31, Y+23	; 0x17
    13ac:	40 81       	ld	r20, Z
    13ae:	9c 01       	movw	r18, r24
    13b0:	0d 8c       	ldd	r0, Y+29	; 0x1d
    13b2:	02 c0       	rjmp	.+4      	; 0x13b8 <_ZN14HardwareSerial5beginEm+0xb8>
    13b4:	22 0f       	add	r18, r18
    13b6:	33 1f       	adc	r19, r19
    13b8:	0a 94       	dec	r0
    13ba:	e2 f7       	brpl	.-8      	; 0x13b4 <_ZN14HardwareSerial5beginEm+0xb4>
    13bc:	42 2b       	or	r20, r18
    13be:	40 83       	st	Z, r20
    13c0:	ee 89       	ldd	r30, Y+22	; 0x16
    13c2:	ff 89       	ldd	r31, Y+23	; 0x17
    13c4:	40 81       	ld	r20, Z
    13c6:	9c 01       	movw	r18, r24
    13c8:	0e 8c       	ldd	r0, Y+30	; 0x1e
    13ca:	02 c0       	rjmp	.+4      	; 0x13d0 <_ZN14HardwareSerial5beginEm+0xd0>
    13cc:	22 0f       	add	r18, r18
    13ce:	33 1f       	adc	r19, r19
    13d0:	0a 94       	dec	r0
    13d2:	e2 f7       	brpl	.-8      	; 0x13cc <_ZN14HardwareSerial5beginEm+0xcc>
    13d4:	42 2b       	or	r20, r18
    13d6:	40 83       	st	Z, r20
    13d8:	ee 89       	ldd	r30, Y+22	; 0x16
    13da:	ff 89       	ldd	r31, Y+23	; 0x17
    13dc:	20 81       	ld	r18, Z
    13de:	0f 8c       	ldd	r0, Y+31	; 0x1f
    13e0:	02 c0       	rjmp	.+4      	; 0x13e6 <_ZN14HardwareSerial5beginEm+0xe6>
    13e2:	88 0f       	add	r24, r24
    13e4:	99 1f       	adc	r25, r25
    13e6:	0a 94       	dec	r0
    13e8:	e2 f7       	brpl	.-8      	; 0x13e2 <_ZN14HardwareSerial5beginEm+0xe2>
    13ea:	80 95       	com	r24
    13ec:	82 23       	and	r24, r18
    13ee:	80 83       	st	Z, r24
    13f0:	df 91       	pop	r29
    13f2:	cf 91       	pop	r28
    13f4:	ff 90       	pop	r15
    13f6:	ef 90       	pop	r14
    13f8:	df 90       	pop	r13
    13fa:	cf 90       	pop	r12
    13fc:	08 95       	ret

000013fe <_GLOBAL__sub_I_rx_buffer>:
    13fe:	10 92 bc 03 	sts	0x03BC, r1
    1402:	10 92 bb 03 	sts	0x03BB, r1
    1406:	88 ee       	ldi	r24, 0xE8	; 232
    1408:	93 e0       	ldi	r25, 0x03	; 3
    140a:	a0 e0       	ldi	r26, 0x00	; 0
    140c:	b0 e0       	ldi	r27, 0x00	; 0
    140e:	80 93 bd 03 	sts	0x03BD, r24
    1412:	90 93 be 03 	sts	0x03BE, r25
    1416:	a0 93 bf 03 	sts	0x03BF, r26
    141a:	b0 93 c0 03 	sts	0x03C0, r27
    141e:	84 e3       	ldi	r24, 0x34	; 52
    1420:	91 e0       	ldi	r25, 0x01	; 1
    1422:	90 93 ba 03 	sts	0x03BA, r25
    1426:	80 93 b9 03 	sts	0x03B9, r24
    142a:	8f e1       	ldi	r24, 0x1F	; 31
    142c:	94 e0       	ldi	r25, 0x04	; 4
    142e:	90 93 c6 03 	sts	0x03C6, r25
    1432:	80 93 c5 03 	sts	0x03C5, r24
    1436:	8b ed       	ldi	r24, 0xDB	; 219
    1438:	93 e0       	ldi	r25, 0x03	; 3
    143a:	90 93 c8 03 	sts	0x03C8, r25
    143e:	80 93 c7 03 	sts	0x03C7, r24
    1442:	85 ec       	ldi	r24, 0xC5	; 197
    1444:	90 e0       	ldi	r25, 0x00	; 0
    1446:	90 93 ca 03 	sts	0x03CA, r25
    144a:	80 93 c9 03 	sts	0x03C9, r24
    144e:	84 ec       	ldi	r24, 0xC4	; 196
    1450:	90 e0       	ldi	r25, 0x00	; 0
    1452:	90 93 cc 03 	sts	0x03CC, r25
    1456:	80 93 cb 03 	sts	0x03CB, r24
    145a:	80 ec       	ldi	r24, 0xC0	; 192
    145c:	90 e0       	ldi	r25, 0x00	; 0
    145e:	90 93 ce 03 	sts	0x03CE, r25
    1462:	80 93 cd 03 	sts	0x03CD, r24
    1466:	81 ec       	ldi	r24, 0xC1	; 193
    1468:	90 e0       	ldi	r25, 0x00	; 0
    146a:	90 93 d0 03 	sts	0x03D0, r25
    146e:	80 93 cf 03 	sts	0x03CF, r24
    1472:	82 ec       	ldi	r24, 0xC2	; 194
    1474:	90 e0       	ldi	r25, 0x00	; 0
    1476:	90 93 d2 03 	sts	0x03D2, r25
    147a:	80 93 d1 03 	sts	0x03D1, r24
    147e:	86 ec       	ldi	r24, 0xC6	; 198
    1480:	90 e0       	ldi	r25, 0x00	; 0
    1482:	90 93 d4 03 	sts	0x03D4, r25
    1486:	80 93 d3 03 	sts	0x03D3, r24
    148a:	84 e0       	ldi	r24, 0x04	; 4
    148c:	80 93 d5 03 	sts	0x03D5, r24
    1490:	83 e0       	ldi	r24, 0x03	; 3
    1492:	80 93 d6 03 	sts	0x03D6, r24
    1496:	87 e0       	ldi	r24, 0x07	; 7
    1498:	80 93 d7 03 	sts	0x03D7, r24
    149c:	85 e0       	ldi	r24, 0x05	; 5
    149e:	80 93 d8 03 	sts	0x03D8, r24
    14a2:	81 e0       	ldi	r24, 0x01	; 1
    14a4:	80 93 d9 03 	sts	0x03D9, r24
    14a8:	08 95       	ret

000014aa <_ZN5Print5writeEPKhj>:
    14aa:	cf 92       	push	r12
    14ac:	df 92       	push	r13
    14ae:	ef 92       	push	r14
    14b0:	ff 92       	push	r15
    14b2:	0f 93       	push	r16
    14b4:	1f 93       	push	r17
    14b6:	cf 93       	push	r28
    14b8:	df 93       	push	r29
    14ba:	6c 01       	movw	r12, r24
    14bc:	eb 01       	movw	r28, r22
    14be:	7a 01       	movw	r14, r20
    14c0:	e6 0e       	add	r14, r22
    14c2:	f7 1e       	adc	r15, r23
    14c4:	00 e0       	ldi	r16, 0x00	; 0
    14c6:	10 e0       	ldi	r17, 0x00	; 0
    14c8:	0b c0       	rjmp	.+22     	; 0x14e0 <_ZN5Print5writeEPKhj+0x36>
    14ca:	69 91       	ld	r22, Y+
    14cc:	d6 01       	movw	r26, r12
    14ce:	ed 91       	ld	r30, X+
    14d0:	fc 91       	ld	r31, X
    14d2:	01 90       	ld	r0, Z+
    14d4:	f0 81       	ld	r31, Z
    14d6:	e0 2d       	mov	r30, r0
    14d8:	c6 01       	movw	r24, r12
    14da:	09 95       	icall
    14dc:	08 0f       	add	r16, r24
    14de:	19 1f       	adc	r17, r25
    14e0:	ce 15       	cp	r28, r14
    14e2:	df 05       	cpc	r29, r15
    14e4:	91 f7       	brne	.-28     	; 0x14ca <_ZN5Print5writeEPKhj+0x20>
    14e6:	c8 01       	movw	r24, r16
    14e8:	df 91       	pop	r29
    14ea:	cf 91       	pop	r28
    14ec:	1f 91       	pop	r17
    14ee:	0f 91       	pop	r16
    14f0:	ff 90       	pop	r15
    14f2:	ef 90       	pop	r14
    14f4:	df 90       	pop	r13
    14f6:	cf 90       	pop	r12
    14f8:	08 95       	ret

000014fa <_Z3maplllll>:
    14fa:	4f 92       	push	r4
    14fc:	5f 92       	push	r5
    14fe:	6f 92       	push	r6
    1500:	7f 92       	push	r7
    1502:	af 92       	push	r10
    1504:	bf 92       	push	r11
    1506:	cf 92       	push	r12
    1508:	df 92       	push	r13
    150a:	ef 92       	push	r14
    150c:	ff 92       	push	r15
    150e:	0f 93       	push	r16
    1510:	1f 93       	push	r17
    1512:	cf 93       	push	r28
    1514:	df 93       	push	r29
    1516:	cd b7       	in	r28, 0x3d	; 61
    1518:	de b7       	in	r29, 0x3e	; 62
    151a:	29 01       	movw	r4, r18
    151c:	3a 01       	movw	r6, r20
    151e:	62 1b       	sub	r22, r18
    1520:	73 0b       	sbc	r23, r19
    1522:	84 0b       	sbc	r24, r20
    1524:	95 0b       	sbc	r25, r21
    1526:	29 89       	ldd	r18, Y+17	; 0x11
    1528:	3a 89       	ldd	r19, Y+18	; 0x12
    152a:	4b 89       	ldd	r20, Y+19	; 0x13
    152c:	5c 89       	ldd	r21, Y+20	; 0x14
    152e:	2a 19       	sub	r18, r10
    1530:	3b 09       	sbc	r19, r11
    1532:	4c 09       	sbc	r20, r12
    1534:	5d 09       	sbc	r21, r13
    1536:	29 8b       	std	Y+17, r18	; 0x11
    1538:	3a 8b       	std	Y+18, r19	; 0x12
    153a:	4b 8b       	std	Y+19, r20	; 0x13
    153c:	5c 8b       	std	Y+20, r21	; 0x14
    153e:	9b 01       	movw	r18, r22
    1540:	ac 01       	movw	r20, r24
    1542:	69 89       	ldd	r22, Y+17	; 0x11
    1544:	7a 89       	ldd	r23, Y+18	; 0x12
    1546:	8b 89       	ldd	r24, Y+19	; 0x13
    1548:	9c 89       	ldd	r25, Y+20	; 0x14
    154a:	48 d1       	rcall	.+656    	; 0x17dc <__mulsi3>
    154c:	e4 18       	sub	r14, r4
    154e:	f5 08       	sbc	r15, r5
    1550:	06 09       	sbc	r16, r6
    1552:	17 09       	sbc	r17, r7
    1554:	a8 01       	movw	r20, r16
    1556:	97 01       	movw	r18, r14
    1558:	72 d1       	rcall	.+740    	; 0x183e <__divmodsi4>
    155a:	2a 0d       	add	r18, r10
    155c:	3b 1d       	adc	r19, r11
    155e:	4c 1d       	adc	r20, r12
    1560:	5d 1d       	adc	r21, r13
    1562:	b9 01       	movw	r22, r18
    1564:	ca 01       	movw	r24, r20
    1566:	df 91       	pop	r29
    1568:	cf 91       	pop	r28
    156a:	1f 91       	pop	r17
    156c:	0f 91       	pop	r16
    156e:	ff 90       	pop	r15
    1570:	ef 90       	pop	r14
    1572:	df 90       	pop	r13
    1574:	cf 90       	pop	r12
    1576:	bf 90       	pop	r11
    1578:	af 90       	pop	r10
    157a:	7f 90       	pop	r7
    157c:	6f 90       	pop	r6
    157e:	5f 90       	pop	r5
    1580:	4f 90       	pop	r4
    1582:	08 95       	ret

00001584 <_Z8makeWordhh>:
    1584:	38 2f       	mov	r19, r24
    1586:	20 e0       	ldi	r18, 0x00	; 0
    1588:	26 2b       	or	r18, r22
    158a:	c9 01       	movw	r24, r18
    158c:	08 95       	ret

0000158e <__vector_16>:
    158e:	1f 92       	push	r1
    1590:	0f 92       	push	r0
    1592:	0f b6       	in	r0, 0x3f	; 63
    1594:	0f 92       	push	r0
    1596:	11 24       	eor	r1, r1
    1598:	2f 93       	push	r18
    159a:	3f 93       	push	r19
    159c:	8f 93       	push	r24
    159e:	9f 93       	push	r25
    15a0:	af 93       	push	r26
    15a2:	bf 93       	push	r27
    15a4:	80 91 63 04 	lds	r24, 0x0463
    15a8:	90 91 64 04 	lds	r25, 0x0464
    15ac:	a0 91 65 04 	lds	r26, 0x0465
    15b0:	b0 91 66 04 	lds	r27, 0x0466
    15b4:	30 91 6b 04 	lds	r19, 0x046B
    15b8:	23 2f       	mov	r18, r19
    15ba:	2d 5f       	subi	r18, 0xFD	; 253
    15bc:	2d 37       	cpi	r18, 0x7D	; 125
    15be:	20 f4       	brcc	.+8      	; 0x15c8 <__vector_16+0x3a>
    15c0:	01 96       	adiw	r24, 0x01	; 1
    15c2:	a1 1d       	adc	r26, r1
    15c4:	b1 1d       	adc	r27, r1
    15c6:	05 c0       	rjmp	.+10     	; 0x15d2 <__vector_16+0x44>
    15c8:	23 2f       	mov	r18, r19
    15ca:	2a 57       	subi	r18, 0x7A	; 122
    15cc:	02 96       	adiw	r24, 0x02	; 2
    15ce:	a1 1d       	adc	r26, r1
    15d0:	b1 1d       	adc	r27, r1
    15d2:	20 93 6b 04 	sts	0x046B, r18
    15d6:	80 93 63 04 	sts	0x0463, r24
    15da:	90 93 64 04 	sts	0x0464, r25
    15de:	a0 93 65 04 	sts	0x0465, r26
    15e2:	b0 93 66 04 	sts	0x0466, r27
    15e6:	80 91 67 04 	lds	r24, 0x0467
    15ea:	90 91 68 04 	lds	r25, 0x0468
    15ee:	a0 91 69 04 	lds	r26, 0x0469
    15f2:	b0 91 6a 04 	lds	r27, 0x046A
    15f6:	01 96       	adiw	r24, 0x01	; 1
    15f8:	a1 1d       	adc	r26, r1
    15fa:	b1 1d       	adc	r27, r1
    15fc:	80 93 67 04 	sts	0x0467, r24
    1600:	90 93 68 04 	sts	0x0468, r25
    1604:	a0 93 69 04 	sts	0x0469, r26
    1608:	b0 93 6a 04 	sts	0x046A, r27
    160c:	bf 91       	pop	r27
    160e:	af 91       	pop	r26
    1610:	9f 91       	pop	r25
    1612:	8f 91       	pop	r24
    1614:	3f 91       	pop	r19
    1616:	2f 91       	pop	r18
    1618:	0f 90       	pop	r0
    161a:	0f be       	out	0x3f, r0	; 63
    161c:	0f 90       	pop	r0
    161e:	1f 90       	pop	r1
    1620:	18 95       	reti

00001622 <init>:
    1622:	78 94       	sei
    1624:	84 b5       	in	r24, 0x24	; 36
    1626:	82 60       	ori	r24, 0x02	; 2
    1628:	84 bd       	out	0x24, r24	; 36
    162a:	84 b5       	in	r24, 0x24	; 36
    162c:	81 60       	ori	r24, 0x01	; 1
    162e:	84 bd       	out	0x24, r24	; 36
    1630:	85 b5       	in	r24, 0x25	; 37
    1632:	82 60       	ori	r24, 0x02	; 2
    1634:	85 bd       	out	0x25, r24	; 37
    1636:	85 b5       	in	r24, 0x25	; 37
    1638:	81 60       	ori	r24, 0x01	; 1
    163a:	85 bd       	out	0x25, r24	; 37
    163c:	ee e6       	ldi	r30, 0x6E	; 110
    163e:	f0 e0       	ldi	r31, 0x00	; 0
    1640:	80 81       	ld	r24, Z
    1642:	81 60       	ori	r24, 0x01	; 1
    1644:	80 83       	st	Z, r24
    1646:	e1 e8       	ldi	r30, 0x81	; 129
    1648:	f0 e0       	ldi	r31, 0x00	; 0
    164a:	10 82       	st	Z, r1
    164c:	80 81       	ld	r24, Z
    164e:	82 60       	ori	r24, 0x02	; 2
    1650:	80 83       	st	Z, r24
    1652:	80 81       	ld	r24, Z
    1654:	81 60       	ori	r24, 0x01	; 1
    1656:	80 83       	st	Z, r24
    1658:	e0 e8       	ldi	r30, 0x80	; 128
    165a:	f0 e0       	ldi	r31, 0x00	; 0
    165c:	80 81       	ld	r24, Z
    165e:	81 60       	ori	r24, 0x01	; 1
    1660:	80 83       	st	Z, r24
    1662:	e1 eb       	ldi	r30, 0xB1	; 177
    1664:	f0 e0       	ldi	r31, 0x00	; 0
    1666:	80 81       	ld	r24, Z
    1668:	84 60       	ori	r24, 0x04	; 4
    166a:	80 83       	st	Z, r24
    166c:	e0 eb       	ldi	r30, 0xB0	; 176
    166e:	f0 e0       	ldi	r31, 0x00	; 0
    1670:	80 81       	ld	r24, Z
    1672:	81 60       	ori	r24, 0x01	; 1
    1674:	80 83       	st	Z, r24
    1676:	ea e7       	ldi	r30, 0x7A	; 122
    1678:	f0 e0       	ldi	r31, 0x00	; 0
    167a:	80 81       	ld	r24, Z
    167c:	84 60       	ori	r24, 0x04	; 4
    167e:	80 83       	st	Z, r24
    1680:	80 81       	ld	r24, Z
    1682:	82 60       	ori	r24, 0x02	; 2
    1684:	80 83       	st	Z, r24
    1686:	80 81       	ld	r24, Z
    1688:	81 60       	ori	r24, 0x01	; 1
    168a:	80 83       	st	Z, r24
    168c:	80 81       	ld	r24, Z
    168e:	80 68       	ori	r24, 0x80	; 128
    1690:	80 83       	st	Z, r24
    1692:	10 92 c1 00 	sts	0x00C1, r1
    1696:	08 95       	ret

00001698 <turnOffPWM>:
    1698:	83 30       	cpi	r24, 0x03	; 3
    169a:	69 f0       	breq	.+26     	; 0x16b6 <turnOffPWM+0x1e>
    169c:	28 f4       	brcc	.+10     	; 0x16a8 <turnOffPWM+0x10>
    169e:	81 30       	cpi	r24, 0x01	; 1
    16a0:	a1 f0       	breq	.+40     	; 0x16ca <turnOffPWM+0x32>
    16a2:	82 30       	cpi	r24, 0x02	; 2
    16a4:	11 f5       	brne	.+68     	; 0x16ea <turnOffPWM+0x52>
    16a6:	14 c0       	rjmp	.+40     	; 0x16d0 <turnOffPWM+0x38>
    16a8:	86 30       	cpi	r24, 0x06	; 6
    16aa:	b1 f0       	breq	.+44     	; 0x16d8 <turnOffPWM+0x40>
    16ac:	87 30       	cpi	r24, 0x07	; 7
    16ae:	c1 f0       	breq	.+48     	; 0x16e0 <turnOffPWM+0x48>
    16b0:	84 30       	cpi	r24, 0x04	; 4
    16b2:	d9 f4       	brne	.+54     	; 0x16ea <turnOffPWM+0x52>
    16b4:	04 c0       	rjmp	.+8      	; 0x16be <turnOffPWM+0x26>
    16b6:	80 91 80 00 	lds	r24, 0x0080
    16ba:	8f 77       	andi	r24, 0x7F	; 127
    16bc:	03 c0       	rjmp	.+6      	; 0x16c4 <turnOffPWM+0x2c>
    16be:	80 91 80 00 	lds	r24, 0x0080
    16c2:	8f 7d       	andi	r24, 0xDF	; 223
    16c4:	80 93 80 00 	sts	0x0080, r24
    16c8:	08 95       	ret
    16ca:	84 b5       	in	r24, 0x24	; 36
    16cc:	8f 77       	andi	r24, 0x7F	; 127
    16ce:	02 c0       	rjmp	.+4      	; 0x16d4 <turnOffPWM+0x3c>
    16d0:	84 b5       	in	r24, 0x24	; 36
    16d2:	8f 7d       	andi	r24, 0xDF	; 223
    16d4:	84 bd       	out	0x24, r24	; 36
    16d6:	08 95       	ret
    16d8:	80 91 b0 00 	lds	r24, 0x00B0
    16dc:	8f 77       	andi	r24, 0x7F	; 127
    16de:	03 c0       	rjmp	.+6      	; 0x16e6 <turnOffPWM+0x4e>
    16e0:	80 91 b0 00 	lds	r24, 0x00B0
    16e4:	8f 7d       	andi	r24, 0xDF	; 223
    16e6:	80 93 b0 00 	sts	0x00B0, r24
    16ea:	08 95       	ret

000016ec <pinMode>:
    16ec:	cf 93       	push	r28
    16ee:	df 93       	push	r29
    16f0:	90 e0       	ldi	r25, 0x00	; 0
    16f2:	fc 01       	movw	r30, r24
    16f4:	e4 58       	subi	r30, 0x84	; 132
    16f6:	ff 4f       	sbci	r31, 0xFF	; 255
    16f8:	44 91       	lpm	r20, Z
    16fa:	fc 01       	movw	r30, r24
    16fc:	e0 57       	subi	r30, 0x70	; 112
    16fe:	ff 4f       	sbci	r31, 0xFF	; 255
    1700:	84 91       	lpm	r24, Z
    1702:	88 23       	and	r24, r24
    1704:	41 f1       	breq	.+80     	; 0x1756 <pinMode+0x6a>
    1706:	90 e0       	ldi	r25, 0x00	; 0
    1708:	88 0f       	add	r24, r24
    170a:	99 1f       	adc	r25, r25
    170c:	fc 01       	movw	r30, r24
    170e:	e2 55       	subi	r30, 0x52	; 82
    1710:	ff 4f       	sbci	r31, 0xFF	; 255
    1712:	25 91       	lpm	r18, Z+
    1714:	34 91       	lpm	r19, Z
    1716:	d9 01       	movw	r26, r18
    1718:	8c 55       	subi	r24, 0x5C	; 92
    171a:	9f 4f       	sbci	r25, 0xFF	; 255
    171c:	fc 01       	movw	r30, r24
    171e:	85 91       	lpm	r24, Z+
    1720:	94 91       	lpm	r25, Z
    1722:	c8 2f       	mov	r28, r24
    1724:	d9 2f       	mov	r29, r25
    1726:	9f b7       	in	r25, 0x3f	; 63
    1728:	f8 94       	cli
    172a:	8c 91       	ld	r24, X
    172c:	61 11       	cpse	r22, r1
    172e:	06 c0       	rjmp	.+12     	; 0x173c <pinMode+0x50>
    1730:	40 95       	com	r20
    1732:	84 23       	and	r24, r20
    1734:	8c 93       	st	X, r24
    1736:	88 81       	ld	r24, Y
    1738:	84 23       	and	r24, r20
    173a:	08 c0       	rjmp	.+16     	; 0x174c <pinMode+0x60>
    173c:	62 30       	cpi	r22, 0x02	; 2
    173e:	41 f4       	brne	.+16     	; 0x1750 <pinMode+0x64>
    1740:	24 2f       	mov	r18, r20
    1742:	20 95       	com	r18
    1744:	82 23       	and	r24, r18
    1746:	8c 93       	st	X, r24
    1748:	88 81       	ld	r24, Y
    174a:	84 2b       	or	r24, r20
    174c:	88 83       	st	Y, r24
    174e:	02 c0       	rjmp	.+4      	; 0x1754 <pinMode+0x68>
    1750:	84 2b       	or	r24, r20
    1752:	8c 93       	st	X, r24
    1754:	9f bf       	out	0x3f, r25	; 63
    1756:	df 91       	pop	r29
    1758:	cf 91       	pop	r28
    175a:	08 95       	ret

0000175c <digitalWrite>:
    175c:	0f 93       	push	r16
    175e:	1f 93       	push	r17
    1760:	cf 93       	push	r28
    1762:	df 93       	push	r29
    1764:	1f 92       	push	r1
    1766:	cd b7       	in	r28, 0x3d	; 61
    1768:	de b7       	in	r29, 0x3e	; 62
    176a:	28 2f       	mov	r18, r24
    176c:	30 e0       	ldi	r19, 0x00	; 0
    176e:	f9 01       	movw	r30, r18
    1770:	e8 59       	subi	r30, 0x98	; 152
    1772:	ff 4f       	sbci	r31, 0xFF	; 255
    1774:	84 91       	lpm	r24, Z
    1776:	f9 01       	movw	r30, r18
    1778:	e4 58       	subi	r30, 0x84	; 132
    177a:	ff 4f       	sbci	r31, 0xFF	; 255
    177c:	14 91       	lpm	r17, Z
    177e:	f9 01       	movw	r30, r18
    1780:	e0 57       	subi	r30, 0x70	; 112
    1782:	ff 4f       	sbci	r31, 0xFF	; 255
    1784:	04 91       	lpm	r16, Z
    1786:	00 23       	and	r16, r16
    1788:	c9 f0       	breq	.+50     	; 0x17bc <digitalWrite+0x60>
    178a:	88 23       	and	r24, r24
    178c:	19 f0       	breq	.+6      	; 0x1794 <digitalWrite+0x38>
    178e:	69 83       	std	Y+1, r22	; 0x01
    1790:	83 df       	rcall	.-250    	; 0x1698 <turnOffPWM>
    1792:	69 81       	ldd	r22, Y+1	; 0x01
    1794:	e0 2f       	mov	r30, r16
    1796:	f0 e0       	ldi	r31, 0x00	; 0
    1798:	ee 0f       	add	r30, r30
    179a:	ff 1f       	adc	r31, r31
    179c:	ec 55       	subi	r30, 0x5C	; 92
    179e:	ff 4f       	sbci	r31, 0xFF	; 255
    17a0:	85 91       	lpm	r24, Z+
    17a2:	94 91       	lpm	r25, Z
    17a4:	dc 01       	movw	r26, r24
    17a6:	9f b7       	in	r25, 0x3f	; 63
    17a8:	f8 94       	cli
    17aa:	8c 91       	ld	r24, X
    17ac:	61 11       	cpse	r22, r1
    17ae:	03 c0       	rjmp	.+6      	; 0x17b6 <digitalWrite+0x5a>
    17b0:	10 95       	com	r17
    17b2:	81 23       	and	r24, r17
    17b4:	01 c0       	rjmp	.+2      	; 0x17b8 <digitalWrite+0x5c>
    17b6:	81 2b       	or	r24, r17
    17b8:	8c 93       	st	X, r24
    17ba:	9f bf       	out	0x3f, r25	; 63
    17bc:	0f 90       	pop	r0
    17be:	df 91       	pop	r29
    17c0:	cf 91       	pop	r28
    17c2:	1f 91       	pop	r17
    17c4:	0f 91       	pop	r16
    17c6:	08 95       	ret

000017c8 <exit>:
    17c8:	f8 94       	cli
    17ca:	70 c0       	rjmp	.+224    	; 0x18ac <_exit>

000017cc <__eerd_byte_m328p>:
    17cc:	f9 99       	sbic	0x1f, 1	; 31
    17ce:	fe cf       	rjmp	.-4      	; 0x17cc <__eerd_byte_m328p>
    17d0:	92 bd       	out	0x22, r25	; 34
    17d2:	81 bd       	out	0x21, r24	; 33
    17d4:	f8 9a       	sbi	0x1f, 0	; 31
    17d6:	99 27       	eor	r25, r25
    17d8:	80 b5       	in	r24, 0x20	; 32
    17da:	08 95       	ret

000017dc <__mulsi3>:
    17dc:	db 01       	movw	r26, r22
    17de:	8f 93       	push	r24
    17e0:	9f 93       	push	r25
    17e2:	48 d0       	rcall	.+144    	; 0x1874 <__muluhisi3>
    17e4:	bf 91       	pop	r27
    17e6:	af 91       	pop	r26
    17e8:	a2 9f       	mul	r26, r18
    17ea:	80 0d       	add	r24, r0
    17ec:	91 1d       	adc	r25, r1
    17ee:	a3 9f       	mul	r26, r19
    17f0:	90 0d       	add	r25, r0
    17f2:	b2 9f       	mul	r27, r18
    17f4:	90 0d       	add	r25, r0
    17f6:	11 24       	eor	r1, r1
    17f8:	08 95       	ret

000017fa <__udivmodsi4>:
    17fa:	a1 e2       	ldi	r26, 0x21	; 33
    17fc:	1a 2e       	mov	r1, r26
    17fe:	aa 1b       	sub	r26, r26
    1800:	bb 1b       	sub	r27, r27
    1802:	fd 01       	movw	r30, r26
    1804:	0d c0       	rjmp	.+26     	; 0x1820 <__udivmodsi4_ep>

00001806 <__udivmodsi4_loop>:
    1806:	aa 1f       	adc	r26, r26
    1808:	bb 1f       	adc	r27, r27
    180a:	ee 1f       	adc	r30, r30
    180c:	ff 1f       	adc	r31, r31
    180e:	a2 17       	cp	r26, r18
    1810:	b3 07       	cpc	r27, r19
    1812:	e4 07       	cpc	r30, r20
    1814:	f5 07       	cpc	r31, r21
    1816:	20 f0       	brcs	.+8      	; 0x1820 <__udivmodsi4_ep>
    1818:	a2 1b       	sub	r26, r18
    181a:	b3 0b       	sbc	r27, r19
    181c:	e4 0b       	sbc	r30, r20
    181e:	f5 0b       	sbc	r31, r21

00001820 <__udivmodsi4_ep>:
    1820:	66 1f       	adc	r22, r22
    1822:	77 1f       	adc	r23, r23
    1824:	88 1f       	adc	r24, r24
    1826:	99 1f       	adc	r25, r25
    1828:	1a 94       	dec	r1
    182a:	69 f7       	brne	.-38     	; 0x1806 <__udivmodsi4_loop>
    182c:	60 95       	com	r22
    182e:	70 95       	com	r23
    1830:	80 95       	com	r24
    1832:	90 95       	com	r25
    1834:	9b 01       	movw	r18, r22
    1836:	ac 01       	movw	r20, r24
    1838:	bd 01       	movw	r22, r26
    183a:	cf 01       	movw	r24, r30
    183c:	08 95       	ret

0000183e <__divmodsi4>:
    183e:	05 2e       	mov	r0, r21
    1840:	97 fb       	bst	r25, 7
    1842:	16 f4       	brtc	.+4      	; 0x1848 <__divmodsi4+0xa>
    1844:	00 94       	com	r0
    1846:	06 d0       	rcall	.+12     	; 0x1854 <__divmodsi4_neg1>
    1848:	57 fd       	sbrc	r21, 7
    184a:	0c d0       	rcall	.+24     	; 0x1864 <__divmodsi4_neg2>
    184c:	d6 df       	rcall	.-84     	; 0x17fa <__udivmodsi4>
    184e:	07 fc       	sbrc	r0, 7
    1850:	09 d0       	rcall	.+18     	; 0x1864 <__divmodsi4_neg2>
    1852:	7e f4       	brtc	.+30     	; 0x1872 <__divmodsi4_exit>

00001854 <__divmodsi4_neg1>:
    1854:	90 95       	com	r25
    1856:	80 95       	com	r24
    1858:	70 95       	com	r23
    185a:	61 95       	neg	r22
    185c:	7f 4f       	sbci	r23, 0xFF	; 255
    185e:	8f 4f       	sbci	r24, 0xFF	; 255
    1860:	9f 4f       	sbci	r25, 0xFF	; 255
    1862:	08 95       	ret

00001864 <__divmodsi4_neg2>:
    1864:	50 95       	com	r21
    1866:	40 95       	com	r20
    1868:	30 95       	com	r19
    186a:	21 95       	neg	r18
    186c:	3f 4f       	sbci	r19, 0xFF	; 255
    186e:	4f 4f       	sbci	r20, 0xFF	; 255
    1870:	5f 4f       	sbci	r21, 0xFF	; 255

00001872 <__divmodsi4_exit>:
    1872:	08 95       	ret

00001874 <__muluhisi3>:
    1874:	0f d0       	rcall	.+30     	; 0x1894 <__umulhisi3>
    1876:	a5 9f       	mul	r26, r21
    1878:	90 0d       	add	r25, r0
    187a:	b4 9f       	mul	r27, r20
    187c:	90 0d       	add	r25, r0
    187e:	a4 9f       	mul	r26, r20
    1880:	80 0d       	add	r24, r0
    1882:	91 1d       	adc	r25, r1
    1884:	11 24       	eor	r1, r1
    1886:	08 95       	ret

00001888 <__tablejump2__>:
    1888:	ee 0f       	add	r30, r30
    188a:	ff 1f       	adc	r31, r31

0000188c <__tablejump__>:
    188c:	05 90       	lpm	r0, Z+
    188e:	f4 91       	lpm	r31, Z
    1890:	e0 2d       	mov	r30, r0
    1892:	09 94       	ijmp

00001894 <__umulhisi3>:
    1894:	a2 9f       	mul	r26, r18
    1896:	b0 01       	movw	r22, r0
    1898:	b3 9f       	mul	r27, r19
    189a:	c0 01       	movw	r24, r0
    189c:	a3 9f       	mul	r26, r19
    189e:	01 d0       	rcall	.+2      	; 0x18a2 <__umulhisi3+0xe>
    18a0:	b2 9f       	mul	r27, r18
    18a2:	70 0d       	add	r23, r0
    18a4:	81 1d       	adc	r24, r1
    18a6:	11 24       	eor	r1, r1
    18a8:	91 1d       	adc	r25, r1
    18aa:	08 95       	ret

000018ac <_exit>:
    18ac:	f8 94       	cli

000018ae <__stop_program>:
    18ae:	ff cf       	rjmp	.-2      	; 0x18ae <__stop_program>
