
TrinityRackCV.elf:     file format elf32-avr

Sections:
Idx Name          Size      VMA       LMA       File off  Algn
  0 .data         00000090  00800100  0000367e  00003712  2**0
                  CONTENTS, ALLOC, LOAD, DATA
  1 .text         0000367e  00000000  00000000  00000094  2**1
                  CONTENTS, ALLOC, LOAD, READONLY, CODE
  2 .bss          000005be  00800190  00800190  000037a2  2**0
                  ALLOC
  3 .stab         00003e88  00000000  00000000  000037a4  2**2
                  CONTENTS, READONLY, DEBUGGING
  4 .stabstr      00001171  00000000  00000000  0000762c  2**0
                  CONTENTS, READONLY, DEBUGGING
  5 .comment      00000011  00000000  00000000  0000879d  2**0
                  CONTENTS, READONLY
  6 .debug_aranges 00000218  00000000  00000000  000087b0  2**3
                  CONTENTS, READONLY, DEBUGGING
  7 .debug_info   00000c83  00000000  00000000  000089c8  2**0
                  CONTENTS, READONLY, DEBUGGING
  8 .debug_abbrev 00000204  00000000  00000000  0000964b  2**0
                  CONTENTS, READONLY, DEBUGGING
  9 .debug_line   00000631  00000000  00000000  0000984f  2**0
                  CONTENTS, READONLY, DEBUGGING
 10 .debug_frame  00000088  00000000  00000000  00009e80  2**2
                  CONTENTS, READONLY, DEBUGGING
 11 .debug_str    000000c6  00000000  00000000  00009f08  2**0
                  CONTENTS, READONLY, DEBUGGING
 12 .debug_loc    000001e8  00000000  00000000  00009fce  2**0
                  CONTENTS, READONLY, DEBUGGING
 13 .debug_ranges 00000028  00000000  00000000  0000a1b6  2**0
                  CONTENTS, READONLY, DEBUGGING

Disassembly of section .text:

00000000 <__vectors>:
       0:	a0 c0       	rjmp	.+320    	; 0x142 <__dtors_end>
       2:	00 00       	nop
       4:	c6 c0       	rjmp	.+396    	; 0x192 <__bad_interrupt>
       6:	00 00       	nop
       8:	c4 c0       	rjmp	.+392    	; 0x192 <__bad_interrupt>
       a:	00 00       	nop
       c:	c2 c0       	rjmp	.+388    	; 0x192 <__bad_interrupt>
       e:	00 00       	nop
      10:	c0 c0       	rjmp	.+384    	; 0x192 <__bad_interrupt>
      12:	00 00       	nop
      14:	be c0       	rjmp	.+380    	; 0x192 <__bad_interrupt>
      16:	00 00       	nop
      18:	bc c0       	rjmp	.+376    	; 0x192 <__bad_interrupt>
      1a:	00 00       	nop
      1c:	0c 94 f0 0b 	jmp	0x17e0	; 0x17e0 <__vector_7>
      20:	b8 c0       	rjmp	.+368    	; 0x192 <__bad_interrupt>
      22:	00 00       	nop
      24:	b6 c0       	rjmp	.+364    	; 0x192 <__bad_interrupt>
      26:	00 00       	nop
      28:	b4 c0       	rjmp	.+360    	; 0x192 <__bad_interrupt>
      2a:	00 00       	nop
      2c:	b2 c0       	rjmp	.+356    	; 0x192 <__bad_interrupt>
      2e:	00 00       	nop
      30:	b0 c0       	rjmp	.+352    	; 0x192 <__bad_interrupt>
      32:	00 00       	nop
      34:	ae c0       	rjmp	.+348    	; 0x192 <__bad_interrupt>
      36:	00 00       	nop
      38:	ac c0       	rjmp	.+344    	; 0x192 <__bad_interrupt>
      3a:	00 00       	nop
      3c:	aa c0       	rjmp	.+340    	; 0x192 <__bad_interrupt>
      3e:	00 00       	nop
      40:	0c 94 e8 15 	jmp	0x2bd0	; 0x2bd0 <__vector_16>
      44:	a6 c0       	rjmp	.+332    	; 0x192 <__bad_interrupt>
      46:	00 00       	nop
      48:	0c 94 ea 13 	jmp	0x27d4	; 0x27d4 <__vector_18>
      4c:	0c 94 24 14 	jmp	0x2848	; 0x2848 <__vector_19>
      50:	a0 c0       	rjmp	.+320    	; 0x192 <__bad_interrupt>
      52:	00 00       	nop
      54:	9e c0       	rjmp	.+316    	; 0x192 <__bad_interrupt>
      56:	00 00       	nop
      58:	9c c0       	rjmp	.+312    	; 0x192 <__bad_interrupt>
      5a:	00 00       	nop
      5c:	9a c0       	rjmp	.+308    	; 0x192 <__bad_interrupt>
      5e:	00 00       	nop
      60:	98 c0       	rjmp	.+304    	; 0x192 <__bad_interrupt>
      62:	00 00       	nop
      64:	96 c0       	rjmp	.+300    	; 0x192 <__bad_interrupt>
      66:	00 00       	nop
      68:	07 63       	ori	r16, 0x37	; 55
      6a:	42 36       	cpi	r20, 0x62	; 98
      6c:	b7 9b       	sbis	0x16, 7	; 22
      6e:	d8 a7       	std	Y+40, r29	; 0x28
      70:	1a 39       	cpi	r17, 0x9A	; 154
      72:	68 56       	subi	r22, 0x68	; 104
      74:	18 ae       	std	Y+56, r1	; 0x38
      76:	ba ab       	std	Y+50, r27	; 0x32
      78:	55 8c       	ldd	r5, Z+29	; 0x1d
      7a:	1d 3c       	cpi	r17, 0xCD	; 205
      7c:	b7 cc       	rjmp	.-1682   	; 0xfffff9ec <__eeprom_end+0xff7ef9ec>
      7e:	57 63       	ori	r21, 0x37	; 55
      80:	bd 6d       	ori	r27, 0xDD	; 221
      82:	ed fd       	.word	0xfded	; ????
      84:	75 3e       	cpi	r23, 0xE5	; 229
      86:	f6 17       	cp	r31, r22
      88:	72 31       	cpi	r23, 0x12	; 18
      8a:	bf 00       	.word	0x00bf	; ????
      8c:	00 00       	nop
      8e:	80 3f       	cpi	r24, 0xF0	; 240
      90:	08 00       	.word	0x0008	; ????
      92:	00 00       	nop
      94:	be 92       	st	-X, r11
      96:	24 49       	sbci	r18, 0x94	; 148
      98:	12 3e       	cpi	r17, 0xE2	; 226
      9a:	ab aa       	std	Y+51, r10	; 0x33
      9c:	aa 2a       	or	r10, r26
      9e:	be cd       	rjmp	.-1156   	; 0xfffffc1c <__eeprom_end+0xff7efc1c>
      a0:	cc cc       	rjmp	.-1640   	; 0xfffffa3a <__eeprom_end+0xff7efa3a>
      a2:	4c 3e       	cpi	r20, 0xEC	; 236
      a4:	00 00       	nop
      a6:	00 80       	ld	r0, Z
      a8:	be ab       	std	Y+54, r27	; 0x36
      aa:	aa aa       	std	Y+50, r10	; 0x32
      ac:	aa 3e       	cpi	r26, 0xEA	; 234
      ae:	00 00       	nop
      b0:	00 00       	nop
      b2:	bf 00       	.word	0x00bf	; ????
      b4:	00 00       	nop
      b6:	80 3f       	cpi	r24, 0xF0	; 240
      b8:	00 00       	nop
      ba:	00 00       	nop
      bc:	00 08       	sbc	r0, r0
      be:	41 78       	andi	r20, 0x81	; 129
      c0:	d3 bb       	out	0x13, r29	; 19
      c2:	43 87       	std	Z+11, r20	; 0x0b
      c4:	d1 13       	cpse	r29, r17
      c6:	3d 19       	sub	r19, r13
      c8:	0e 3c       	cpi	r16, 0xCE	; 206
      ca:	c3 bd       	out	0x23, r28	; 35
      cc:	42 82       	std	Z+2, r4	; 0x02
      ce:	ad 2b       	or	r26, r29
      d0:	3e 68       	ori	r19, 0x8E	; 142
      d2:	ec 82       	std	Y+4, r14	; 0x04
      d4:	76 be       	out	0x36, r7	; 54
      d6:	d9 8f       	std	Y+25, r29	; 0x19
      d8:	e1 a9       	ldd	r30, Z+49	; 0x31
      da:	3e 4c       	sbci	r19, 0xCE	; 206
      dc:	80 ef       	ldi	r24, 0xF0	; 240
      de:	ff be       	out	0x3f, r15	; 63
      e0:	01 c4       	rjmp	.+2050   	; 0x8e4 <_Z18reflectValueChangehh+0x48e>
      e2:	ff 7f       	andi	r31, 0xFF	; 255
      e4:	3f 00       	.word	0x003f	; ????
      e6:	00 00       	nop
	...

000000ea <digital_pin_to_timer_PGM>:
      ea:	00 00 00 07 00 02 01 00 00 03 04 06 00 00 00 00     ................
      fa:	00 00 00 00                                         ....

000000fe <digital_pin_to_bit_mask_PGM>:
      fe:	01 02 04 08 10 20 40 80 01 02 04 08 10 20 01 02     ..... @...... ..
     10e:	04 08 10 20                                         ... 

00000112 <digital_pin_to_port_PGM>:
     112:	04 04 04 04 04 04 04 04 02 02 02 02 02 02 03 03     ................
     122:	03 03 03 03                                         ....

00000126 <port_to_output_PGM>:
     126:	00 00 00 00 25 00 28 00 2b 00                       ....%.(.+.

00000130 <port_to_mode_PGM>:
     130:	00 00 00 00 24 00 27 00 2a 00                       ....$.'.*.

0000013a <__ctors_start>:
     13a:	83 0a       	sbc	r8, r19
     13c:	13 0c       	add	r1, r3
     13e:	de 14       	cp	r13, r14

00000140 <__ctors_end>:
     140:	92 0a       	sbc	r9, r18

00000142 <__dtors_end>:
     142:	11 24       	eor	r1, r1
     144:	1f be       	out	0x3f, r1	; 63
     146:	cf ef       	ldi	r28, 0xFF	; 255
     148:	d8 e0       	ldi	r29, 0x08	; 8
     14a:	de bf       	out	0x3e, r29	; 62
     14c:	cd bf       	out	0x3d, r28	; 61

0000014e <__do_copy_data>:
     14e:	11 e0       	ldi	r17, 0x01	; 1
     150:	a0 e0       	ldi	r26, 0x00	; 0
     152:	b1 e0       	ldi	r27, 0x01	; 1
     154:	ee e7       	ldi	r30, 0x7E	; 126
     156:	f6 e3       	ldi	r31, 0x36	; 54
     158:	02 c0       	rjmp	.+4      	; 0x15e <__do_copy_data+0x10>
     15a:	05 90       	lpm	r0, Z+
     15c:	0d 92       	st	X+, r0
     15e:	a0 39       	cpi	r26, 0x90	; 144
     160:	b1 07       	cpc	r27, r17
     162:	d9 f7       	brne	.-10     	; 0x15a <__do_copy_data+0xc>

00000164 <__do_clear_bss>:
     164:	27 e0       	ldi	r18, 0x07	; 7
     166:	a0 e9       	ldi	r26, 0x90	; 144
     168:	b1 e0       	ldi	r27, 0x01	; 1
     16a:	01 c0       	rjmp	.+2      	; 0x16e <.do_clear_bss_start>

0000016c <.do_clear_bss_loop>:
     16c:	1d 92       	st	X+, r1

0000016e <.do_clear_bss_start>:
     16e:	ae 34       	cpi	r26, 0x4E	; 78
     170:	b2 07       	cpc	r27, r18
     172:	e1 f7       	brne	.-8      	; 0x16c <.do_clear_bss_loop>

00000174 <__do_global_ctors>:
     174:	11 e0       	ldi	r17, 0x01	; 1
     176:	c0 e4       	ldi	r28, 0x40	; 64
     178:	d1 e0       	ldi	r29, 0x01	; 1
     17a:	04 c0       	rjmp	.+8      	; 0x184 <__do_global_ctors+0x10>
     17c:	22 97       	sbiw	r28, 0x02	; 2
     17e:	fe 01       	movw	r30, r28
     180:	0e 94 23 1b 	call	0x3646	; 0x3646 <__tablejump__>
     184:	ca 33       	cpi	r28, 0x3A	; 58
     186:	d1 07       	cpc	r29, r17
     188:	c9 f7       	brne	.-14     	; 0x17c <__do_global_ctors+0x8>
     18a:	0e 94 7e 0a 	call	0x14fc	; 0x14fc <main>
     18e:	0c 94 5c 17 	jmp	0x2eb8	; 0x2eb8 <exit>

00000192 <__bad_interrupt>:
     192:	36 cf       	rjmp	.-404    	; 0x0 <__vectors>

00000194 <_Z9clockCallh>:
     194:	08 95       	ret

00000196 <_Z8stepCallh>:
     196:	08 95       	ret

00000198 <_Z8gateCallh>:
     198:	08 95       	ret

0000019a <_Z9startCallh>:
     19a:	08 95       	ret

0000019c <_Z8stopCallh>:
     19c:	08 95       	ret

0000019e <_Z11restartCallh>:
     19e:	08 95       	ret

000001a0 <_Z18channelTriggerCallhh>:
     1a0:	08 95       	ret

000001a2 <_Z26channelInterpolateFromCallhh>:
     1a2:	90 e0       	ldi	r25, 0x00	; 0
     1a4:	fc 01       	movw	r30, r24
     1a6:	e6 56       	subi	r30, 0x66	; 102
     1a8:	fe 4f       	sbci	r31, 0xFE	; 254
     1aa:	60 83       	st	Z, r22
     1ac:	fc 01       	movw	r30, r24
     1ae:	ec 56       	subi	r30, 0x6C	; 108
     1b0:	fe 4f       	sbci	r31, 0xFE	; 254
     1b2:	10 82       	st	Z, r1
     1b4:	08 95       	ret

000001b6 <_Z24channelInterpolateToCallhh>:
     1b6:	90 e0       	ldi	r25, 0x00	; 0
     1b8:	fc 01       	movw	r30, r24
     1ba:	e6 56       	subi	r30, 0x66	; 102
     1bc:	fe 4f       	sbci	r31, 0xFE	; 254
     1be:	20 81       	ld	r18, Z
     1c0:	20 32       	cpi	r18, 0x20	; 32
     1c2:	58 f4       	brcc	.+22     	; 0x1da <_Z24channelInterpolateToCallhh+0x24>
     1c4:	33 e5       	ldi	r19, 0x53	; 83
     1c6:	38 9f       	mul	r19, r24
     1c8:	f0 01       	movw	r30, r0
     1ca:	39 9f       	mul	r19, r25
     1cc:	f0 0d       	add	r31, r0
     1ce:	11 24       	eor	r1, r1
     1d0:	e3 5b       	subi	r30, 0xB3	; 179
     1d2:	fb 4f       	sbci	r31, 0xFB	; 251
     1d4:	e2 0f       	add	r30, r18
     1d6:	f1 1d       	adc	r31, r1
     1d8:	63 83       	std	Z+3, r22	; 0x03
     1da:	23 e5       	ldi	r18, 0x53	; 83
     1dc:	28 9f       	mul	r18, r24
     1de:	f0 01       	movw	r30, r0
     1e0:	29 9f       	mul	r18, r25
     1e2:	f0 0d       	add	r31, r0
     1e4:	11 24       	eor	r1, r1
     1e6:	e3 5b       	subi	r30, 0xB3	; 179
     1e8:	fb 4f       	sbci	r31, 0xFB	; 251
     1ea:	21 e0       	ldi	r18, 0x01	; 1
     1ec:	22 83       	std	Z+2, r18	; 0x02
     1ee:	fc 01       	movw	r30, r24
     1f0:	ec 56       	subi	r30, 0x6C	; 108
     1f2:	fe 4f       	sbci	r31, 0xFE	; 254
     1f4:	10 82       	st	Z, r1
     1f6:	08 95       	ret

000001f8 <_Z13channelCVCallhh>:
     1f8:	46 2f       	mov	r20, r22
     1fa:	68 2f       	mov	r22, r24
     1fc:	8f e3       	ldi	r24, 0x3F	; 63
     1fe:	96 e0       	ldi	r25, 0x06	; 6
     200:	0c 94 fa 0a 	jmp	0x15f4	; 0x15f4 <_ZN16trinityRackCV_HW6setDACEhh>

00000204 <_Z21channeInterpolateCallhh>:
     204:	cf 93       	push	r28
     206:	df 93       	push	r29
     208:	d8 2f       	mov	r29, r24
     20a:	c6 2f       	mov	r28, r22
     20c:	28 2f       	mov	r18, r24
     20e:	30 e0       	ldi	r19, 0x00	; 0
     210:	f9 01       	movw	r30, r18
     212:	ec 56       	subi	r30, 0x6C	; 108
     214:	fe 4f       	sbci	r31, 0xFE	; 254
     216:	81 e0       	ldi	r24, 0x01	; 1
     218:	80 83       	st	Z, r24
     21a:	93 e5       	ldi	r25, 0x53	; 83
     21c:	92 9f       	mul	r25, r18
     21e:	f0 01       	movw	r30, r0
     220:	93 9f       	mul	r25, r19
     222:	f0 0d       	add	r31, r0
     224:	11 24       	eor	r1, r1
     226:	e3 5b       	subi	r30, 0xB3	; 179
     228:	fb 4f       	sbci	r31, 0xFB	; 251
     22a:	90 91 a7 01 	lds	r25, 0x01A7
     22e:	df 01       	movw	r26, r30
     230:	a9 0f       	add	r26, r25
     232:	b1 1d       	adc	r27, r1
     234:	13 96       	adiw	r26, 0x03	; 3
     236:	6c 93       	st	X, r22
     238:	82 83       	std	Z+2, r24	; 0x02
     23a:	8d 2f       	mov	r24, r29
     23c:	dd df       	rcall	.-70     	; 0x1f8 <_Z13channelCVCallhh>
     23e:	80 91 04 02 	lds	r24, 0x0204
     242:	8d 13       	cpse	r24, r29
     244:	05 c0       	rjmp	.+10     	; 0x250 <_Z21channeInterpolateCallhh+0x4c>
     246:	6c 2f       	mov	r22, r28
     248:	86 e0       	ldi	r24, 0x06	; 6
     24a:	df 91       	pop	r29
     24c:	cf 91       	pop	r28
     24e:	d4 cf       	rjmp	.-88     	; 0x1f8 <_Z13channelCVCallhh>
     250:	df 91       	pop	r29
     252:	cf 91       	pop	r28
     254:	08 95       	ret

00000256 <_Z11triggerCallh>:
     256:	cf 93       	push	r28
     258:	df 93       	push	r29
     25a:	c8 2f       	mov	r28, r24
     25c:	d0 e0       	ldi	r29, 0x00	; 0
     25e:	fe 01       	movw	r30, r28
     260:	ea 51       	subi	r30, 0x1A	; 26
     262:	fe 4f       	sbci	r31, 0xFE	; 254
     264:	91 e0       	ldi	r25, 0x01	; 1
     266:	90 83       	st	Z, r25
     268:	4f ef       	ldi	r20, 0xFF	; 255
     26a:	68 2f       	mov	r22, r24
     26c:	8f e3       	ldi	r24, 0x3F	; 63
     26e:	96 e0       	ldi	r25, 0x06	; 6
     270:	0e 94 fa 0a 	call	0x15f4	; 0x15f4 <_ZN16trinityRackCV_HW6setDACEhh>
     274:	fe 01       	movw	r30, r28
     276:	ee 0f       	add	r30, r30
     278:	ff 1f       	adc	r31, r31
     27a:	ee 0f       	add	r30, r30
     27c:	ff 1f       	adc	r31, r31
     27e:	e2 53       	subi	r30, 0x32	; 50
     280:	fe 4f       	sbci	r31, 0xFE	; 254
     282:	80 91 41 06 	lds	r24, 0x0641
     286:	90 91 42 06 	lds	r25, 0x0642
     28a:	a0 91 43 06 	lds	r26, 0x0643
     28e:	b0 91 44 06 	lds	r27, 0x0644
     292:	80 83       	st	Z, r24
     294:	91 83       	std	Z+1, r25	; 0x01
     296:	a2 83       	std	Z+2, r26	; 0x02
     298:	b3 83       	std	Z+3, r27	; 0x03
     29a:	df 91       	pop	r29
     29c:	cf 91       	pop	r28
     29e:	08 95       	ret

000002a0 <_Z10selectCallh>:
     2a0:	80 93 04 02 	sts	0x0204, r24
     2a4:	80 93 48 06 	sts	0x0648, r24
     2a8:	8f e0       	ldi	r24, 0x0F	; 15
     2aa:	92 e0       	ldi	r25, 0x02	; 2
     2ac:	0c 94 d3 11 	jmp	0x23a6	; 0x23a6 <_ZN19simpleSerialDecoder15sendPairMessageEv>

000002b0 <_Z15channelGateCallhh>:
     2b0:	61 11       	cpse	r22, r1
     2b2:	02 c0       	rjmp	.+4      	; 0x2b8 <_Z15channelGateCallhh+0x8>
     2b4:	40 e0       	ldi	r20, 0x00	; 0
     2b6:	01 c0       	rjmp	.+2      	; 0x2ba <_Z15channelGateCallhh+0xa>
     2b8:	4f ef       	ldi	r20, 0xFF	; 255
     2ba:	68 2f       	mov	r22, r24
     2bc:	8f e3       	ldi	r24, 0x3F	; 63
     2be:	96 e0       	ldi	r25, 0x06	; 6
     2c0:	0c 94 fa 0a 	jmp	0x15f4	; 0x15f4 <_ZN16trinityRackCV_HW6setDACEhh>

000002c4 <_Z8curveMaphhPj>:
     2c4:	2f 92       	push	r2
     2c6:	3f 92       	push	r3
     2c8:	4f 92       	push	r4
     2ca:	5f 92       	push	r5
     2cc:	6f 92       	push	r6
     2ce:	7f 92       	push	r7
     2d0:	8f 92       	push	r8
     2d2:	9f 92       	push	r9
     2d4:	af 92       	push	r10
     2d6:	bf 92       	push	r11
     2d8:	cf 92       	push	r12
     2da:	df 92       	push	r13
     2dc:	ef 92       	push	r14
     2de:	ff 92       	push	r15
     2e0:	0f 93       	push	r16
     2e2:	1f 93       	push	r17
     2e4:	cf 93       	push	r28
     2e6:	df 93       	push	r29
     2e8:	cd b7       	in	r28, 0x3d	; 61
     2ea:	de b7       	in	r29, 0x3e	; 62
     2ec:	27 97       	sbiw	r28, 0x07	; 7
     2ee:	0f b6       	in	r0, 0x3f	; 63
     2f0:	f8 94       	cli
     2f2:	de bf       	out	0x3e, r29	; 62
     2f4:	0f be       	out	0x3f, r0	; 63
     2f6:	cd bf       	out	0x3d, r28	; 61
     2f8:	8f 83       	std	Y+7, r24	; 0x07
     2fa:	86 2f       	mov	r24, r22
     2fc:	da 01       	movw	r26, r20
     2fe:	60 e0       	ldi	r22, 0x00	; 0
     300:	70 e0       	ldi	r23, 0x00	; 0
     302:	41 2c       	mov	r4, r1
     304:	51 2c       	mov	r5, r1
     306:	32 01       	movw	r6, r4
     308:	4a 94       	dec	r4
     30a:	a1 2c       	mov	r10, r1
     30c:	b1 2c       	mov	r11, r1
     30e:	65 01       	movw	r12, r10
     310:	e1 2c       	mov	r14, r1
     312:	f1 2c       	mov	r15, r1
     314:	87 01       	movw	r16, r14
     316:	ea 94       	dec	r14
     318:	20 e0       	ldi	r18, 0x00	; 0
     31a:	30 e0       	ldi	r19, 0x00	; 0
     31c:	a9 01       	movw	r20, r18
     31e:	e8 2f       	mov	r30, r24
     320:	f0 e0       	ldi	r31, 0x00	; 0
     322:	fe 83       	std	Y+6, r31	; 0x06
     324:	ed 83       	std	Y+5, r30	; 0x05
     326:	31 97       	sbiw	r30, 0x01	; 1
     328:	fa 83       	std	Y+2, r31	; 0x02
     32a:	e9 83       	std	Y+1, r30	; 0x01
     32c:	ff 81       	ldd	r31, Y+7	; 0x07
     32e:	2f 2e       	mov	r2, r31
     330:	31 2c       	mov	r3, r1
     332:	8d 81       	ldd	r24, Y+5	; 0x05
     334:	9e 81       	ldd	r25, Y+6	; 0x06
     336:	0a 96       	adiw	r24, 0x0a	; 10
     338:	9c 83       	std	Y+4, r25	; 0x04
     33a:	8b 83       	std	Y+3, r24	; 0x03
     33c:	39 c0       	rjmp	.+114    	; 0x3b0 <_Z8curveMaphhPj+0xec>
     33e:	fb 01       	movw	r30, r22
     340:	ee 0f       	add	r30, r30
     342:	ff 1f       	adc	r31, r31
     344:	ea 0f       	add	r30, r26
     346:	fb 1f       	adc	r31, r27
     348:	80 80       	ld	r8, Z
     34a:	91 80       	ldd	r9, Z+1	; 0x01
     34c:	28 14       	cp	r2, r8
     34e:	39 04       	cpc	r3, r9
     350:	68 f1       	brcs	.+90     	; 0x3ac <_Z8curveMaphhPj+0xe8>
     352:	fb 01       	movw	r30, r22
     354:	31 96       	adiw	r30, 0x01	; 1
     356:	ee 0f       	add	r30, r30
     358:	ff 1f       	adc	r31, r31
     35a:	ea 0f       	add	r30, r26
     35c:	fb 1f       	adc	r31, r27
     35e:	01 90       	ld	r0, Z+
     360:	f0 81       	ld	r31, Z
     362:	e0 2d       	mov	r30, r0
     364:	e2 15       	cp	r30, r2
     366:	f3 05       	cpc	r31, r3
     368:	08 f1       	brcs	.+66     	; 0x3ac <_Z8curveMaphhPj+0xe8>
     36a:	7f 01       	movw	r14, r30
     36c:	00 e0       	ldi	r16, 0x00	; 0
     36e:	10 e0       	ldi	r17, 0x00	; 0
     370:	94 01       	movw	r18, r8
     372:	40 e0       	ldi	r20, 0x00	; 0
     374:	50 e0       	ldi	r21, 0x00	; 0
     376:	8d 81       	ldd	r24, Y+5	; 0x05
     378:	9e 81       	ldd	r25, Y+6	; 0x06
     37a:	86 0f       	add	r24, r22
     37c:	97 1f       	adc	r25, r23
     37e:	bc 01       	movw	r22, r24
     380:	6f 5f       	subi	r22, 0xFF	; 255
     382:	7f 4f       	sbci	r23, 0xFF	; 255
     384:	66 0f       	add	r22, r22
     386:	77 1f       	adc	r23, r23
     388:	6a 0f       	add	r22, r26
     38a:	7b 1f       	adc	r23, r27
     38c:	fb 01       	movw	r30, r22
     38e:	40 80       	ld	r4, Z
     390:	51 80       	ldd	r5, Z+1	; 0x01
     392:	61 2c       	mov	r6, r1
     394:	71 2c       	mov	r7, r1
     396:	fc 01       	movw	r30, r24
     398:	ee 0f       	add	r30, r30
     39a:	ff 1f       	adc	r31, r31
     39c:	ea 0f       	add	r30, r26
     39e:	fb 1f       	adc	r31, r27
     3a0:	a0 80       	ld	r10, Z
     3a2:	b1 80       	ldd	r11, Z+1	; 0x01
     3a4:	c1 2c       	mov	r12, r1
     3a6:	d1 2c       	mov	r13, r1
     3a8:	6b 81       	ldd	r22, Y+3	; 0x03
     3aa:	7c 81       	ldd	r23, Y+4	; 0x04
     3ac:	6f 5f       	subi	r22, 0xFF	; 255
     3ae:	7f 4f       	sbci	r23, 0xFF	; 255
     3b0:	89 81       	ldd	r24, Y+1	; 0x01
     3b2:	9a 81       	ldd	r25, Y+2	; 0x02
     3b4:	68 17       	cp	r22, r24
     3b6:	79 07       	cpc	r23, r25
     3b8:	14 f2       	brlt	.-124    	; 0x33e <_Z8curveMaphhPj+0x7a>
     3ba:	ef 81       	ldd	r30, Y+7	; 0x07
     3bc:	6e 2f       	mov	r22, r30
     3be:	70 e0       	ldi	r23, 0x00	; 0
     3c0:	80 e0       	ldi	r24, 0x00	; 0
     3c2:	90 e0       	ldi	r25, 0x00	; 0
     3c4:	7f 92       	push	r7
     3c6:	6f 92       	push	r6
     3c8:	5f 92       	push	r5
     3ca:	4f 92       	push	r4
     3cc:	0e 94 a3 15 	call	0x2b46	; 0x2b46 <_Z3maplllll>
     3d0:	0f 90       	pop	r0
     3d2:	0f 90       	pop	r0
     3d4:	0f 90       	pop	r0
     3d6:	0f 90       	pop	r0
     3d8:	27 96       	adiw	r28, 0x07	; 7
     3da:	0f b6       	in	r0, 0x3f	; 63
     3dc:	f8 94       	cli
     3de:	de bf       	out	0x3e, r29	; 62
     3e0:	0f be       	out	0x3f, r0	; 63
     3e2:	cd bf       	out	0x3d, r28	; 61
     3e4:	df 91       	pop	r29
     3e6:	cf 91       	pop	r28
     3e8:	1f 91       	pop	r17
     3ea:	0f 91       	pop	r16
     3ec:	ff 90       	pop	r15
     3ee:	ef 90       	pop	r14
     3f0:	df 90       	pop	r13
     3f2:	cf 90       	pop	r12
     3f4:	bf 90       	pop	r11
     3f6:	af 90       	pop	r10
     3f8:	9f 90       	pop	r9
     3fa:	8f 90       	pop	r8
     3fc:	7f 90       	pop	r7
     3fe:	6f 90       	pop	r6
     400:	5f 90       	pop	r5
     402:	4f 90       	pop	r4
     404:	3f 90       	pop	r3
     406:	2f 90       	pop	r2
     408:	08 95       	ret

0000040a <_Z17reflectModeChangeh>:
     40a:	90 e0       	ldi	r25, 0x00	; 0
     40c:	fc 01       	movw	r30, r24
     40e:	e8 53       	subi	r30, 0x38	; 56
     410:	fe 4f       	sbci	r31, 0xFE	; 254
     412:	20 81       	ld	r18, Z
     414:	25 30       	cpi	r18, 0x05	; 5
     416:	79 f0       	breq	.+30     	; 0x436 <_Z17reflectModeChangeh+0x2c>
     418:	26 30       	cpi	r18, 0x06	; 6
     41a:	69 f0       	breq	.+26     	; 0x436 <_Z17reflectModeChangeh+0x2c>
     41c:	24 30       	cpi	r18, 0x04	; 4
     41e:	a1 f4       	brne	.+40     	; 0x448 <_Z17reflectModeChangeh+0x3e>
     420:	23 e5       	ldi	r18, 0x53	; 83
     422:	28 9f       	mul	r18, r24
     424:	f0 01       	movw	r30, r0
     426:	29 9f       	mul	r18, r25
     428:	f0 0d       	add	r31, r0
     42a:	11 24       	eor	r1, r1
     42c:	e3 5b       	subi	r30, 0xB3	; 179
     42e:	fb 4f       	sbci	r31, 0xFB	; 251
     430:	81 e0       	ldi	r24, 0x01	; 1
     432:	82 83       	std	Z+2, r24	; 0x02
     434:	08 95       	ret
     436:	23 e5       	ldi	r18, 0x53	; 83
     438:	28 9f       	mul	r18, r24
     43a:	f0 01       	movw	r30, r0
     43c:	29 9f       	mul	r18, r25
     43e:	f0 0d       	add	r31, r0
     440:	11 24       	eor	r1, r1
     442:	e3 5b       	subi	r30, 0xB3	; 179
     444:	fb 4f       	sbci	r31, 0xFB	; 251
     446:	12 82       	std	Z+2, r1	; 0x02
     448:	08 95       	ret

0000044a <_Z15channelModeCallhh>:
     44a:	e8 2f       	mov	r30, r24
     44c:	f0 e0       	ldi	r31, 0x00	; 0
     44e:	e8 53       	subi	r30, 0x38	; 56
     450:	fe 4f       	sbci	r31, 0xFE	; 254
     452:	60 83       	st	Z, r22
     454:	da cf       	rjmp	.-76     	; 0x40a <_Z17reflectModeChangeh>

00000456 <_Z18reflectValueChangehh>:
     456:	3f 92       	push	r3
     458:	4f 92       	push	r4
     45a:	5f 92       	push	r5
     45c:	6f 92       	push	r6
     45e:	7f 92       	push	r7
     460:	8f 92       	push	r8
     462:	9f 92       	push	r9
     464:	af 92       	push	r10
     466:	bf 92       	push	r11
     468:	cf 92       	push	r12
     46a:	df 92       	push	r13
     46c:	ef 92       	push	r14
     46e:	ff 92       	push	r15
     470:	0f 93       	push	r16
     472:	1f 93       	push	r17
     474:	cf 93       	push	r28
     476:	df 93       	push	r29
     478:	d8 2f       	mov	r29, r24
     47a:	f6 2e       	mov	r15, r22
     47c:	88 2e       	mov	r8, r24
     47e:	91 2c       	mov	r9, r1
     480:	f4 01       	movw	r30, r8
     482:	e8 53       	subi	r30, 0x38	; 56
     484:	fe 4f       	sbci	r31, 0xFE	; 254
     486:	80 81       	ld	r24, Z
     488:	85 30       	cpi	r24, 0x05	; 5
     48a:	e9 f0       	breq	.+58     	; 0x4c6 <_Z18reflectValueChangehh+0x70>
     48c:	86 30       	cpi	r24, 0x06	; 6
     48e:	09 f4       	brne	.+2      	; 0x492 <_Z18reflectValueChangehh+0x3c>
     490:	b7 c1       	rjmp	.+878    	; 0x800 <_Z18reflectValueChangehh+0x3aa>
     492:	84 30       	cpi	r24, 0x04	; 4
     494:	09 f0       	breq	.+2      	; 0x498 <_Z18reflectValueChangehh+0x42>
     496:	3a c3       	rjmp	.+1652   	; 0xb0c <__stack+0x20d>
     498:	83 e5       	ldi	r24, 0x53	; 83
     49a:	88 9d       	mul	r24, r8
     49c:	f0 01       	movw	r30, r0
     49e:	89 9d       	mul	r24, r9
     4a0:	f0 0d       	add	r31, r0
     4a2:	11 24       	eor	r1, r1
     4a4:	e3 5b       	subi	r30, 0xB3	; 179
     4a6:	fb 4f       	sbci	r31, 0xFB	; 251
     4a8:	81 e0       	ldi	r24, 0x01	; 1
     4aa:	82 83       	std	Z+2, r24	; 0x02
     4ac:	eb 5b       	subi	r30, 0xBB	; 187
     4ae:	ff 4f       	sbci	r31, 0xFF	; 255
     4b0:	d4 01       	movw	r26, r8
     4b2:	aa 0f       	add	r26, r26
     4b4:	bb 1f       	adc	r27, r27
     4b6:	aa 0f       	add	r26, r26
     4b8:	bb 1f       	adc	r27, r27
     4ba:	a0 55       	subi	r26, 0x50	; 80
     4bc:	be 4f       	sbci	r27, 0xFE	; 254
     4be:	11 96       	adiw	r26, 0x01	; 1
     4c0:	8c 91       	ld	r24, X
     4c2:	80 83       	st	Z, r24
     4c4:	23 c3       	rjmp	.+1606   	; 0xb0c <__stack+0x20d>
     4c6:	24 01       	movw	r4, r8
     4c8:	44 0c       	add	r4, r4
     4ca:	55 1c       	adc	r5, r5
     4cc:	44 0c       	add	r4, r4
     4ce:	55 1c       	adc	r5, r5
     4d0:	f2 01       	movw	r30, r4
     4d2:	e0 55       	subi	r30, 0x50	; 80
     4d4:	fe 4f       	sbci	r31, 0xFE	; 254
     4d6:	c0 81       	ld	r28, Z
     4d8:	31 80       	ldd	r3, Z+1	; 0x01
     4da:	12 81       	ldd	r17, Z+2	; 0x02
     4dc:	83 e5       	ldi	r24, 0x53	; 83
     4de:	88 9d       	mul	r24, r8
     4e0:	30 01       	movw	r6, r0
     4e2:	89 9d       	mul	r24, r9
     4e4:	70 0c       	add	r7, r0
     4e6:	11 24       	eor	r1, r1
     4e8:	8d e4       	ldi	r24, 0x4D	; 77
     4ea:	94 e0       	ldi	r25, 0x04	; 4
     4ec:	68 0e       	add	r6, r24
     4ee:	79 1e       	adc	r7, r25
     4f0:	d3 01       	movw	r26, r6
     4f2:	12 96       	adiw	r26, 0x02	; 2
     4f4:	1c 92       	st	X, r1
     4f6:	83 81       	ldd	r24, Z+3	; 0x03
     4f8:	84 ff       	sbrs	r24, 4
     4fa:	06 c0       	rjmp	.+12     	; 0x508 <_Z18reflectValueChangehh+0xb2>
     4fc:	6d 2f       	mov	r22, r29
     4fe:	8f e3       	ldi	r24, 0x3F	; 63
     500:	96 e0       	ldi	r25, 0x06	; 6
     502:	0e 94 ff 0a 	call	0x15fe	; 0x15fe <_ZN16trinityRackCV_HW10getCVValueEh>
     506:	c8 0f       	add	r28, r24
     508:	f2 01       	movw	r30, r4
     50a:	e0 55       	subi	r30, 0x50	; 80
     50c:	fe 4f       	sbci	r31, 0xFE	; 254
     50e:	83 81       	ldd	r24, Z+3	; 0x03
     510:	86 ff       	sbrs	r24, 6
     512:	06 c0       	rjmp	.+12     	; 0x520 <_Z18reflectValueChangehh+0xca>
     514:	6d 2f       	mov	r22, r29
     516:	8f e3       	ldi	r24, 0x3F	; 63
     518:	96 e0       	ldi	r25, 0x06	; 6
     51a:	0e 94 ff 0a 	call	0x15fe	; 0x15fe <_ZN16trinityRackCV_HW10getCVValueEh>
     51e:	18 0f       	add	r17, r24
     520:	f2 01       	movw	r30, r4
     522:	e0 55       	subi	r30, 0x50	; 80
     524:	fe 4f       	sbci	r31, 0xFE	; 254
     526:	83 81       	ldd	r24, Z+3	; 0x03
     528:	83 fb       	bst	r24, 3
     52a:	88 27       	eor	r24, r24
     52c:	80 f9       	bld	r24, 0
     52e:	f4 01       	movw	r30, r8
     530:	e2 50       	subi	r30, 0x02	; 2
     532:	fe 4f       	sbci	r31, 0xFE	; 254
     534:	80 83       	st	Z, r24
     536:	88 23       	and	r24, r24
     538:	09 f4       	brne	.+2      	; 0x53c <_Z18reflectValueChangehh+0xe6>
     53a:	83 c0       	rjmp	.+262    	; 0x642 <_Z18reflectValueChangehh+0x1ec>
     53c:	8c 2f       	mov	r24, r28
     53e:	90 e0       	ldi	r25, 0x00	; 0
     540:	54 e0       	ldi	r21, 0x04	; 4
     542:	95 95       	asr	r25
     544:	87 95       	ror	r24
     546:	5a 95       	dec	r21
     548:	e1 f7       	brne	.-8      	; 0x542 <_Z18reflectValueChangehh+0xec>
     54a:	4f e0       	ldi	r20, 0x0F	; 15
     54c:	50 e0       	ldi	r21, 0x00	; 0
     54e:	48 1b       	sub	r20, r24
     550:	59 0b       	sbc	r21, r25
     552:	fa 01       	movw	r30, r20
     554:	ee 0f       	add	r30, r30
     556:	ff 1f       	adc	r31, r31
     558:	e2 5d       	subi	r30, 0xD2	; 210
     55a:	fe 4f       	sbci	r31, 0xFE	; 254
     55c:	20 81       	ld	r18, Z
     55e:	31 81       	ldd	r19, Z+1	; 0x01
     560:	f4 01       	movw	r30, r8
     562:	ee 0f       	add	r30, r30
     564:	ff 1f       	adc	r31, r31
     566:	ee 50       	subi	r30, 0x0E	; 14
     568:	fe 4f       	sbci	r31, 0xFE	; 254
     56a:	31 83       	std	Z+1, r19	; 0x01
     56c:	20 83       	st	Z, r18
     56e:	f4 01       	movw	r30, r8
     570:	e4 51       	subi	r30, 0x14	; 20
     572:	fe 4f       	sbci	r31, 0xFE	; 254
     574:	44 30       	cpi	r20, 0x04	; 4
     576:	51 05       	cpc	r21, r1
     578:	1c f4       	brge	.+6      	; 0x580 <_Z18reflectValueChangehh+0x12a>
     57a:	81 e0       	ldi	r24, 0x01	; 1
     57c:	80 83       	st	Z, r24
     57e:	01 c0       	rjmp	.+2      	; 0x582 <_Z18reflectValueChangehh+0x12c>
     580:	10 82       	st	Z, r1
     582:	80 81       	ld	r24, Z
     584:	88 23       	and	r24, r24
     586:	81 f1       	breq	.+96     	; 0x5e8 <_Z18reflectValueChangehh+0x192>
     588:	40 e0       	ldi	r20, 0x00	; 0
     58a:	50 e0       	ldi	r21, 0x00	; 0
     58c:	60 91 ac 01 	lds	r22, 0x01AC
     590:	70 91 ad 01 	lds	r23, 0x01AD
     594:	80 91 ae 01 	lds	r24, 0x01AE
     598:	90 91 af 01 	lds	r25, 0x01AF
     59c:	0e 94 d4 1a 	call	0x35a8	; 0x35a8 <__udivmodsi4>
     5a0:	6a e1       	ldi	r22, 0x1A	; 26
     5a2:	68 9d       	mul	r22, r8
     5a4:	c0 01       	movw	r24, r0
     5a6:	69 9d       	mul	r22, r9
     5a8:	90 0d       	add	r25, r0
     5aa:	11 24       	eor	r1, r1
     5ac:	b9 01       	movw	r22, r18
     5ae:	8f 5c       	subi	r24, 0xCF	; 207
     5b0:	9d 4f       	sbci	r25, 0xFD	; 253
     5b2:	0e 94 ba 10 	call	0x2174	; 0x2174 <_ZN11lfoExtended23setBastlCyclesPerPeriodEj>
     5b6:	e3 01       	movw	r28, r6
     5b8:	c8 5b       	subi	r28, 0xB8	; 184
     5ba:	df 4f       	sbci	r29, 0xFF	; 255
     5bc:	f4 01       	movw	r30, r8
     5be:	ee 0f       	add	r30, r30
     5c0:	ff 1f       	adc	r31, r31
     5c2:	ee 50       	subi	r30, 0x0E	; 14
     5c4:	fe 4f       	sbci	r31, 0xFE	; 254
     5c6:	20 81       	ld	r18, Z
     5c8:	31 81       	ldd	r19, Z+1	; 0x01
     5ca:	40 e0       	ldi	r20, 0x00	; 0
     5cc:	50 e0       	ldi	r21, 0x00	; 0
     5ce:	60 91 ac 01 	lds	r22, 0x01AC
     5d2:	70 91 ad 01 	lds	r23, 0x01AD
     5d6:	80 91 ae 01 	lds	r24, 0x01AE
     5da:	90 91 af 01 	lds	r25, 0x01AF
     5de:	0e 94 d4 1a 	call	0x35a8	; 0x35a8 <__udivmodsi4>
     5e2:	39 83       	std	Y+1, r19	; 0x01
     5e4:	28 83       	st	Y, r18
     5e6:	48 c0       	rjmp	.+144    	; 0x678 <_Z18reflectValueChangehh+0x222>
     5e8:	80 91 ac 01 	lds	r24, 0x01AC
     5ec:	90 91 ad 01 	lds	r25, 0x01AD
     5f0:	28 9f       	mul	r18, r24
     5f2:	b0 01       	movw	r22, r0
     5f4:	29 9f       	mul	r18, r25
     5f6:	70 0d       	add	r23, r0
     5f8:	38 9f       	mul	r19, r24
     5fa:	70 0d       	add	r23, r0
     5fc:	11 24       	eor	r1, r1
     5fe:	2a e1       	ldi	r18, 0x1A	; 26
     600:	28 9d       	mul	r18, r8
     602:	c0 01       	movw	r24, r0
     604:	29 9d       	mul	r18, r9
     606:	90 0d       	add	r25, r0
     608:	11 24       	eor	r1, r1
     60a:	8f 5c       	subi	r24, 0xCF	; 207
     60c:	9d 4f       	sbci	r25, 0xFD	; 253
     60e:	0e 94 ba 10 	call	0x2174	; 0x2174 <_ZN11lfoExtended23setBastlCyclesPerPeriodEj>
     612:	d3 01       	movw	r26, r6
     614:	a8 5b       	subi	r26, 0xB8	; 184
     616:	bf 4f       	sbci	r27, 0xFF	; 255
     618:	f4 01       	movw	r30, r8
     61a:	ee 0f       	add	r30, r30
     61c:	ff 1f       	adc	r31, r31
     61e:	ee 50       	subi	r30, 0x0E	; 14
     620:	fe 4f       	sbci	r31, 0xFE	; 254
     622:	40 81       	ld	r20, Z
     624:	51 81       	ldd	r21, Z+1	; 0x01
     626:	20 91 ac 01 	lds	r18, 0x01AC
     62a:	30 91 ad 01 	lds	r19, 0x01AD
     62e:	42 9f       	mul	r20, r18
     630:	c0 01       	movw	r24, r0
     632:	43 9f       	mul	r20, r19
     634:	90 0d       	add	r25, r0
     636:	52 9f       	mul	r21, r18
     638:	90 0d       	add	r25, r0
     63a:	11 24       	eor	r1, r1
     63c:	8d 93       	st	X+, r24
     63e:	9c 93       	st	X, r25
     640:	1b c0       	rjmp	.+54     	; 0x678 <_Z18reflectValueChangehh+0x222>
     642:	c0 95       	com	r28
     644:	48 e1       	ldi	r20, 0x18	; 24
     646:	51 e0       	ldi	r21, 0x01	; 1
     648:	65 e0       	ldi	r22, 0x05	; 5
     64a:	8c 2f       	mov	r24, r28
     64c:	3b de       	rcall	.-906    	; 0x2c4 <_Z8curveMaphhPj>
     64e:	4a e1       	ldi	r20, 0x1A	; 26
     650:	48 9d       	mul	r20, r8
     652:	90 01       	movw	r18, r0
     654:	49 9d       	mul	r20, r9
     656:	30 0d       	add	r19, r0
     658:	11 24       	eor	r1, r1
     65a:	c9 01       	movw	r24, r18
     65c:	8f 5c       	subi	r24, 0xCF	; 207
     65e:	9d 4f       	sbci	r25, 0xFD	; 253
     660:	0e 94 ba 10 	call	0x2174	; 0x2174 <_ZN11lfoExtended23setBastlCyclesPerPeriodEj>
     664:	48 e1       	ldi	r20, 0x18	; 24
     666:	51 e0       	ldi	r21, 0x01	; 1
     668:	65 e0       	ldi	r22, 0x05	; 5
     66a:	8c 2f       	mov	r24, r28
     66c:	2b de       	rcall	.-938    	; 0x2c4 <_Z8curveMaphhPj>
     66e:	f3 01       	movw	r30, r6
     670:	e8 5b       	subi	r30, 0xB8	; 184
     672:	ff 4f       	sbci	r31, 0xFF	; 255
     674:	71 83       	std	Z+1, r23	; 0x01
     676:	60 83       	st	Z, r22
     678:	f3 01       	movw	r30, r6
     67a:	ea 5b       	subi	r30, 0xBA	; 186
     67c:	ff 4f       	sbci	r31, 0xFF	; 255
     67e:	30 82       	st	Z, r3
     680:	11 82       	std	Z+1, r1	; 0x01
     682:	8a e1       	ldi	r24, 0x1A	; 26
     684:	88 9d       	mul	r24, r8
     686:	e0 01       	movw	r28, r0
     688:	89 9d       	mul	r24, r9
     68a:	d0 0d       	add	r29, r0
     68c:	11 24       	eor	r1, r1
     68e:	cf 5c       	subi	r28, 0xCF	; 207
     690:	dd 4f       	sbci	r29, 0xFD	; 253
     692:	6f ef       	ldi	r22, 0xFF	; 255
     694:	ce 01       	movw	r24, r28
     696:	0e 94 e2 10 	call	0x21c4	; 0x21c4 <_ZN11lfoExtended13setResolutionEh>
     69a:	ff 20       	and	r15, r15
     69c:	09 f4       	brne	.+2      	; 0x6a0 <_Z18reflectValueChangehh+0x24a>
     69e:	36 c2       	rjmp	.+1132   	; 0xb0c <__stack+0x20d>
     6a0:	61 2f       	mov	r22, r17
     6a2:	70 e0       	ldi	r23, 0x00	; 0
     6a4:	80 e0       	ldi	r24, 0x00	; 0
     6a6:	90 e0       	ldi	r25, 0x00	; 0
     6a8:	1f 92       	push	r1
     6aa:	1f 92       	push	r1
     6ac:	1f 92       	push	r1
     6ae:	27 e0       	ldi	r18, 0x07	; 7
     6b0:	2f 93       	push	r18
     6b2:	a1 2c       	mov	r10, r1
     6b4:	b1 2c       	mov	r11, r1
     6b6:	65 01       	movw	r12, r10
     6b8:	e1 2c       	mov	r14, r1
     6ba:	f1 2c       	mov	r15, r1
     6bc:	87 01       	movw	r16, r14
     6be:	ea 94       	dec	r14
     6c0:	20 e0       	ldi	r18, 0x00	; 0
     6c2:	30 e0       	ldi	r19, 0x00	; 0
     6c4:	a9 01       	movw	r20, r18
     6c6:	0e 94 a3 15 	call	0x2b46	; 0x2b46 <_Z3maplllll>
     6ca:	0f 90       	pop	r0
     6cc:	0f 90       	pop	r0
     6ce:	0f 90       	pop	r0
     6d0:	0f 90       	pop	r0
     6d2:	63 30       	cpi	r22, 0x03	; 3
     6d4:	71 05       	cpc	r23, r1
     6d6:	81 05       	cpc	r24, r1
     6d8:	91 05       	cpc	r25, r1
     6da:	09 f4       	brne	.+2      	; 0x6de <_Z18reflectValueChangehh+0x288>
     6dc:	67 c0       	rjmp	.+206    	; 0x7ac <_Z18reflectValueChangehh+0x356>
     6de:	5c f4       	brge	.+22     	; 0x6f6 <_Z18reflectValueChangehh+0x2a0>
     6e0:	61 30       	cpi	r22, 0x01	; 1
     6e2:	71 05       	cpc	r23, r1
     6e4:	81 05       	cpc	r24, r1
     6e6:	91 05       	cpc	r25, r1
     6e8:	c1 f0       	breq	.+48     	; 0x71a <_Z18reflectValueChangehh+0x2c4>
     6ea:	7c f5       	brge	.+94     	; 0x74a <_Z18reflectValueChangehh+0x2f4>
     6ec:	67 2b       	or	r22, r23
     6ee:	68 2b       	or	r22, r24
     6f0:	69 2b       	or	r22, r25
     6f2:	81 f0       	breq	.+32     	; 0x714 <_Z18reflectValueChangehh+0x2be>
     6f4:	0b c2       	rjmp	.+1046   	; 0xb0c <__stack+0x20d>
     6f6:	65 30       	cpi	r22, 0x05	; 5
     6f8:	71 05       	cpc	r23, r1
     6fa:	81 05       	cpc	r24, r1
     6fc:	91 05       	cpc	r25, r1
     6fe:	09 f4       	brne	.+2      	; 0x702 <_Z18reflectValueChangehh+0x2ac>
     700:	5f c0       	rjmp	.+190    	; 0x7c0 <_Z18reflectValueChangehh+0x36a>
     702:	0c f4       	brge	.+2      	; 0x706 <_Z18reflectValueChangehh+0x2b0>
     704:	5a c0       	rjmp	.+180    	; 0x7ba <_Z18reflectValueChangehh+0x364>
     706:	66 30       	cpi	r22, 0x06	; 6
     708:	71 05       	cpc	r23, r1
     70a:	81 05       	cpc	r24, r1
     70c:	91 05       	cpc	r25, r1
     70e:	09 f0       	breq	.+2      	; 0x712 <_Z18reflectValueChangehh+0x2bc>
     710:	fd c1       	rjmp	.+1018   	; 0xb0c <__stack+0x20d>
     712:	5d c0       	rjmp	.+186    	; 0x7ce <_Z18reflectValueChangehh+0x378>
     714:	60 e0       	ldi	r22, 0x00	; 0
     716:	70 e0       	ldi	r23, 0x00	; 0
     718:	02 c0       	rjmp	.+4      	; 0x71e <_Z18reflectValueChangehh+0x2c8>
     71a:	61 e0       	ldi	r22, 0x01	; 1
     71c:	70 e0       	ldi	r23, 0x00	; 0
     71e:	ce 01       	movw	r24, r28
     720:	0e 94 d8 10 	call	0x21b0	; 0x21b0 <_ZN11lfoExtended11setWaveformE16LFOBasicWaveform>
     724:	60 e0       	ldi	r22, 0x00	; 0
     726:	ce 01       	movw	r24, r28
     728:	0e 94 df 10 	call	0x21be	; 0x21be <_ZN11lfoExtended7setFlopEh>
     72c:	63 2d       	mov	r22, r3
     72e:	ce 01       	movw	r24, r28
     730:	0e 94 dc 10 	call	0x21b8	; 0x21b8 <_ZN11lfoExtended6setXOREh>
     734:	6f ef       	ldi	r22, 0xFF	; 255
     736:	ce 01       	movw	r24, r28
     738:	0e 94 e2 10 	call	0x21c4	; 0x21c4 <_ZN11lfoExtended13setResolutionEh>
     73c:	10 92 a6 01 	sts	0x01A6, r1
     740:	f4 01       	movw	r30, r8
     742:	e0 56       	subi	r30, 0x60	; 96
     744:	fe 4f       	sbci	r31, 0xFE	; 254
     746:	10 82       	st	Z, r1
     748:	e1 c1       	rjmp	.+962    	; 0xb0c <__stack+0x20d>
     74a:	60 e0       	ldi	r22, 0x00	; 0
     74c:	70 e0       	ldi	r23, 0x00	; 0
     74e:	ce 01       	movw	r24, r28
     750:	0e 94 d8 10 	call	0x21b0	; 0x21b0 <_ZN11lfoExtended11setWaveformE16LFOBasicWaveform>
     754:	60 e0       	ldi	r22, 0x00	; 0
     756:	ce 01       	movw	r24, r28
     758:	0e 94 df 10 	call	0x21be	; 0x21be <_ZN11lfoExtended7setFlopEh>
     75c:	83 2d       	mov	r24, r3
     75e:	90 e0       	ldi	r25, 0x00	; 0
     760:	b4 e0       	ldi	r27, 0x04	; 4
     762:	95 95       	asr	r25
     764:	87 95       	ror	r24
     766:	ba 95       	dec	r27
     768:	e1 f7       	brne	.-8      	; 0x762 <_Z18reflectValueChangehh+0x30c>
     76a:	28 2f       	mov	r18, r24
     76c:	88 30       	cpi	r24, 0x08	; 8
     76e:	68 f0       	brcs	.+26     	; 0x78a <_Z18reflectValueChangehh+0x334>
     770:	88 e0       	ldi	r24, 0x08	; 8
     772:	82 1b       	sub	r24, r18
     774:	61 e0       	ldi	r22, 0x01	; 1
     776:	70 e0       	ldi	r23, 0x00	; 0
     778:	01 c0       	rjmp	.+2      	; 0x77c <_Z18reflectValueChangehh+0x326>
     77a:	66 0f       	add	r22, r22
     77c:	8a 95       	dec	r24
     77e:	ea f7       	brpl	.-6      	; 0x77a <_Z18reflectValueChangehh+0x324>
     780:	ce 01       	movw	r24, r28
     782:	0e 94 e2 10 	call	0x21c4	; 0x21c4 <_ZN11lfoExtended13setResolutionEh>
     786:	60 e0       	ldi	r22, 0x00	; 0
     788:	0a c0       	rjmp	.+20     	; 0x79e <_Z18reflectValueChangehh+0x348>
     78a:	61 e0       	ldi	r22, 0x01	; 1
     78c:	70 e0       	ldi	r23, 0x00	; 0
     78e:	01 c0       	rjmp	.+2      	; 0x792 <_Z18reflectValueChangehh+0x33c>
     790:	66 0f       	add	r22, r22
     792:	8a 95       	dec	r24
     794:	ea f7       	brpl	.-6      	; 0x790 <_Z18reflectValueChangehh+0x33a>
     796:	ce 01       	movw	r24, r28
     798:	0e 94 e2 10 	call	0x21c4	; 0x21c4 <_ZN11lfoExtended13setResolutionEh>
     79c:	6f ef       	ldi	r22, 0xFF	; 255
     79e:	ce 01       	movw	r24, r28
     7a0:	0e 94 dc 10 	call	0x21b8	; 0x21b8 <_ZN11lfoExtended6setXOREh>
     7a4:	81 e0       	ldi	r24, 0x01	; 1
     7a6:	80 93 a6 01 	sts	0x01A6, r24
     7aa:	ca cf       	rjmp	.-108    	; 0x740 <_Z18reflectValueChangehh+0x2ea>
     7ac:	60 e0       	ldi	r22, 0x00	; 0
     7ae:	70 e0       	ldi	r23, 0x00	; 0
     7b0:	ce 01       	movw	r24, r28
     7b2:	0e 94 d8 10 	call	0x21b0	; 0x21b0 <_ZN11lfoExtended11setWaveformE16LFOBasicWaveform>
     7b6:	61 e1       	ldi	r22, 0x11	; 17
     7b8:	b6 cf       	rjmp	.-148    	; 0x726 <_Z18reflectValueChangehh+0x2d0>
     7ba:	61 e0       	ldi	r22, 0x01	; 1
     7bc:	70 e0       	ldi	r23, 0x00	; 0
     7be:	02 c0       	rjmp	.+4      	; 0x7c4 <_Z18reflectValueChangehh+0x36e>
     7c0:	60 e0       	ldi	r22, 0x00	; 0
     7c2:	70 e0       	ldi	r23, 0x00	; 0
     7c4:	ce 01       	movw	r24, r28
     7c6:	0e 94 d8 10 	call	0x21b0	; 0x21b0 <_ZN11lfoExtended11setWaveformE16LFOBasicWaveform>
     7ca:	60 e1       	ldi	r22, 0x10	; 16
     7cc:	ac cf       	rjmp	.-168    	; 0x726 <_Z18reflectValueChangehh+0x2d0>
     7ce:	f2 01       	movw	r30, r4
     7d0:	e0 55       	subi	r30, 0x50	; 80
     7d2:	fe 4f       	sbci	r31, 0xFE	; 254
     7d4:	82 81       	ldd	r24, Z+2	; 0x02
     7d6:	8e 3f       	cpi	r24, 0xFE	; 254
     7d8:	20 f0       	brcs	.+8      	; 0x7e2 <_Z18reflectValueChangehh+0x38c>
     7da:	81 e0       	ldi	r24, 0x01	; 1
     7dc:	f3 01       	movw	r30, r6
     7de:	80 83       	st	Z, r24
     7e0:	02 c0       	rjmp	.+4      	; 0x7e6 <_Z18reflectValueChangehh+0x390>
     7e2:	d3 01       	movw	r26, r6
     7e4:	1c 92       	st	X, r1
     7e6:	62 e0       	ldi	r22, 0x02	; 2
     7e8:	70 e0       	ldi	r23, 0x00	; 0
     7ea:	ce 01       	movw	r24, r28
     7ec:	0e 94 d8 10 	call	0x21b0	; 0x21b0 <_ZN11lfoExtended11setWaveformE16LFOBasicWaveform>
     7f0:	f4 01       	movw	r30, r8
     7f2:	e0 56       	subi	r30, 0x60	; 96
     7f4:	fe 4f       	sbci	r31, 0xFE	; 254
     7f6:	81 e0       	ldi	r24, 0x01	; 1
     7f8:	80 83       	st	Z, r24
     7fa:	10 92 a6 01 	sts	0x01A6, r1
     7fe:	86 c1       	rjmp	.+780    	; 0xb0c <__stack+0x20d>
     800:	83 e5       	ldi	r24, 0x53	; 83
     802:	88 9d       	mul	r24, r8
     804:	f0 01       	movw	r30, r0
     806:	89 9d       	mul	r24, r9
     808:	f0 0d       	add	r31, r0
     80a:	11 24       	eor	r1, r1
     80c:	e3 5b       	subi	r30, 0xB3	; 179
     80e:	fb 4f       	sbci	r31, 0xFB	; 251
     810:	12 82       	std	Z+2, r1	; 0x02
     812:	84 01       	movw	r16, r8
     814:	00 0f       	add	r16, r16
     816:	11 1f       	adc	r17, r17
     818:	00 0f       	add	r16, r16
     81a:	11 1f       	adc	r17, r17
     81c:	f8 01       	movw	r30, r16
     81e:	e0 55       	subi	r30, 0x50	; 80
     820:	fe 4f       	sbci	r31, 0xFE	; 254
     822:	83 81       	ldd	r24, Z+3	; 0x03
     824:	f4 01       	movw	r30, r8
     826:	e2 50       	subi	r30, 0x02	; 2
     828:	fe 4f       	sbci	r31, 0xFE	; 254
     82a:	83 fb       	bst	r24, 3
     82c:	99 27       	eor	r25, r25
     82e:	90 f9       	bld	r25, 0
     830:	90 83       	st	Z, r25
     832:	e4 01       	movw	r28, r8
     834:	a6 e0       	ldi	r26, 0x06	; 6
     836:	cc 0f       	add	r28, r28
     838:	dd 1f       	adc	r29, r29
     83a:	aa 95       	dec	r26
     83c:	e1 f7       	brne	.-8      	; 0x836 <_Z18reflectValueChangehh+0x3e0>
     83e:	b3 e0       	ldi	r27, 0x03	; 3
     840:	6b 13       	cpse	r22, r27
     842:	22 c0       	rjmp	.+68     	; 0x888 <_Z18reflectValueChangehh+0x432>
     844:	ed ec       	ldi	r30, 0xCD	; 205
     846:	6e 2e       	mov	r6, r30
     848:	e2 e0       	ldi	r30, 0x02	; 2
     84a:	7e 2e       	mov	r7, r30
     84c:	6c 0e       	add	r6, r28
     84e:	7d 1e       	adc	r7, r29
     850:	81 ff       	sbrs	r24, 1
     852:	0c c0       	rjmp	.+24     	; 0x86c <_Z18reflectValueChangehh+0x416>
     854:	40 e0       	ldi	r20, 0x00	; 0
     856:	50 e0       	ldi	r21, 0x00	; 0
     858:	68 ec       	ldi	r22, 0xC8	; 200
     85a:	72 e4       	ldi	r23, 0x42	; 66
     85c:	c3 01       	movw	r24, r6
     85e:	0e 94 ef 0d 	call	0x1bde	; 0x1bde <_ZN4ADSR15setTargetRatioAEf>
     862:	40 e0       	ldi	r20, 0x00	; 0
     864:	50 e0       	ldi	r21, 0x00	; 0
     866:	68 ec       	ldi	r22, 0xC8	; 200
     868:	72 e4       	ldi	r23, 0x42	; 66
     86a:	0b c0       	rjmp	.+22     	; 0x882 <_Z18reflectValueChangehh+0x42c>
     86c:	40 e0       	ldi	r20, 0x00	; 0
     86e:	50 e0       	ldi	r21, 0x00	; 0
     870:	60 e0       	ldi	r22, 0x00	; 0
     872:	7f e3       	ldi	r23, 0x3F	; 63
     874:	c3 01       	movw	r24, r6
     876:	0e 94 ef 0d 	call	0x1bde	; 0x1bde <_ZN4ADSR15setTargetRatioAEf>
     87a:	4a e0       	ldi	r20, 0x0A	; 10
     87c:	57 ed       	ldi	r21, 0xD7	; 215
     87e:	63 e2       	ldi	r22, 0x23	; 35
     880:	7c e3       	ldi	r23, 0x3C	; 60
     882:	c3 01       	movw	r24, r6
     884:	0e 94 33 0e 	call	0x1c66	; 0x1c66 <_ZN4ADSR16setTargetRatioDREf>
     888:	f4 01       	movw	r30, r8
     88a:	e2 50       	subi	r30, 0x02	; 2
     88c:	fe 4f       	sbci	r31, 0xFE	; 254
     88e:	80 81       	ld	r24, Z
     890:	88 23       	and	r24, r24
     892:	09 f4       	brne	.+2      	; 0x896 <_Z18reflectValueChangehh+0x440>
     894:	c4 c0       	rjmp	.+392    	; 0xa1e <__stack+0x11f>
     896:	f8 01       	movw	r30, r16
     898:	e0 55       	subi	r30, 0x50	; 80
     89a:	fe 4f       	sbci	r31, 0xFE	; 254
     89c:	40 81       	ld	r20, Z
     89e:	84 2e       	mov	r8, r20
     8a0:	91 2c       	mov	r9, r1
     8a2:	64 e0       	ldi	r22, 0x04	; 4
     8a4:	95 94       	asr	r9
     8a6:	87 94       	ror	r8
     8a8:	6a 95       	dec	r22
     8aa:	e1 f7       	brne	.-8      	; 0x8a4 <_Z18reflectValueChangehh+0x44e>
     8ac:	d4 01       	movw	r26, r8
     8ae:	aa 0f       	add	r26, r26
     8b0:	bb 1f       	adc	r27, r27
     8b2:	a2 5d       	subi	r26, 0xD2	; 210
     8b4:	be 4f       	sbci	r27, 0xFE	; 254
     8b6:	4c 90       	ld	r4, X
     8b8:	f1 10       	cpse	r15, r1
     8ba:	18 c0       	rjmp	.+48     	; 0x8ec <_Z18reflectValueChangehh+0x496>
     8bc:	60 91 ac 01 	lds	r22, 0x01AC
     8c0:	70 91 ad 01 	lds	r23, 0x01AD
     8c4:	80 91 ae 01 	lds	r24, 0x01AE
     8c8:	90 91 af 01 	lds	r25, 0x01AF
     8cc:	24 2d       	mov	r18, r4
     8ce:	30 e0       	ldi	r19, 0x00	; 0
     8d0:	40 e0       	ldi	r20, 0x00	; 0
     8d2:	50 e0       	ldi	r21, 0x00	; 0
     8d4:	e3 e0       	ldi	r30, 0x03	; 3
     8d6:	8e 16       	cp	r8, r30
     8d8:	91 04       	cpc	r9, r1
     8da:	2c f4       	brge	.+10     	; 0x8e6 <_Z18reflectValueChangehh+0x490>
     8dc:	0e 94 d4 1a 	call	0x35a8	; 0x35a8 <__udivmodsi4>
     8e0:	ca 01       	movw	r24, r20
     8e2:	b9 01       	movw	r22, r18
     8e4:	d6 c0       	rjmp	.+428    	; 0xa92 <__stack+0x193>
     8e6:	0e 94 92 1a 	call	0x3524	; 0x3524 <__mulsi3>
     8ea:	d3 c0       	rjmp	.+422    	; 0xa92 <__stack+0x193>
     8ec:	22 e0       	ldi	r18, 0x02	; 2
     8ee:	f2 12       	cpse	r15, r18
     8f0:	5e c0       	rjmp	.+188    	; 0x9ae <__stack+0xaf>
     8f2:	82 81       	ldd	r24, Z+2	; 0x02
     8f4:	90 e0       	ldi	r25, 0x00	; 0
     8f6:	44 e0       	ldi	r20, 0x04	; 4
     8f8:	95 95       	asr	r25
     8fa:	87 95       	ror	r24
     8fc:	4a 95       	dec	r20
     8fe:	e1 f7       	brne	.-8      	; 0x8f8 <_Z18reflectValueChangehh+0x4a2>
     900:	ef e0       	ldi	r30, 0x0F	; 15
     902:	f0 e0       	ldi	r31, 0x00	; 0
     904:	e8 1b       	sub	r30, r24
     906:	f9 0b       	sbc	r31, r25
     908:	ee 0f       	add	r30, r30
     90a:	ff 1f       	adc	r31, r31
     90c:	e2 5d       	subi	r30, 0xD2	; 210
     90e:	fe 4f       	sbci	r31, 0xFE	; 254
     910:	40 80       	ld	r4, Z
     912:	60 91 ac 01 	lds	r22, 0x01AC
     916:	70 91 ad 01 	lds	r23, 0x01AD
     91a:	80 91 ae 01 	lds	r24, 0x01AE
     91e:	90 91 af 01 	lds	r25, 0x01AF
     922:	51 2c       	mov	r5, r1
     924:	61 2c       	mov	r6, r1
     926:	71 2c       	mov	r7, r1
     928:	a3 e0       	ldi	r26, 0x03	; 3
     92a:	8a 16       	cp	r8, r26
     92c:	91 04       	cpc	r9, r1
     92e:	14 f5       	brge	.+68     	; 0x974 <__stack+0x75>
     930:	3d ec       	ldi	r19, 0xCD	; 205
     932:	83 2e       	mov	r8, r19
     934:	32 e0       	ldi	r19, 0x02	; 2
     936:	93 2e       	mov	r9, r19
     938:	8c 0e       	add	r8, r28
     93a:	9d 1e       	adc	r9, r29
     93c:	a3 01       	movw	r20, r6
     93e:	92 01       	movw	r18, r4
     940:	0e 94 d4 1a 	call	0x35a8	; 0x35a8 <__udivmodsi4>
     944:	ca 01       	movw	r24, r20
     946:	b9 01       	movw	r22, r18
     948:	0e 94 91 18 	call	0x3122	; 0x3122 <__floatunsisf>
     94c:	ab 01       	movw	r20, r22
     94e:	bc 01       	movw	r22, r24
     950:	c4 01       	movw	r24, r8
     952:	0e 94 b2 0c 	call	0x1964	; 0x1964 <_ZN4ADSR12setDecayRateEf>
     956:	60 91 ac 01 	lds	r22, 0x01AC
     95a:	70 91 ad 01 	lds	r23, 0x01AD
     95e:	80 91 ae 01 	lds	r24, 0x01AE
     962:	90 91 af 01 	lds	r25, 0x01AF
     966:	a3 01       	movw	r20, r6
     968:	92 01       	movw	r18, r4
     96a:	0e 94 d4 1a 	call	0x35a8	; 0x35a8 <__udivmodsi4>
     96e:	ca 01       	movw	r24, r20
     970:	b9 01       	movw	r22, r18
     972:	ba c0       	rjmp	.+372    	; 0xae8 <__stack+0x1e9>
     974:	2d ec       	ldi	r18, 0xCD	; 205
     976:	82 2e       	mov	r8, r18
     978:	22 e0       	ldi	r18, 0x02	; 2
     97a:	92 2e       	mov	r9, r18
     97c:	8c 0e       	add	r8, r28
     97e:	9d 1e       	adc	r9, r29
     980:	a3 01       	movw	r20, r6
     982:	92 01       	movw	r18, r4
     984:	0e 94 92 1a 	call	0x3524	; 0x3524 <__mulsi3>
     988:	0e 94 91 18 	call	0x3122	; 0x3122 <__floatunsisf>
     98c:	ab 01       	movw	r20, r22
     98e:	bc 01       	movw	r22, r24
     990:	c4 01       	movw	r24, r8
     992:	e8 d7       	rcall	.+4048   	; 0x1964 <_ZN4ADSR12setDecayRateEf>
     994:	60 91 ac 01 	lds	r22, 0x01AC
     998:	70 91 ad 01 	lds	r23, 0x01AD
     99c:	80 91 ae 01 	lds	r24, 0x01AE
     9a0:	90 91 af 01 	lds	r25, 0x01AF
     9a4:	a3 01       	movw	r20, r6
     9a6:	92 01       	movw	r18, r4
     9a8:	0e 94 92 1a 	call	0x3524	; 0x3524 <__mulsi3>
     9ac:	9d c0       	rjmp	.+314    	; 0xae8 <__stack+0x1e9>
     9ae:	b1 e0       	ldi	r27, 0x01	; 1
     9b0:	fb 12       	cpse	r15, r27
     9b2:	a0 c0       	rjmp	.+320    	; 0xaf4 <__stack+0x1f5>
     9b4:	a1 81       	ldd	r26, Z+1	; 0x01
     9b6:	b0 e0       	ldi	r27, 0x00	; 0
     9b8:	f4 e0       	ldi	r31, 0x04	; 4
     9ba:	b5 95       	asr	r27
     9bc:	a7 95       	ror	r26
     9be:	fa 95       	dec	r31
     9c0:	e1 f7       	brne	.-8      	; 0x9ba <__stack+0xbb>
     9c2:	ef e0       	ldi	r30, 0x0F	; 15
     9c4:	f0 e0       	ldi	r31, 0x00	; 0
     9c6:	ea 1b       	sub	r30, r26
     9c8:	fb 0b       	sbc	r31, r27
     9ca:	ee 0f       	add	r30, r30
     9cc:	ff 1f       	adc	r31, r31
     9ce:	e2 5d       	subi	r30, 0xD2	; 210
     9d0:	fe 4f       	sbci	r31, 0xFE	; 254
     9d2:	20 81       	ld	r18, Z
     9d4:	60 91 ac 01 	lds	r22, 0x01AC
     9d8:	70 91 ad 01 	lds	r23, 0x01AD
     9dc:	80 91 ae 01 	lds	r24, 0x01AE
     9e0:	90 91 af 01 	lds	r25, 0x01AF
     9e4:	30 e0       	ldi	r19, 0x00	; 0
     9e6:	40 e0       	ldi	r20, 0x00	; 0
     9e8:	50 e0       	ldi	r21, 0x00	; 0
     9ea:	13 97       	sbiw	r26, 0x03	; 3
     9ec:	74 f4       	brge	.+28     	; 0xa0a <__stack+0x10b>
     9ee:	ed ec       	ldi	r30, 0xCD	; 205
     9f0:	8e 2e       	mov	r8, r30
     9f2:	e2 e0       	ldi	r30, 0x02	; 2
     9f4:	9e 2e       	mov	r9, r30
     9f6:	8c 0e       	add	r8, r28
     9f8:	9d 1e       	adc	r9, r29
     9fa:	0e 94 d4 1a 	call	0x35a8	; 0x35a8 <__udivmodsi4>
     9fe:	f4 01       	movw	r30, r8
     a00:	20 87       	std	Z+8, r18	; 0x08
     a02:	31 87       	std	Z+9, r19	; 0x09
     a04:	42 87       	std	Z+10, r20	; 0x0a
     a06:	53 87       	std	Z+11, r21	; 0x0b
     a08:	75 c0       	rjmp	.+234    	; 0xaf4 <__stack+0x1f5>
     a0a:	fe 01       	movw	r30, r28
     a0c:	e3 53       	subi	r30, 0x33	; 51
     a0e:	fd 4f       	sbci	r31, 0xFD	; 253
     a10:	0e 94 92 1a 	call	0x3524	; 0x3524 <__mulsi3>
     a14:	60 87       	std	Z+8, r22	; 0x08
     a16:	71 87       	std	Z+9, r23	; 0x09
     a18:	82 87       	std	Z+10, r24	; 0x0a
     a1a:	93 87       	std	Z+11, r25	; 0x0b
     a1c:	6b c0       	rjmp	.+214    	; 0xaf4 <__stack+0x1f5>
     a1e:	f1 e0       	ldi	r31, 0x01	; 1
     a20:	ff 12       	cpse	r15, r31
     a22:	2d c0       	rjmp	.+90     	; 0xa7e <__stack+0x17f>
     a24:	8d ec       	ldi	r24, 0xCD	; 205
     a26:	88 2e       	mov	r8, r24
     a28:	82 e0       	ldi	r24, 0x02	; 2
     a2a:	98 2e       	mov	r9, r24
     a2c:	8c 0e       	add	r8, r28
     a2e:	9d 1e       	adc	r9, r29
     a30:	90 eb       	ldi	r25, 0xB0	; 176
     a32:	69 2e       	mov	r6, r25
     a34:	91 e0       	ldi	r25, 0x01	; 1
     a36:	79 2e       	mov	r7, r25
     a38:	60 0e       	add	r6, r16
     a3a:	71 1e       	adc	r7, r17
     a3c:	d3 01       	movw	r26, r6
     a3e:	11 96       	adiw	r26, 0x01	; 1
     a40:	6c 91       	ld	r22, X
     a42:	70 e0       	ldi	r23, 0x00	; 0
     a44:	80 e0       	ldi	r24, 0x00	; 0
     a46:	90 e0       	ldi	r25, 0x00	; 0
     a48:	0e 94 91 18 	call	0x3122	; 0x3122 <__floatunsisf>
     a4c:	20 e0       	ldi	r18, 0x00	; 0
     a4e:	30 e0       	ldi	r19, 0x00	; 0
     a50:	4f e7       	ldi	r20, 0x7F	; 127
     a52:	53 e4       	ldi	r21, 0x43	; 67
     a54:	0e 94 c7 17 	call	0x2f8e	; 0x2f8e <__divsf3>
     a58:	ab 01       	movw	r20, r22
     a5a:	bc 01       	movw	r22, r24
     a5c:	c4 01       	movw	r24, r8
     a5e:	0e 94 40 0d 	call	0x1a80	; 0x1a80 <_ZN4ADSR15setSustainLevelEf>
     a62:	44 e0       	ldi	r20, 0x04	; 4
     a64:	51 e0       	ldi	r21, 0x01	; 1
     a66:	65 e0       	ldi	r22, 0x05	; 5
     a68:	f3 01       	movw	r30, r6
     a6a:	81 81       	ldd	r24, Z+1	; 0x01
     a6c:	2b dc       	rcall	.-1962   	; 0x2c4 <_Z8curveMaphhPj>
     a6e:	d4 01       	movw	r26, r8
     a70:	18 96       	adiw	r26, 0x08	; 8
     a72:	6d 93       	st	X+, r22
     a74:	7d 93       	st	X+, r23
     a76:	8d 93       	st	X+, r24
     a78:	9c 93       	st	X, r25
     a7a:	1b 97       	sbiw	r26, 0x0b	; 11
     a7c:	3b c0       	rjmp	.+118    	; 0xaf4 <__stack+0x1f5>
     a7e:	f1 10       	cpse	r15, r1
     a80:	11 c0       	rjmp	.+34     	; 0xaa4 <__stack+0x1a5>
     a82:	f8 01       	movw	r30, r16
     a84:	e0 55       	subi	r30, 0x50	; 80
     a86:	fe 4f       	sbci	r31, 0xFE	; 254
     a88:	44 e0       	ldi	r20, 0x04	; 4
     a8a:	51 e0       	ldi	r21, 0x01	; 1
     a8c:	65 e0       	ldi	r22, 0x05	; 5
     a8e:	80 81       	ld	r24, Z
     a90:	19 dc       	rcall	.-1998   	; 0x2c4 <_Z8curveMaphhPj>
     a92:	0e 94 91 18 	call	0x3122	; 0x3122 <__floatunsisf>
     a96:	ab 01       	movw	r20, r22
     a98:	bc 01       	movw	r22, r24
     a9a:	ce 01       	movw	r24, r28
     a9c:	83 53       	subi	r24, 0x33	; 51
     a9e:	9d 4f       	sbci	r25, 0xFD	; 253
     aa0:	a8 d7       	rcall	.+3920   	; 0x19f2 <_ZN4ADSR13setAttackRateEf>
     aa2:	28 c0       	rjmp	.+80     	; 0xaf4 <__stack+0x1f5>
     aa4:	b2 e0       	ldi	r27, 0x02	; 2
     aa6:	fb 12       	cpse	r15, r27
     aa8:	25 c0       	rjmp	.+74     	; 0xaf4 <__stack+0x1f5>
     aaa:	a0 eb       	ldi	r26, 0xB0	; 176
     aac:	6a 2e       	mov	r6, r26
     aae:	a1 e0       	ldi	r26, 0x01	; 1
     ab0:	7a 2e       	mov	r7, r26
     ab2:	60 0e       	add	r6, r16
     ab4:	71 1e       	adc	r7, r17
     ab6:	44 e0       	ldi	r20, 0x04	; 4
     ab8:	51 e0       	ldi	r21, 0x01	; 1
     aba:	65 e0       	ldi	r22, 0x05	; 5
     abc:	f3 01       	movw	r30, r6
     abe:	82 81       	ldd	r24, Z+2	; 0x02
     ac0:	01 dc       	rcall	.-2046   	; 0x2c4 <_Z8curveMaphhPj>
     ac2:	bd ec       	ldi	r27, 0xCD	; 205
     ac4:	8b 2e       	mov	r8, r27
     ac6:	b2 e0       	ldi	r27, 0x02	; 2
     ac8:	9b 2e       	mov	r9, r27
     aca:	8c 0e       	add	r8, r28
     acc:	9d 1e       	adc	r9, r29
     ace:	0e 94 91 18 	call	0x3122	; 0x3122 <__floatunsisf>
     ad2:	ab 01       	movw	r20, r22
     ad4:	bc 01       	movw	r22, r24
     ad6:	c4 01       	movw	r24, r8
     ad8:	45 d7       	rcall	.+3722   	; 0x1964 <_ZN4ADSR12setDecayRateEf>
     ada:	44 e0       	ldi	r20, 0x04	; 4
     adc:	51 e0       	ldi	r21, 0x01	; 1
     ade:	65 e0       	ldi	r22, 0x05	; 5
     ae0:	d3 01       	movw	r26, r6
     ae2:	12 96       	adiw	r26, 0x02	; 2
     ae4:	8c 91       	ld	r24, X
     ae6:	ee db       	rcall	.-2084   	; 0x2c4 <_Z8curveMaphhPj>
     ae8:	0e 94 91 18 	call	0x3122	; 0x3122 <__floatunsisf>
     aec:	ab 01       	movw	r20, r22
     aee:	bc 01       	movw	r22, r24
     af0:	c4 01       	movw	r24, r8
     af2:	01 d7       	rcall	.+3586   	; 0x18f6 <_ZN4ADSR14setReleaseRateEf>
     af4:	f8 01       	movw	r30, r16
     af6:	e0 55       	subi	r30, 0x50	; 80
     af8:	fe 4f       	sbci	r31, 0xFE	; 254
     afa:	83 81       	ldd	r24, Z+3	; 0x03
     afc:	c3 53       	subi	r28, 0x33	; 51
     afe:	dd 4f       	sbci	r29, 0xFD	; 253
     b00:	80 ff       	sbrs	r24, 0
     b02:	03 c0       	rjmp	.+6      	; 0xb0a <__stack+0x20b>
     b04:	81 e0       	ldi	r24, 0x01	; 1
     b06:	88 83       	st	Y, r24
     b08:	01 c0       	rjmp	.+2      	; 0xb0c <__stack+0x20d>
     b0a:	18 82       	st	Y, r1
     b0c:	df 91       	pop	r29
     b0e:	cf 91       	pop	r28
     b10:	1f 91       	pop	r17
     b12:	0f 91       	pop	r16
     b14:	ff 90       	pop	r15
     b16:	ef 90       	pop	r14
     b18:	df 90       	pop	r13
     b1a:	cf 90       	pop	r12
     b1c:	bf 90       	pop	r11
     b1e:	af 90       	pop	r10
     b20:	9f 90       	pop	r9
     b22:	8f 90       	pop	r8
     b24:	7f 90       	pop	r7
     b26:	6f 90       	pop	r6
     b28:	5f 90       	pop	r5
     b2a:	4f 90       	pop	r4
     b2c:	3f 90       	pop	r3
     b2e:	08 95       	ret

00000b30 <_Z11clockInCallv>:
     b30:	df 92       	push	r13
     b32:	ef 92       	push	r14
     b34:	ff 92       	push	r15
     b36:	0f 93       	push	r16
     b38:	1f 93       	push	r17
     b3a:	cf 93       	push	r28
     b3c:	df 93       	push	r29
     b3e:	80 91 41 06 	lds	r24, 0x0641
     b42:	90 91 42 06 	lds	r25, 0x0642
     b46:	a0 91 43 06 	lds	r26, 0x0643
     b4a:	b0 91 44 06 	lds	r27, 0x0644
     b4e:	40 91 a8 01 	lds	r20, 0x01A8
     b52:	50 91 a9 01 	lds	r21, 0x01A9
     b56:	60 91 aa 01 	lds	r22, 0x01AA
     b5a:	70 91 ab 01 	lds	r23, 0x01AB
     b5e:	8c 01       	movw	r16, r24
     b60:	9d 01       	movw	r18, r26
     b62:	04 1b       	sub	r16, r20
     b64:	15 0b       	sbc	r17, r21
     b66:	26 0b       	sbc	r18, r22
     b68:	37 0b       	sbc	r19, r23
     b6a:	00 93 ac 01 	sts	0x01AC, r16
     b6e:	10 93 ad 01 	sts	0x01AD, r17
     b72:	20 93 ae 01 	sts	0x01AE, r18
     b76:	30 93 af 01 	sts	0x01AF, r19
     b7a:	80 93 a8 01 	sts	0x01A8, r24
     b7e:	90 93 a9 01 	sts	0x01A9, r25
     b82:	a0 93 aa 01 	sts	0x01AA, r26
     b86:	b0 93 ab 01 	sts	0x01AB, r27
     b8a:	80 91 a7 01 	lds	r24, 0x01A7
     b8e:	8f 31       	cpi	r24, 0x1F	; 31
     b90:	20 f4       	brcc	.+8      	; 0xb9a <_Z11clockInCallv+0x6a>
     b92:	8f 5f       	subi	r24, 0xFF	; 255
     b94:	80 93 a7 01 	sts	0x01A7, r24
     b98:	02 c0       	rjmp	.+4      	; 0xb9e <_Z11clockInCallv+0x6e>
     b9a:	10 92 a7 01 	sts	0x01A7, r1
     b9e:	80 91 92 01 	lds	r24, 0x0192
     ba2:	90 91 93 01 	lds	r25, 0x0193
     ba6:	8f 3f       	cpi	r24, 0xFF	; 255
     ba8:	91 05       	cpc	r25, r1
     baa:	09 f0       	breq	.+2      	; 0xbae <_Z11clockInCallv+0x7e>
     bac:	30 f4       	brcc	.+12     	; 0xbba <_Z11clockInCallv+0x8a>
     bae:	01 96       	adiw	r24, 0x01	; 1
     bb0:	90 93 93 01 	sts	0x0193, r25
     bb4:	80 93 92 01 	sts	0x0192, r24
     bb8:	04 c0       	rjmp	.+8      	; 0xbc2 <_Z11clockInCallv+0x92>
     bba:	10 92 93 01 	sts	0x0193, r1
     bbe:	10 92 92 01 	sts	0x0192, r1
     bc2:	e0 91 04 02 	lds	r30, 0x0204
     bc6:	f0 e0       	ldi	r31, 0x00	; 0
     bc8:	e8 53       	subi	r30, 0x38	; 56
     bca:	fe 4f       	sbci	r31, 0xFE	; 254
     bcc:	80 81       	ld	r24, Z
     bce:	84 30       	cpi	r24, 0x04	; 4
     bd0:	31 f4       	brne	.+12     	; 0xbde <_Z11clockInCallv+0xae>
     bd2:	60 91 a7 01 	lds	r22, 0x01A7
     bd6:	8f e0       	ldi	r24, 0x0F	; 15
     bd8:	92 e0       	ldi	r25, 0x02	; 2
     bda:	0e 94 d6 11 	call	0x23ac	; 0x23ac <_ZN19simpleSerialDecoder8sendStepEh>
     bde:	02 ef       	ldi	r16, 0xF2	; 242
     be0:	11 e0       	ldi	r17, 0x01	; 1
     be2:	38 ec       	ldi	r19, 0xC8	; 200
     be4:	e3 2e       	mov	r14, r19
     be6:	31 e0       	ldi	r19, 0x01	; 1
     be8:	f3 2e       	mov	r15, r19
     bea:	c0 e0       	ldi	r28, 0x00	; 0
     bec:	d0 e0       	ldi	r29, 0x00	; 0
     bee:	43 e5       	ldi	r20, 0x53	; 83
     bf0:	d4 2e       	mov	r13, r20
     bf2:	80 91 04 02 	lds	r24, 0x0204
     bf6:	90 e0       	ldi	r25, 0x00	; 0
     bf8:	8c 17       	cp	r24, r28
     bfa:	9d 07       	cpc	r25, r29
     bfc:	d1 f4       	brne	.+52     	; 0xc32 <_Z11clockInCallv+0x102>
     bfe:	fe 01       	movw	r30, r28
     c00:	e8 53       	subi	r30, 0x38	; 56
     c02:	fe 4f       	sbci	r31, 0xFE	; 254
     c04:	80 81       	ld	r24, Z
     c06:	84 30       	cpi	r24, 0x04	; 4
     c08:	a1 f0       	breq	.+40     	; 0xc32 <_Z11clockInCallv+0x102>
     c0a:	fe 01       	movw	r30, r28
     c0c:	e2 50       	subi	r30, 0x02	; 2
     c0e:	fe 4f       	sbci	r31, 0xFE	; 254
     c10:	80 81       	ld	r24, Z
     c12:	88 23       	and	r24, r24
     c14:	71 f0       	breq	.+28     	; 0xc32 <_Z11clockInCallv+0x102>
     c16:	80 91 92 01 	lds	r24, 0x0192
     c1a:	90 91 93 01 	lds	r25, 0x0193
     c1e:	83 70       	andi	r24, 0x03	; 3
     c20:	99 27       	eor	r25, r25
     c22:	89 2b       	or	r24, r25
     c24:	31 f4       	brne	.+12     	; 0xc32 <_Z11clockInCallv+0x102>
     c26:	60 91 a7 01 	lds	r22, 0x01A7
     c2a:	8f e0       	ldi	r24, 0x0F	; 15
     c2c:	92 e0       	ldi	r25, 0x02	; 2
     c2e:	0e 94 d6 11 	call	0x23ac	; 0x23ac <_ZN19simpleSerialDecoder8sendStepEh>
     c32:	f7 01       	movw	r30, r14
     c34:	81 91       	ld	r24, Z+
     c36:	7f 01       	movw	r14, r30
     c38:	84 30       	cpi	r24, 0x04	; 4
     c3a:	a9 f4       	brne	.+42     	; 0xc66 <_Z11clockInCallv+0x136>
     c3c:	dc 9e       	mul	r13, r28
     c3e:	c0 01       	movw	r24, r0
     c40:	dd 9e       	mul	r13, r29
     c42:	90 0d       	add	r25, r0
     c44:	11 24       	eor	r1, r1
     c46:	83 5b       	subi	r24, 0xB3	; 179
     c48:	9b 4f       	sbci	r25, 0xFB	; 251
     c4a:	fc 01       	movw	r30, r24
     c4c:	e8 5b       	subi	r30, 0xB8	; 184
     c4e:	ff 4f       	sbci	r31, 0xFF	; 255
     c50:	20 91 ac 01 	lds	r18, 0x01AC
     c54:	30 91 ad 01 	lds	r19, 0x01AD
     c58:	31 83       	std	Z+1, r19	; 0x01
     c5a:	20 83       	st	Z, r18
     c5c:	60 91 a7 01 	lds	r22, 0x01A7
     c60:	0e 94 9b 0e 	call	0x1d36	; 0x1d36 <_ZN19interpolatingBuffer7setStepEh>
     c64:	2c c0       	rjmp	.+88     	; 0xcbe <_Z11clockInCallv+0x18e>
     c66:	fe 01       	movw	r30, r28
     c68:	e2 50       	subi	r30, 0x02	; 2
     c6a:	fe 4f       	sbci	r31, 0xFE	; 254
     c6c:	80 81       	ld	r24, Z
     c6e:	88 23       	and	r24, r24
     c70:	31 f1       	breq	.+76     	; 0xcbe <_Z11clockInCallv+0x18e>
     c72:	fe 01       	movw	r30, r28
     c74:	e4 51       	subi	r30, 0x14	; 20
     c76:	fe 4f       	sbci	r31, 0xFE	; 254
     c78:	80 81       	ld	r24, Z
     c7a:	81 11       	cpse	r24, r1
     c7c:	0b c0       	rjmp	.+22     	; 0xc94 <_Z11clockInCallv+0x164>
     c7e:	80 91 92 01 	lds	r24, 0x0192
     c82:	90 91 93 01 	lds	r25, 0x0193
     c86:	f8 01       	movw	r30, r16
     c88:	60 81       	ld	r22, Z
     c8a:	71 81       	ldd	r23, Z+1	; 0x01
     c8c:	0e 94 ad 1a 	call	0x355a	; 0x355a <__udivmodhi4>
     c90:	89 2b       	or	r24, r25
     c92:	a9 f4       	brne	.+42     	; 0xcbe <_Z11clockInCallv+0x18e>
     c94:	dc 9e       	mul	r13, r28
     c96:	c0 01       	movw	r24, r0
     c98:	dd 9e       	mul	r13, r29
     c9a:	90 0d       	add	r25, r0
     c9c:	11 24       	eor	r1, r1
     c9e:	83 5b       	subi	r24, 0xB3	; 179
     ca0:	9b 4f       	sbci	r25, 0xFB	; 251
     ca2:	0e 94 9a 0e 	call	0x1d34	; 0x1d34 <_ZN19interpolatingBuffer4syncEv>
     ca6:	ce 01       	movw	r24, r28
     ca8:	26 e0       	ldi	r18, 0x06	; 6
     caa:	88 0f       	add	r24, r24
     cac:	99 1f       	adc	r25, r25
     cae:	2a 95       	dec	r18
     cb0:	e1 f7       	brne	.-8      	; 0xcaa <_Z11clockInCallv+0x17a>
     cb2:	83 53       	subi	r24, 0x33	; 51
     cb4:	9d 4f       	sbci	r25, 0xFD	; 253
     cb6:	f1 d5       	rcall	.+3042   	; 0x189a <_ZN4ADSR4syncEv>
     cb8:	60 e0       	ldi	r22, 0x00	; 0
     cba:	8c 2f       	mov	r24, r28
     cbc:	cc db       	rcall	.-2152   	; 0x456 <_Z18reflectValueChangehh>
     cbe:	21 96       	adiw	r28, 0x01	; 1
     cc0:	0e 5f       	subi	r16, 0xFE	; 254
     cc2:	1f 4f       	sbci	r17, 0xFF	; 255
     cc4:	c6 30       	cpi	r28, 0x06	; 6
     cc6:	d1 05       	cpc	r29, r1
     cc8:	09 f0       	breq	.+2      	; 0xccc <_Z11clockInCallv+0x19c>
     cca:	93 cf       	rjmp	.-218    	; 0xbf2 <_Z11clockInCallv+0xc2>
     ccc:	df 91       	pop	r29
     cce:	cf 91       	pop	r28
     cd0:	1f 91       	pop	r17
     cd2:	0f 91       	pop	r16
     cd4:	ff 90       	pop	r15
     cd6:	ef 90       	pop	r14
     cd8:	df 90       	pop	r13
     cda:	08 95       	ret

00000cdc <_Z16channelValueCallhhh>:
     cdc:	94 e0       	ldi	r25, 0x04	; 4
     cde:	89 9f       	mul	r24, r25
     ce0:	f0 01       	movw	r30, r0
     ce2:	11 24       	eor	r1, r1
     ce4:	e6 0f       	add	r30, r22
     ce6:	f1 1d       	adc	r31, r1
     ce8:	e0 55       	subi	r30, 0x50	; 80
     cea:	fe 4f       	sbci	r31, 0xFE	; 254
     cec:	40 83       	st	Z, r20
     cee:	b3 cb       	rjmp	.-2202   	; 0x456 <_Z18reflectValueChangehh>

00000cf0 <setup>:
     cf0:	ef 92       	push	r14
     cf2:	ff 92       	push	r15
     cf4:	0f 93       	push	r16
     cf6:	1f 93       	push	r17
     cf8:	cf 93       	push	r28
     cfa:	df 93       	push	r29
     cfc:	60 e0       	ldi	r22, 0x00	; 0
     cfe:	76 e9       	ldi	r23, 0x96	; 150
     d00:	8f e0       	ldi	r24, 0x0F	; 15
     d02:	92 e0       	ldi	r25, 0x02	; 2
     d04:	0e 94 d0 11 	call	0x23a0	; 0x23a0 <_ZN19simpleSerialDecoder4initEj>
     d08:	6a ec       	ldi	r22, 0xCA	; 202
     d0a:	70 e0       	ldi	r23, 0x00	; 0
     d0c:	8f e0       	ldi	r24, 0x0F	; 15
     d0e:	92 e0       	ldi	r25, 0x02	; 2
     d10:	0e 94 b5 12 	call	0x256a	; 0x256a <_ZN19simpleSerialDecoder19attachClockCallbackEPFvhE>
     d14:	6b ec       	ldi	r22, 0xCB	; 203
     d16:	70 e0       	ldi	r23, 0x00	; 0
     d18:	8f e0       	ldi	r24, 0x0F	; 15
     d1a:	92 e0       	ldi	r25, 0x02	; 2
     d1c:	0e 94 b9 12 	call	0x2572	; 0x2572 <_ZN19simpleSerialDecoder18attachStepCallbackEPFvhE>
     d20:	6c ec       	ldi	r22, 0xCC	; 204
     d22:	70 e0       	ldi	r23, 0x00	; 0
     d24:	8f e0       	ldi	r24, 0x0F	; 15
     d26:	92 e0       	ldi	r25, 0x02	; 2
     d28:	0e 94 bd 12 	call	0x257a	; 0x257a <_ZN19simpleSerialDecoder18attachGateCallbackEPFvhE>
     d2c:	6b e2       	ldi	r22, 0x2B	; 43
     d2e:	71 e0       	ldi	r23, 0x01	; 1
     d30:	8f e0       	ldi	r24, 0x0F	; 15
     d32:	92 e0       	ldi	r25, 0x02	; 2
     d34:	0e 94 c1 12 	call	0x2582	; 0x2582 <_ZN19simpleSerialDecoder21attachTriggerCallbackEPFvhE>
     d38:	6d ec       	ldi	r22, 0xCD	; 205
     d3a:	70 e0       	ldi	r23, 0x00	; 0
     d3c:	8f e0       	ldi	r24, 0x0F	; 15
     d3e:	92 e0       	ldi	r25, 0x02	; 2
     d40:	0e 94 c5 12 	call	0x258a	; 0x258a <_ZN19simpleSerialDecoder19attachStartCallbackEPFvhE>
     d44:	6e ec       	ldi	r22, 0xCE	; 206
     d46:	70 e0       	ldi	r23, 0x00	; 0
     d48:	8f e0       	ldi	r24, 0x0F	; 15
     d4a:	92 e0       	ldi	r25, 0x02	; 2
     d4c:	0e 94 c9 12 	call	0x2592	; 0x2592 <_ZN19simpleSerialDecoder18attachStopCallbackEPFvhE>
     d50:	6f ec       	ldi	r22, 0xCF	; 207
     d52:	70 e0       	ldi	r23, 0x00	; 0
     d54:	8f e0       	ldi	r24, 0x0F	; 15
     d56:	92 e0       	ldi	r25, 0x02	; 2
     d58:	0e 94 cd 12 	call	0x259a	; 0x259a <_ZN19simpleSerialDecoder21attachRestartCallbackEPFvhE>
     d5c:	60 e5       	ldi	r22, 0x50	; 80
     d5e:	71 e0       	ldi	r23, 0x01	; 1
     d60:	8f e0       	ldi	r24, 0x0F	; 15
     d62:	92 e0       	ldi	r25, 0x02	; 2
     d64:	0e 94 d1 12 	call	0x25a2	; 0x25a2 <_ZN19simpleSerialDecoder20attachSelectCallbackEPFvhE>
     d68:	60 ed       	ldi	r22, 0xD0	; 208
     d6a:	70 e0       	ldi	r23, 0x00	; 0
     d6c:	8f e0       	ldi	r24, 0x0F	; 15
     d6e:	92 e0       	ldi	r25, 0x02	; 2
     d70:	0e 94 d5 12 	call	0x25aa	; 0x25aa <_ZN19simpleSerialDecoder28attachChannelTriggerCallbackEPFvhhE>
     d74:	68 e5       	ldi	r22, 0x58	; 88
     d76:	71 e0       	ldi	r23, 0x01	; 1
     d78:	8f e0       	ldi	r24, 0x0F	; 15
     d7a:	92 e0       	ldi	r25, 0x02	; 2
     d7c:	0e 94 d9 12 	call	0x25b2	; 0x25b2 <_ZN19simpleSerialDecoder25attachChannelGateCallbackEPFvhhE>
     d80:	6c ef       	ldi	r22, 0xFC	; 252
     d82:	70 e0       	ldi	r23, 0x00	; 0
     d84:	8f e0       	ldi	r24, 0x0F	; 15
     d86:	92 e0       	ldi	r25, 0x02	; 2
     d88:	0e 94 dd 12 	call	0x25ba	; 0x25ba <_ZN19simpleSerialDecoder23attachChannelCVCallbackEPFvhhE>
     d8c:	61 ed       	ldi	r22, 0xD1	; 209
     d8e:	70 e0       	ldi	r23, 0x00	; 0
     d90:	8f e0       	ldi	r24, 0x0F	; 15
     d92:	92 e0       	ldi	r25, 0x02	; 2
     d94:	0e 94 e1 12 	call	0x25c2	; 0x25c2 <_ZN19simpleSerialDecoder36attachChannelInterpolateFromCallbackEPFvhhE>
     d98:	6b ed       	ldi	r22, 0xDB	; 219
     d9a:	70 e0       	ldi	r23, 0x00	; 0
     d9c:	8f e0       	ldi	r24, 0x0F	; 15
     d9e:	92 e0       	ldi	r25, 0x02	; 2
     da0:	0e 94 e5 12 	call	0x25ca	; 0x25ca <_ZN19simpleSerialDecoder34attachChannelInterpolateToCallbackEPFvhhE>
     da4:	62 e0       	ldi	r22, 0x02	; 2
     da6:	71 e0       	ldi	r23, 0x01	; 1
     da8:	8f e0       	ldi	r24, 0x0F	; 15
     daa:	92 e0       	ldi	r25, 0x02	; 2
     dac:	0e 94 e9 12 	call	0x25d2	; 0x25d2 <_ZN19simpleSerialDecoder32attachChannelInterpolateCallbackEPFvhhE>
     db0:	65 e2       	ldi	r22, 0x25	; 37
     db2:	72 e0       	ldi	r23, 0x02	; 2
     db4:	8f e0       	ldi	r24, 0x0F	; 15
     db6:	92 e0       	ldi	r25, 0x02	; 2
     db8:	0e 94 ed 12 	call	0x25da	; 0x25da <_ZN19simpleSerialDecoder25attachChannelModeCallbackEPFvhhE>
     dbc:	6e e6       	ldi	r22, 0x6E	; 110
     dbe:	76 e0       	ldi	r23, 0x06	; 6
     dc0:	8f e0       	ldi	r24, 0x0F	; 15
     dc2:	92 e0       	ldi	r25, 0x02	; 2
     dc4:	0e 94 f1 12 	call	0x25e2	; 0x25e2 <_ZN19simpleSerialDecoder26attachChannelValueCallbackEPFvhhhE>
     dc8:	68 e9       	ldi	r22, 0x98	; 152
     dca:	75 e0       	ldi	r23, 0x05	; 5
     dcc:	8f e3       	ldi	r24, 0x3F	; 63
     dce:	96 e0       	ldi	r25, 0x06	; 6
     dd0:	c2 d4       	rcall	.+2436   	; 0x1756 <_ZN16trinityRackCV_HW4initEPFvvE>
     dd2:	00 e0       	ldi	r16, 0x00	; 0
     dd4:	10 e0       	ldi	r17, 0x00	; 0
     dd6:	6a e1       	ldi	r22, 0x1A	; 26
     dd8:	e6 2e       	mov	r14, r22
     dda:	73 e5       	ldi	r23, 0x53	; 83
     ddc:	f7 2e       	mov	r15, r23
     dde:	e8 01       	movw	r28, r16
     de0:	56 e0       	ldi	r21, 0x06	; 6
     de2:	cc 0f       	add	r28, r28
     de4:	dd 1f       	adc	r29, r29
     de6:	5a 95       	dec	r21
     de8:	e1 f7       	brne	.-8      	; 0xde2 <setup+0xf2>
     dea:	c3 53       	subi	r28, 0x33	; 51
     dec:	dd 4f       	sbci	r29, 0xFD	; 253
     dee:	40 e0       	ldi	r20, 0x00	; 0
     df0:	50 e0       	ldi	r21, 0x00	; 0
     df2:	6a e7       	ldi	r22, 0x7A	; 122
     df4:	74 e4       	ldi	r23, 0x44	; 68
     df6:	ce 01       	movw	r24, r28
     df8:	fc d5       	rcall	.+3064   	; 0x19f2 <_ZN4ADSR13setAttackRateEf>
     dfa:	40 e0       	ldi	r20, 0x00	; 0
     dfc:	50 e0       	ldi	r21, 0x00	; 0
     dfe:	6a ef       	ldi	r22, 0xFA	; 250
     e00:	74 e4       	ldi	r23, 0x44	; 68
     e02:	ce 01       	movw	r24, r28
     e04:	af d5       	rcall	.+2910   	; 0x1964 <_ZN4ADSR12setDecayRateEf>
     e06:	40 e0       	ldi	r20, 0x00	; 0
     e08:	50 e8       	ldi	r21, 0x80	; 128
     e0a:	6b e3       	ldi	r22, 0x3B	; 59
     e0c:	75 e4       	ldi	r23, 0x45	; 69
     e0e:	ce 01       	movw	r24, r28
     e10:	72 d5       	rcall	.+2788   	; 0x18f6 <_ZN4ADSR14setReleaseRateEf>
     e12:	40 e0       	ldi	r20, 0x00	; 0
     e14:	50 e0       	ldi	r21, 0x00	; 0
     e16:	60 e0       	ldi	r22, 0x00	; 0
     e18:	7f e3       	ldi	r23, 0x3F	; 63
     e1a:	ce 01       	movw	r24, r28
     e1c:	31 d6       	rcall	.+3170   	; 0x1a80 <_ZN4ADSR15setSustainLevelEf>
     e1e:	40 e0       	ldi	r20, 0x00	; 0
     e20:	50 e0       	ldi	r21, 0x00	; 0
     e22:	60 e0       	ldi	r22, 0x00	; 0
     e24:	7f e3       	ldi	r23, 0x3F	; 63
     e26:	ce 01       	movw	r24, r28
     e28:	da d6       	rcall	.+3508   	; 0x1bde <_ZN4ADSR15setTargetRatioAEf>
     e2a:	4a e0       	ldi	r20, 0x0A	; 10
     e2c:	57 ed       	ldi	r21, 0xD7	; 215
     e2e:	63 e2       	ldi	r22, 0x23	; 35
     e30:	7c e3       	ldi	r23, 0x3C	; 60
     e32:	ce 01       	movw	r24, r28
     e34:	18 d7       	rcall	.+3632   	; 0x1c66 <_ZN4ADSR16setTargetRatioDREf>
     e36:	e0 9e       	mul	r14, r16
     e38:	e0 01       	movw	r28, r0
     e3a:	e1 9e       	mul	r14, r17
     e3c:	d0 0d       	add	r29, r0
     e3e:	11 24       	eor	r1, r1
     e40:	cf 5c       	subi	r28, 0xCF	; 207
     e42:	dd 4f       	sbci	r29, 0xFD	; 253
     e44:	68 ee       	ldi	r22, 0xE8	; 232
     e46:	73 e0       	ldi	r23, 0x03	; 3
     e48:	ce 01       	movw	r24, r28
     e4a:	0e 94 a2 10 	call	0x2144	; 0x2144 <_ZN11lfoExtended4initEj>
     e4e:	64 ef       	ldi	r22, 0xF4	; 244
     e50:	71 e0       	ldi	r23, 0x01	; 1
     e52:	ce 01       	movw	r24, r28
     e54:	0e 94 ba 10 	call	0x2174	; 0x2174 <_ZN11lfoExtended23setBastlCyclesPerPeriodEj>
     e58:	f0 9e       	mul	r15, r16
     e5a:	c0 01       	movw	r24, r0
     e5c:	f1 9e       	mul	r15, r17
     e5e:	90 0d       	add	r25, r0
     e60:	11 24       	eor	r1, r1
     e62:	60 2f       	mov	r22, r16
     e64:	83 5b       	subi	r24, 0xB3	; 179
     e66:	9b 4f       	sbci	r25, 0xFB	; 251
     e68:	62 d7       	rcall	.+3780   	; 0x1d2e <_ZN19interpolatingBuffer4initEh>
     e6a:	0f 5f       	subi	r16, 0xFF	; 255
     e6c:	1f 4f       	sbci	r17, 0xFF	; 255
     e6e:	06 30       	cpi	r16, 0x06	; 6
     e70:	11 05       	cpc	r17, r1
     e72:	09 f0       	breq	.+2      	; 0xe76 <setup+0x186>
     e74:	b4 cf       	rjmp	.-152    	; 0xdde <setup+0xee>
     e76:	80 91 41 06 	lds	r24, 0x0641
     e7a:	90 91 42 06 	lds	r25, 0x0642
     e7e:	a0 91 43 06 	lds	r26, 0x0643
     e82:	b0 91 44 06 	lds	r27, 0x0644
     e86:	80 93 05 02 	sts	0x0205, r24
     e8a:	90 93 06 02 	sts	0x0206, r25
     e8e:	a0 93 07 02 	sts	0x0207, r26
     e92:	b0 93 08 02 	sts	0x0208, r27
     e96:	df 91       	pop	r29
     e98:	cf 91       	pop	r28
     e9a:	1f 91       	pop	r17
     e9c:	0f 91       	pop	r16
     e9e:	ff 90       	pop	r15
     ea0:	ef 90       	pop	r14
     ea2:	08 95       	ret

00000ea4 <_Z12renderOutputv>:
     ea4:	2f 92       	push	r2
     ea6:	3f 92       	push	r3
     ea8:	4f 92       	push	r4
     eaa:	5f 92       	push	r5
     eac:	6f 92       	push	r6
     eae:	7f 92       	push	r7
     eb0:	8f 92       	push	r8
     eb2:	9f 92       	push	r9
     eb4:	af 92       	push	r10
     eb6:	bf 92       	push	r11
     eb8:	cf 92       	push	r12
     eba:	df 92       	push	r13
     ebc:	ef 92       	push	r14
     ebe:	ff 92       	push	r15
     ec0:	0f 93       	push	r16
     ec2:	1f 93       	push	r17
     ec4:	cf 93       	push	r28
     ec6:	df 93       	push	r29
     ec8:	cd b7       	in	r28, 0x3d	; 61
     eca:	de b7       	in	r29, 0x3e	; 62
     ecc:	2b 97       	sbiw	r28, 0x0b	; 11
     ece:	0f b6       	in	r0, 0x3f	; 63
     ed0:	f8 94       	cli
     ed2:	de bf       	out	0x3e, r29	; 62
     ed4:	0f be       	out	0x3f, r0	; 63
     ed6:	cd bf       	out	0x3d, r28	; 61
     ed8:	88 ec       	ldi	r24, 0xC8	; 200
     eda:	91 e0       	ldi	r25, 0x01	; 1
     edc:	9f 83       	std	Y+7, r25	; 0x07
     ede:	8e 83       	std	Y+6, r24	; 0x06
     ee0:	e6 ee       	ldi	r30, 0xE6	; 230
     ee2:	f1 e0       	ldi	r31, 0x01	; 1
     ee4:	fa 83       	std	Y+2, r31	; 0x02
     ee6:	e9 83       	std	Y+1, r30	; 0x01
     ee8:	f9 e0       	ldi	r31, 0x09	; 9
     eea:	ef 2e       	mov	r14, r31
     eec:	f2 e0       	ldi	r31, 0x02	; 2
     eee:	ff 2e       	mov	r15, r31
     ef0:	a3 eb       	ldi	r26, 0xB3	; 179
     ef2:	ca 2e       	mov	r12, r26
     ef4:	a1 e0       	ldi	r26, 0x01	; 1
     ef6:	da 2e       	mov	r13, r26
     ef8:	b0 e6       	ldi	r27, 0x60	; 96
     efa:	6b 2e       	mov	r6, r27
     efc:	b6 e0       	ldi	r27, 0x06	; 6
     efe:	7b 2e       	mov	r7, r27
     f00:	8e ec       	ldi	r24, 0xCE	; 206
     f02:	91 e0       	ldi	r25, 0x01	; 1
     f04:	9c 83       	std	Y+4, r25	; 0x04
     f06:	8b 83       	std	Y+3, r24	; 0x03
     f08:	00 e0       	ldi	r16, 0x00	; 0
     f0a:	10 e0       	ldi	r17, 0x00	; 0
     f0c:	1d 82       	std	Y+5, r1	; 0x05
     f0e:	21 2c       	mov	r2, r1
     f10:	31 2c       	mov	r3, r1
     f12:	80 e8       	ldi	r24, 0x80	; 128
     f14:	48 2e       	mov	r4, r24
     f16:	8f e3       	ldi	r24, 0x3F	; 63
     f18:	58 2e       	mov	r5, r24
     f1a:	ee 81       	ldd	r30, Y+6	; 0x06
     f1c:	ff 81       	ldd	r31, Y+7	; 0x07
     f1e:	21 91       	ld	r18, Z+
     f20:	ff 83       	std	Y+7, r31	; 0x07
     f22:	ee 83       	std	Y+6, r30	; 0x06
     f24:	24 30       	cpi	r18, 0x04	; 4
     f26:	09 f4       	brne	.+2      	; 0xf2a <_Z12renderOutputv+0x86>
     f28:	5b c0       	rjmp	.+182    	; 0xfe0 <_Z12renderOutputv+0x13c>
     f2a:	30 f4       	brcc	.+12     	; 0xf38 <_Z12renderOutputv+0x94>
     f2c:	21 30       	cpi	r18, 0x01	; 1
     f2e:	59 f0       	breq	.+22     	; 0xf46 <_Z12renderOutputv+0xa2>
     f30:	23 30       	cpi	r18, 0x03	; 3
     f32:	09 f0       	breq	.+2      	; 0xf36 <_Z12renderOutputv+0x92>
     f34:	0f c2       	rjmp	.+1054   	; 0x1354 <_Z12renderOutputv+0x4b0>
     f36:	40 c0       	rjmp	.+128    	; 0xfb8 <_Z12renderOutputv+0x114>
     f38:	25 30       	cpi	r18, 0x05	; 5
     f3a:	09 f4       	brne	.+2      	; 0xf3e <_Z12renderOutputv+0x9a>
     f3c:	60 c0       	rjmp	.+192    	; 0xffe <_Z12renderOutputv+0x15a>
     f3e:	26 30       	cpi	r18, 0x06	; 6
     f40:	09 f0       	breq	.+2      	; 0xf44 <_Z12renderOutputv+0xa0>
     f42:	08 c2       	rjmp	.+1040   	; 0x1354 <_Z12renderOutputv+0x4b0>
     f44:	b2 c0       	rjmp	.+356    	; 0x10aa <_Z12renderOutputv+0x206>
     f46:	b0 2e       	mov	r11, r16
     f48:	60 2f       	mov	r22, r16
     f4a:	8f e3       	ldi	r24, 0x3F	; 63
     f4c:	96 e0       	ldi	r25, 0x06	; 6
     f4e:	2b 87       	std	Y+11, r18	; 0x0b
     f50:	56 d3       	rcall	.+1708   	; 0x15fe <_ZN16trinityRackCV_HW10getCVValueEh>
     f52:	2b 85       	ldd	r18, Y+11	; 0x0b
     f54:	81 34       	cpi	r24, 0x41	; 65
     f56:	08 f4       	brcc	.+2      	; 0xf5a <_Z12renderOutputv+0xb6>
     f58:	48 c2       	rjmp	.+1168   	; 0x13ea <_Z12renderOutputv+0x546>
     f5a:	f7 01       	movw	r30, r14
     f5c:	80 81       	ld	r24, Z
     f5e:	81 11       	cpse	r24, r1
     f60:	44 c2       	rjmp	.+1160   	; 0x13ea <_Z12renderOutputv+0x546>
     f62:	3c c2       	rjmp	.+1144   	; 0x13dc <_Z12renderOutputv+0x538>
     f64:	f7 01       	movw	r30, r14
     f66:	80 81       	ld	r24, Z
     f68:	81 11       	cpse	r24, r1
     f6a:	47 c2       	rjmp	.+1166   	; 0x13fa <_Z12renderOutputv+0x556>
     f6c:	e9 81       	ldd	r30, Y+1	; 0x01
     f6e:	fa 81       	ldd	r31, Y+2	; 0x02
     f70:	80 81       	ld	r24, Z
     f72:	81 11       	cpse	r24, r1
     f74:	01 c0       	rjmp	.+2      	; 0xf78 <_Z12renderOutputv+0xd4>
     f76:	ee c1       	rjmp	.+988    	; 0x1354 <_Z12renderOutputv+0x4b0>
     f78:	80 91 41 06 	lds	r24, 0x0641
     f7c:	90 91 42 06 	lds	r25, 0x0642
     f80:	a0 91 43 06 	lds	r26, 0x0643
     f84:	b0 91 44 06 	lds	r27, 0x0644
     f88:	eb 81       	ldd	r30, Y+3	; 0x03
     f8a:	fc 81       	ldd	r31, Y+4	; 0x04
     f8c:	40 81       	ld	r20, Z
     f8e:	51 81       	ldd	r21, Z+1	; 0x01
     f90:	62 81       	ldd	r22, Z+2	; 0x02
     f92:	73 81       	ldd	r23, Z+3	; 0x03
     f94:	84 1b       	sub	r24, r20
     f96:	95 0b       	sbc	r25, r21
     f98:	a6 0b       	sbc	r26, r22
     f9a:	b7 0b       	sbc	r27, r23
     f9c:	45 97       	sbiw	r24, 0x15	; 21
     f9e:	a1 05       	cpc	r26, r1
     fa0:	b1 05       	cpc	r27, r1
     fa2:	08 f4       	brcc	.+2      	; 0xfa6 <_Z12renderOutputv+0x102>
     fa4:	d7 c1       	rjmp	.+942    	; 0x1354 <_Z12renderOutputv+0x4b0>
     fa6:	e9 81       	ldd	r30, Y+1	; 0x01
     fa8:	fa 81       	ldd	r31, Y+2	; 0x02
     faa:	10 82       	st	Z, r1
     fac:	40 e0       	ldi	r20, 0x00	; 0
     fae:	6b 2d       	mov	r22, r11
     fb0:	8f e3       	ldi	r24, 0x3F	; 63
     fb2:	96 e0       	ldi	r25, 0x06	; 6
     fb4:	1f d3       	rcall	.+1598   	; 0x15f4 <_ZN16trinityRackCV_HW6setDACEhh>
     fb6:	ce c1       	rjmp	.+924    	; 0x1354 <_Z12renderOutputv+0x4b0>
     fb8:	60 2f       	mov	r22, r16
     fba:	8f e3       	ldi	r24, 0x3F	; 63
     fbc:	96 e0       	ldi	r25, 0x06	; 6
     fbe:	1f d3       	rcall	.+1598   	; 0x15fe <_ZN16trinityRackCV_HW10getCVValueEh>
     fc0:	f3 01       	movw	r30, r6
     fc2:	90 81       	ld	r25, Z
     fc4:	89 17       	cp	r24, r25
     fc6:	09 f4       	brne	.+2      	; 0xfca <_Z12renderOutputv+0x126>
     fc8:	c5 c1       	rjmp	.+906    	; 0x1354 <_Z12renderOutputv+0x4b0>
     fca:	60 2f       	mov	r22, r16
     fcc:	8f e3       	ldi	r24, 0x3F	; 63
     fce:	96 e0       	ldi	r25, 0x06	; 6
     fd0:	16 d3       	rcall	.+1580   	; 0x15fe <_ZN16trinityRackCV_HW10getCVValueEh>
     fd2:	48 2f       	mov	r20, r24
     fd4:	60 2f       	mov	r22, r16
     fd6:	8f e0       	ldi	r24, 0x0F	; 15
     fd8:	92 e0       	ldi	r25, 0x02	; 2
     fda:	0e 94 e0 11 	call	0x23c0	; 0x23c0 <_ZN19simpleSerialDecoder13sendChannelCVEhh>
     fde:	ba c1       	rjmp	.+884    	; 0x1354 <_Z12renderOutputv+0x4b0>
     fe0:	f8 01       	movw	r30, r16
     fe2:	ec 56       	subi	r30, 0x6C	; 108
     fe4:	fe 4f       	sbci	r31, 0xFE	; 254
     fe6:	80 81       	ld	r24, Z
     fe8:	81 11       	cpse	r24, r1
     fea:	b4 c1       	rjmp	.+872    	; 0x1354 <_Z12renderOutputv+0x4b0>
     fec:	f3 e5       	ldi	r31, 0x53	; 83
     fee:	f0 9f       	mul	r31, r16
     ff0:	c0 01       	movw	r24, r0
     ff2:	f1 9f       	mul	r31, r17
     ff4:	90 0d       	add	r25, r0
     ff6:	11 24       	eor	r1, r1
     ff8:	83 5b       	subi	r24, 0xB3	; 179
     ffa:	9b 4f       	sbci	r25, 0xFB	; 251
     ffc:	39 c0       	rjmp	.+114    	; 0x1070 <_Z12renderOutputv+0x1cc>
     ffe:	f6 01       	movw	r30, r12
    1000:	80 81       	ld	r24, Z
    1002:	84 ff       	sbrs	r24, 4
    1004:	0b c0       	rjmp	.+22     	; 0x101c <_Z12renderOutputv+0x178>
    1006:	60 2f       	mov	r22, r16
    1008:	8f e3       	ldi	r24, 0x3F	; 63
    100a:	96 e0       	ldi	r25, 0x06	; 6
    100c:	f8 d2       	rcall	.+1520   	; 0x15fe <_ZN16trinityRackCV_HW10getCVValueEh>
    100e:	f3 01       	movw	r30, r6
    1010:	90 81       	ld	r25, Z
    1012:	89 17       	cp	r24, r25
    1014:	19 f0       	breq	.+6      	; 0x101c <_Z12renderOutputv+0x178>
    1016:	60 e0       	ldi	r22, 0x00	; 0
    1018:	80 2f       	mov	r24, r16
    101a:	1d da       	rcall	.-3014   	; 0x456 <_Z18reflectValueChangehh>
    101c:	f6 01       	movw	r30, r12
    101e:	80 81       	ld	r24, Z
    1020:	85 ff       	sbrs	r24, 5
    1022:	04 c0       	rjmp	.+8      	; 0x102c <_Z12renderOutputv+0x188>
    1024:	60 2f       	mov	r22, r16
    1026:	8f e3       	ldi	r24, 0x3F	; 63
    1028:	96 e0       	ldi	r25, 0x06	; 6
    102a:	e9 d2       	rcall	.+1490   	; 0x15fe <_ZN16trinityRackCV_HW10getCVValueEh>
    102c:	f6 01       	movw	r30, r12
    102e:	80 81       	ld	r24, Z
    1030:	86 ff       	sbrs	r24, 6
    1032:	0b c0       	rjmp	.+22     	; 0x104a <_Z12renderOutputv+0x1a6>
    1034:	60 2f       	mov	r22, r16
    1036:	8f e3       	ldi	r24, 0x3F	; 63
    1038:	96 e0       	ldi	r25, 0x06	; 6
    103a:	e1 d2       	rcall	.+1474   	; 0x15fe <_ZN16trinityRackCV_HW10getCVValueEh>
    103c:	f3 01       	movw	r30, r6
    103e:	90 81       	ld	r25, Z
    1040:	89 17       	cp	r24, r25
    1042:	19 f0       	breq	.+6      	; 0x104a <_Z12renderOutputv+0x1a6>
    1044:	62 e0       	ldi	r22, 0x02	; 2
    1046:	80 2f       	mov	r24, r16
    1048:	06 da       	rcall	.-3060   	; 0x456 <_Z18reflectValueChangehh>
    104a:	f8 01       	movw	r30, r16
    104c:	e0 56       	subi	r30, 0x60	; 96
    104e:	fe 4f       	sbci	r31, 0xFE	; 254
    1050:	80 81       	ld	r24, Z
    1052:	88 23       	and	r24, r24
    1054:	81 f0       	breq	.+32     	; 0x1076 <_Z12renderOutputv+0x1d2>
    1056:	f3 e5       	ldi	r31, 0x53	; 83
    1058:	f0 9f       	mul	r31, r16
    105a:	50 01       	movw	r10, r0
    105c:	f1 9f       	mul	r31, r17
    105e:	b0 0c       	add	r11, r0
    1060:	11 24       	eor	r1, r1
    1062:	8d e4       	ldi	r24, 0x4D	; 77
    1064:	94 e0       	ldi	r25, 0x04	; 4
    1066:	a8 0e       	add	r10, r24
    1068:	b9 1e       	adc	r11, r25
    106a:	c5 01       	movw	r24, r10
    106c:	7d d7       	rcall	.+3834   	; 0x1f68 <_ZN19interpolatingBuffer6updateEv>
    106e:	c5 01       	movw	r24, r10
    1070:	0e 94 4c 10 	call	0x2098	; 0x2098 <_ZN19interpolatingBuffer15getCurrentValueEv>
    1074:	17 c0       	rjmp	.+46     	; 0x10a4 <_Z12renderOutputv+0x200>
    1076:	9a e1       	ldi	r25, 0x1A	; 26
    1078:	90 9f       	mul	r25, r16
    107a:	f0 01       	movw	r30, r0
    107c:	91 9f       	mul	r25, r17
    107e:	f0 0d       	add	r31, r0
    1080:	11 24       	eor	r1, r1
    1082:	ef 5c       	subi	r30, 0xCF	; 207
    1084:	fd 4f       	sbci	r31, 0xFD	; 253
    1086:	83 85       	ldd	r24, Z+11	; 0x0b
    1088:	94 85       	ldd	r25, Z+12	; 0x0c
    108a:	23 89       	ldd	r18, Z+19	; 0x13
    108c:	34 89       	ldd	r19, Z+20	; 0x14
    108e:	82 0f       	add	r24, r18
    1090:	93 1f       	adc	r25, r19
    1092:	94 87       	std	Z+12, r25	; 0x0c
    1094:	83 87       	std	Z+11, r24	; 0x0b
    1096:	60 91 90 01 	lds	r22, 0x0190
    109a:	70 91 91 01 	lds	r23, 0x0191
    109e:	cf 01       	movw	r24, r30
    10a0:	0e 94 7b 11 	call	0x22f6	; 0x22f6 <_ZN11lfoExtended8getValueEj>
    10a4:	b8 2e       	mov	r11, r24
    10a6:	48 2f       	mov	r20, r24
    10a8:	50 c1       	rjmp	.+672    	; 0x134a <_Z12renderOutputv+0x4a6>
    10aa:	f6 01       	movw	r30, r12
    10ac:	80 81       	ld	r24, Z
    10ae:	58 01       	movw	r10, r16
    10b0:	e6 e0       	ldi	r30, 0x06	; 6
    10b2:	aa 0c       	add	r10, r10
    10b4:	bb 1c       	adc	r11, r11
    10b6:	ea 95       	dec	r30
    10b8:	e1 f7       	brne	.-8      	; 0x10b2 <_Z12renderOutputv+0x20e>
    10ba:	82 ff       	sbrs	r24, 2
    10bc:	1c c0       	rjmp	.+56     	; 0x10f6 <_Z12renderOutputv+0x252>
    10be:	95 01       	movw	r18, r10
    10c0:	23 53       	subi	r18, 0x33	; 51
    10c2:	3d 4f       	sbci	r19, 0xFD	; 253
    10c4:	81 e0       	ldi	r24, 0x01	; 1
    10c6:	f9 01       	movw	r30, r18
    10c8:	81 83       	std	Z+1, r24	; 0x01
    10ca:	90 2e       	mov	r9, r16
    10cc:	60 2f       	mov	r22, r16
    10ce:	8f e3       	ldi	r24, 0x3F	; 63
    10d0:	96 e0       	ldi	r25, 0x06	; 6
    10d2:	2b 87       	std	Y+11, r18	; 0x0b
    10d4:	3a 87       	std	Y+10, r19	; 0x0a
    10d6:	93 d2       	rcall	.+1318   	; 0x15fe <_ZN16trinityRackCV_HW10getCVValueEh>
    10d8:	2b 85       	ldd	r18, Y+11	; 0x0b
    10da:	3a 85       	ldd	r19, Y+10	; 0x0a
    10dc:	81 34       	cpi	r24, 0x41	; 65
    10de:	08 f4       	brcc	.+2      	; 0x10e2 <_Z12renderOutputv+0x23e>
    10e0:	9a c1       	rjmp	.+820    	; 0x1416 <_Z12renderOutputv+0x572>
    10e2:	f7 01       	movw	r30, r14
    10e4:	80 81       	ld	r24, Z
    10e6:	81 11       	cpse	r24, r1
    10e8:	96 c1       	rjmp	.+812    	; 0x1416 <_Z12renderOutputv+0x572>
    10ea:	8a c1       	rjmp	.+788    	; 0x1400 <_Z12renderOutputv+0x55c>
    10ec:	f7 01       	movw	r30, r14
    10ee:	80 81       	ld	r24, Z
    10f0:	81 11       	cpse	r24, r1
    10f2:	99 c1       	rjmp	.+818    	; 0x1426 <_Z12renderOutputv+0x582>
    10f4:	1f c0       	rjmp	.+62     	; 0x1134 <_Z12renderOutputv+0x290>
    10f6:	c5 01       	movw	r24, r10
    10f8:	83 53       	subi	r24, 0x33	; 51
    10fa:	9d 4f       	sbci	r25, 0xFD	; 253
    10fc:	99 87       	std	Y+9, r25	; 0x09
    10fe:	88 87       	std	Y+8, r24	; 0x08
    1100:	fc 01       	movw	r30, r24
    1102:	11 82       	std	Z+1, r1	; 0x01
    1104:	90 2e       	mov	r9, r16
    1106:	60 2f       	mov	r22, r16
    1108:	8f e3       	ldi	r24, 0x3F	; 63
    110a:	96 e0       	ldi	r25, 0x06	; 6
    110c:	78 d2       	rcall	.+1264   	; 0x15fe <_ZN16trinityRackCV_HW10getCVValueEh>
    110e:	81 34       	cpi	r24, 0x41	; 65
    1110:	08 f4       	brcc	.+2      	; 0x1114 <_Z12renderOutputv+0x270>
    1112:	8c c1       	rjmp	.+792    	; 0x142c <_Z12renderOutputv+0x588>
    1114:	f7 01       	movw	r30, r14
    1116:	80 81       	ld	r24, Z
    1118:	81 11       	cpse	r24, r1
    111a:	88 c1       	rjmp	.+784    	; 0x142c <_Z12renderOutputv+0x588>
    111c:	8f c1       	rjmp	.+798    	; 0x143c <_Z12renderOutputv+0x598>
    111e:	f7 01       	movw	r30, r14
    1120:	80 81       	ld	r24, Z
    1122:	81 11       	cpse	r24, r1
    1124:	91 c1       	rjmp	.+802    	; 0x1448 <_Z12renderOutputv+0x5a4>
    1126:	06 c0       	rjmp	.+12     	; 0x1134 <_Z12renderOutputv+0x290>
    1128:	84 e0       	ldi	r24, 0x04	; 4
    112a:	90 e0       	ldi	r25, 0x00	; 0
    112c:	e8 85       	ldd	r30, Y+8	; 0x08
    112e:	f9 85       	ldd	r31, Y+9	; 0x09
    1130:	93 83       	std	Z+3, r25	; 0x03
    1132:	82 83       	std	Z+2, r24	; 0x02
    1134:	f5 01       	movw	r30, r10
    1136:	e3 53       	subi	r30, 0x33	; 51
    1138:	fd 4f       	sbci	r31, 0xFD	; 253
    113a:	f9 87       	std	Y+9, r31	; 0x09
    113c:	e8 87       	std	Y+8, r30	; 0x08
    113e:	82 81       	ldd	r24, Z+2	; 0x02
    1140:	93 81       	ldd	r25, Z+3	; 0x03
    1142:	82 30       	cpi	r24, 0x02	; 2
    1144:	91 05       	cpc	r25, r1
    1146:	09 f4       	brne	.+2      	; 0x114a <_Z12renderOutputv+0x2a6>
    1148:	89 c0       	rjmp	.+274    	; 0x125c <_Z12renderOutputv+0x3b8>
    114a:	34 f4       	brge	.+12     	; 0x1158 <_Z12renderOutputv+0x2b4>
    114c:	00 97       	sbiw	r24, 0x00	; 0
    114e:	c1 f1       	breq	.+112    	; 0x11c0 <_Z12renderOutputv+0x31c>
    1150:	01 97       	sbiw	r24, 0x01	; 1
    1152:	09 f0       	breq	.+2      	; 0x1156 <_Z12renderOutputv+0x2b2>
    1154:	ea c0       	rjmp	.+468    	; 0x132a <_Z12renderOutputv+0x486>
    1156:	3b c0       	rjmp	.+118    	; 0x11ce <_Z12renderOutputv+0x32a>
    1158:	84 30       	cpi	r24, 0x04	; 4
    115a:	91 05       	cpc	r25, r1
    115c:	09 f4       	brne	.+2      	; 0x1160 <_Z12renderOutputv+0x2bc>
    115e:	b0 c0       	rjmp	.+352    	; 0x12c0 <_Z12renderOutputv+0x41c>
    1160:	05 97       	sbiw	r24, 0x05	; 5
    1162:	09 f0       	breq	.+2      	; 0x1166 <_Z12renderOutputv+0x2c2>
    1164:	e2 c0       	rjmp	.+452    	; 0x132a <_Z12renderOutputv+0x486>
    1166:	e8 85       	ldd	r30, Y+8	; 0x08
    1168:	f9 85       	ldd	r31, Y+9	; 0x09
    116a:	84 81       	ldd	r24, Z+4	; 0x04
    116c:	95 81       	ldd	r25, Z+5	; 0x05
    116e:	a6 81       	ldd	r26, Z+6	; 0x06
    1170:	b7 81       	ldd	r27, Z+7	; 0x07
    1172:	01 96       	adiw	r24, 0x01	; 1
    1174:	a1 1d       	adc	r26, r1
    1176:	b1 1d       	adc	r27, r1
    1178:	84 83       	std	Z+4, r24	; 0x04
    117a:	95 83       	std	Z+5, r25	; 0x05
    117c:	a6 83       	std	Z+6, r26	; 0x06
    117e:	b7 83       	std	Z+7, r27	; 0x07
    1180:	40 85       	ldd	r20, Z+8	; 0x08
    1182:	51 85       	ldd	r21, Z+9	; 0x09
    1184:	62 85       	ldd	r22, Z+10	; 0x0a
    1186:	73 85       	ldd	r23, Z+11	; 0x0b
    1188:	84 17       	cp	r24, r20
    118a:	95 07       	cpc	r25, r21
    118c:	a6 07       	cpc	r26, r22
    118e:	b7 07       	cpc	r27, r23
    1190:	84 f0       	brlt	.+32     	; 0x11b2 <_Z12renderOutputv+0x30e>
    1192:	14 82       	std	Z+4, r1	; 0x04
    1194:	15 82       	std	Z+5, r1	; 0x05
    1196:	16 82       	std	Z+6, r1	; 0x06
    1198:	17 82       	std	Z+7, r1	; 0x07
    119a:	81 81       	ldd	r24, Z+1	; 0x01
    119c:	88 23       	and	r24, r24
    119e:	19 f0       	breq	.+6      	; 0x11a6 <_Z12renderOutputv+0x302>
    11a0:	84 e0       	ldi	r24, 0x04	; 4
    11a2:	90 e0       	ldi	r25, 0x00	; 0
    11a4:	04 c0       	rjmp	.+8      	; 0x11ae <_Z12renderOutputv+0x30a>
    11a6:	82 e0       	ldi	r24, 0x02	; 2
    11a8:	90 e0       	ldi	r25, 0x00	; 0
    11aa:	e8 85       	ldd	r30, Y+8	; 0x08
    11ac:	f9 85       	ldd	r31, Y+9	; 0x09
    11ae:	93 83       	std	Z+3, r25	; 0x03
    11b0:	82 83       	std	Z+2, r24	; 0x02
    11b2:	e8 85       	ldd	r30, Y+8	; 0x08
    11b4:	f9 85       	ldd	r31, Y+9	; 0x09
    11b6:	24 86       	std	Z+12, r2	; 0x0c
    11b8:	35 86       	std	Z+13, r3	; 0x0d
    11ba:	46 86       	std	Z+14, r4	; 0x0e
    11bc:	57 86       	std	Z+15, r5	; 0x0f
    11be:	b5 c0       	rjmp	.+362    	; 0x132a <_Z12renderOutputv+0x486>
    11c0:	e8 85       	ldd	r30, Y+8	; 0x08
    11c2:	f9 85       	ldd	r31, Y+9	; 0x09
    11c4:	81 81       	ldd	r24, Z+1	; 0x01
    11c6:	88 23       	and	r24, r24
    11c8:	09 f4       	brne	.+2      	; 0x11cc <_Z12renderOutputv+0x328>
    11ca:	af c0       	rjmp	.+350    	; 0x132a <_Z12renderOutputv+0x486>
    11cc:	a7 c0       	rjmp	.+334    	; 0x131c <_Z12renderOutputv+0x478>
    11ce:	e8 85       	ldd	r30, Y+8	; 0x08
    11d0:	f9 85       	ldd	r31, Y+9	; 0x09
    11d2:	24 8d       	ldd	r18, Z+28	; 0x1c
    11d4:	35 8d       	ldd	r19, Z+29	; 0x1d
    11d6:	46 8d       	ldd	r20, Z+30	; 0x1e
    11d8:	57 8d       	ldd	r21, Z+31	; 0x1f
    11da:	64 85       	ldd	r22, Z+12	; 0x0c
    11dc:	75 85       	ldd	r23, Z+13	; 0x0d
    11de:	86 85       	ldd	r24, Z+14	; 0x0e
    11e0:	97 85       	ldd	r25, Z+15	; 0x0f
    11e2:	0e 94 21 1a 	call	0x3442	; 0x3442 <__mulsf3>
    11e6:	e8 85       	ldd	r30, Y+8	; 0x08
    11e8:	f9 85       	ldd	r31, Y+9	; 0x09
    11ea:	24 a9       	ldd	r18, Z+52	; 0x34
    11ec:	35 a9       	ldd	r19, Z+53	; 0x35
    11ee:	46 a9       	ldd	r20, Z+54	; 0x36
    11f0:	57 a9       	ldd	r21, Z+55	; 0x37
    11f2:	0e 94 5f 17 	call	0x2ebe	; 0x2ebe <__addsf3>
    11f6:	86 2e       	mov	r8, r22
    11f8:	97 2e       	mov	r9, r23
    11fa:	a8 2e       	mov	r10, r24
    11fc:	b9 2e       	mov	r11, r25
    11fe:	e8 85       	ldd	r30, Y+8	; 0x08
    1200:	f9 85       	ldd	r31, Y+9	; 0x09
    1202:	84 86       	std	Z+12, r8	; 0x0c
    1204:	95 86       	std	Z+13, r9	; 0x0d
    1206:	a6 86       	std	Z+14, r10	; 0x0e
    1208:	b7 86       	std	Z+15, r11	; 0x0f
    120a:	20 e0       	ldi	r18, 0x00	; 0
    120c:	30 e0       	ldi	r19, 0x00	; 0
    120e:	40 e8       	ldi	r20, 0x80	; 128
    1210:	5f e3       	ldi	r21, 0x3F	; 63
    1212:	0e 94 68 19 	call	0x32d0	; 0x32d0 <__gesf2>
    1216:	87 fd       	sbrc	r24, 7
    1218:	88 c0       	rjmp	.+272    	; 0x132a <_Z12renderOutputv+0x486>
    121a:	e8 85       	ldd	r30, Y+8	; 0x08
    121c:	f9 85       	ldd	r31, Y+9	; 0x09
    121e:	24 86       	std	Z+12, r2	; 0x0c
    1220:	35 86       	std	Z+13, r3	; 0x0d
    1222:	46 86       	std	Z+14, r4	; 0x0e
    1224:	57 86       	std	Z+15, r5	; 0x0f
    1226:	80 81       	ld	r24, Z
    1228:	88 23       	and	r24, r24
    122a:	49 f0       	breq	.+18     	; 0x123e <_Z12renderOutputv+0x39a>
    122c:	85 e0       	ldi	r24, 0x05	; 5
    122e:	90 e0       	ldi	r25, 0x00	; 0
    1230:	93 83       	std	Z+3, r25	; 0x03
    1232:	82 83       	std	Z+2, r24	; 0x02
    1234:	14 82       	std	Z+4, r1	; 0x04
    1236:	15 82       	std	Z+5, r1	; 0x05
    1238:	16 82       	std	Z+6, r1	; 0x06
    123a:	17 82       	std	Z+7, r1	; 0x07
    123c:	76 c0       	rjmp	.+236    	; 0x132a <_Z12renderOutputv+0x486>
    123e:	e8 85       	ldd	r30, Y+8	; 0x08
    1240:	f9 85       	ldd	r31, Y+9	; 0x09
    1242:	81 81       	ldd	r24, Z+1	; 0x01
    1244:	88 23       	and	r24, r24
    1246:	29 f0       	breq	.+10     	; 0x1252 <_Z12renderOutputv+0x3ae>
    1248:	84 e0       	ldi	r24, 0x04	; 4
    124a:	90 e0       	ldi	r25, 0x00	; 0
    124c:	93 83       	std	Z+3, r25	; 0x03
    124e:	82 83       	std	Z+2, r24	; 0x02
    1250:	6c c0       	rjmp	.+216    	; 0x132a <_Z12renderOutputv+0x486>
    1252:	82 e0       	ldi	r24, 0x02	; 2
    1254:	90 e0       	ldi	r25, 0x00	; 0
    1256:	e8 85       	ldd	r30, Y+8	; 0x08
    1258:	f9 85       	ldd	r31, Y+9	; 0x09
    125a:	f8 cf       	rjmp	.-16     	; 0x124c <_Z12renderOutputv+0x3a8>
    125c:	e8 85       	ldd	r30, Y+8	; 0x08
    125e:	f9 85       	ldd	r31, Y+9	; 0x09
    1260:	20 a1       	ldd	r18, Z+32	; 0x20
    1262:	31 a1       	ldd	r19, Z+33	; 0x21
    1264:	42 a1       	ldd	r20, Z+34	; 0x22
    1266:	53 a1       	ldd	r21, Z+35	; 0x23
    1268:	64 85       	ldd	r22, Z+12	; 0x0c
    126a:	75 85       	ldd	r23, Z+13	; 0x0d
    126c:	86 85       	ldd	r24, Z+14	; 0x0e
    126e:	97 85       	ldd	r25, Z+15	; 0x0f
    1270:	0e 94 21 1a 	call	0x3442	; 0x3442 <__mulsf3>
    1274:	e8 85       	ldd	r30, Y+8	; 0x08
    1276:	f9 85       	ldd	r31, Y+9	; 0x09
    1278:	20 ad       	ldd	r18, Z+56	; 0x38
    127a:	31 ad       	ldd	r19, Z+57	; 0x39
    127c:	42 ad       	ldd	r20, Z+58	; 0x3a
    127e:	53 ad       	ldd	r21, Z+59	; 0x3b
    1280:	0e 94 5f 17 	call	0x2ebe	; 0x2ebe <__addsf3>
    1284:	86 2e       	mov	r8, r22
    1286:	97 2e       	mov	r9, r23
    1288:	a8 2e       	mov	r10, r24
    128a:	b9 2e       	mov	r11, r25
    128c:	e8 85       	ldd	r30, Y+8	; 0x08
    128e:	f9 85       	ldd	r31, Y+9	; 0x09
    1290:	84 86       	std	Z+12, r8	; 0x0c
    1292:	95 86       	std	Z+13, r9	; 0x0d
    1294:	a6 86       	std	Z+14, r10	; 0x0e
    1296:	b7 86       	std	Z+15, r11	; 0x0f
    1298:	80 a4       	ldd	r8, Z+40	; 0x28
    129a:	91 a4       	ldd	r9, Z+41	; 0x29
    129c:	a2 a4       	ldd	r10, Z+42	; 0x2a
    129e:	b3 a4       	ldd	r11, Z+43	; 0x2b
    12a0:	a5 01       	movw	r20, r10
    12a2:	94 01       	movw	r18, r8
    12a4:	0e 94 c3 17 	call	0x2f86	; 0x2f86 <__cmpsf2>
    12a8:	18 16       	cp	r1, r24
    12aa:	0c f4       	brge	.+2      	; 0x12ae <_Z12renderOutputv+0x40a>
    12ac:	3e c0       	rjmp	.+124    	; 0x132a <_Z12renderOutputv+0x486>
    12ae:	e8 85       	ldd	r30, Y+8	; 0x08
    12b0:	f9 85       	ldd	r31, Y+9	; 0x09
    12b2:	84 86       	std	Z+12, r8	; 0x0c
    12b4:	95 86       	std	Z+13, r9	; 0x0d
    12b6:	a6 86       	std	Z+14, r10	; 0x0e
    12b8:	b7 86       	std	Z+15, r11	; 0x0f
    12ba:	83 e0       	ldi	r24, 0x03	; 3
    12bc:	90 e0       	ldi	r25, 0x00	; 0
    12be:	c6 cf       	rjmp	.-116    	; 0x124c <_Z12renderOutputv+0x3a8>
    12c0:	e8 85       	ldd	r30, Y+8	; 0x08
    12c2:	f9 85       	ldd	r31, Y+9	; 0x09
    12c4:	24 a1       	ldd	r18, Z+36	; 0x24
    12c6:	35 a1       	ldd	r19, Z+37	; 0x25
    12c8:	46 a1       	ldd	r20, Z+38	; 0x26
    12ca:	57 a1       	ldd	r21, Z+39	; 0x27
    12cc:	64 85       	ldd	r22, Z+12	; 0x0c
    12ce:	75 85       	ldd	r23, Z+13	; 0x0d
    12d0:	86 85       	ldd	r24, Z+14	; 0x0e
    12d2:	97 85       	ldd	r25, Z+15	; 0x0f
    12d4:	0e 94 21 1a 	call	0x3442	; 0x3442 <__mulsf3>
    12d8:	e8 85       	ldd	r30, Y+8	; 0x08
    12da:	f9 85       	ldd	r31, Y+9	; 0x09
    12dc:	24 ad       	ldd	r18, Z+60	; 0x3c
    12de:	35 ad       	ldd	r19, Z+61	; 0x3d
    12e0:	46 ad       	ldd	r20, Z+62	; 0x3e
    12e2:	57 ad       	ldd	r21, Z+63	; 0x3f
    12e4:	0e 94 5f 17 	call	0x2ebe	; 0x2ebe <__addsf3>
    12e8:	86 2e       	mov	r8, r22
    12ea:	97 2e       	mov	r9, r23
    12ec:	a8 2e       	mov	r10, r24
    12ee:	b9 2e       	mov	r11, r25
    12f0:	e8 85       	ldd	r30, Y+8	; 0x08
    12f2:	f9 85       	ldd	r31, Y+9	; 0x09
    12f4:	84 86       	std	Z+12, r8	; 0x0c
    12f6:	95 86       	std	Z+13, r9	; 0x0d
    12f8:	a6 86       	std	Z+14, r10	; 0x0e
    12fa:	b7 86       	std	Z+15, r11	; 0x0f
    12fc:	20 e0       	ldi	r18, 0x00	; 0
    12fe:	30 e0       	ldi	r19, 0x00	; 0
    1300:	a9 01       	movw	r20, r18
    1302:	0e 94 c3 17 	call	0x2f86	; 0x2f86 <__cmpsf2>
    1306:	18 16       	cp	r1, r24
    1308:	84 f0       	brlt	.+32     	; 0x132a <_Z12renderOutputv+0x486>
    130a:	e8 85       	ldd	r30, Y+8	; 0x08
    130c:	f9 85       	ldd	r31, Y+9	; 0x09
    130e:	14 86       	std	Z+12, r1	; 0x0c
    1310:	15 86       	std	Z+13, r1	; 0x0d
    1312:	16 86       	std	Z+14, r1	; 0x0e
    1314:	17 86       	std	Z+15, r1	; 0x0f
    1316:	81 81       	ldd	r24, Z+1	; 0x01
    1318:	88 23       	and	r24, r24
    131a:	19 f0       	breq	.+6      	; 0x1322 <_Z12renderOutputv+0x47e>
    131c:	81 e0       	ldi	r24, 0x01	; 1
    131e:	90 e0       	ldi	r25, 0x00	; 0
    1320:	95 cf       	rjmp	.-214    	; 0x124c <_Z12renderOutputv+0x3a8>
    1322:	e8 85       	ldd	r30, Y+8	; 0x08
    1324:	f9 85       	ldd	r31, Y+9	; 0x09
    1326:	13 82       	std	Z+3, r1	; 0x03
    1328:	12 82       	std	Z+2, r1	; 0x02
    132a:	20 e0       	ldi	r18, 0x00	; 0
    132c:	30 e0       	ldi	r19, 0x00	; 0
    132e:	4f e7       	ldi	r20, 0x7F	; 127
    1330:	53 e4       	ldi	r21, 0x43	; 67
    1332:	e8 85       	ldd	r30, Y+8	; 0x08
    1334:	f9 85       	ldd	r31, Y+9	; 0x09
    1336:	64 85       	ldd	r22, Z+12	; 0x0c
    1338:	75 85       	ldd	r23, Z+13	; 0x0d
    133a:	86 85       	ldd	r24, Z+14	; 0x0e
    133c:	97 85       	ldd	r25, Z+15	; 0x0f
    133e:	0e 94 21 1a 	call	0x3442	; 0x3442 <__mulsf3>
    1342:	0e 94 60 18 	call	0x30c0	; 0x30c0 <__fixsfsi>
    1346:	46 2f       	mov	r20, r22
    1348:	b6 2e       	mov	r11, r22
    134a:	60 2f       	mov	r22, r16
    134c:	8f e3       	ldi	r24, 0x3F	; 63
    134e:	96 e0       	ldi	r25, 0x06	; 6
    1350:	51 d1       	rcall	.+674    	; 0x15f4 <_ZN16trinityRackCV_HW6setDACEhh>
    1352:	01 c0       	rjmp	.+2      	; 0x1356 <_Z12renderOutputv+0x4b2>
    1354:	b1 2c       	mov	r11, r1
    1356:	20 91 04 02 	lds	r18, 0x0204
    135a:	30 e0       	ldi	r19, 0x00	; 0
    135c:	02 17       	cp	r16, r18
    135e:	13 07       	cpc	r17, r19
    1360:	09 f4       	brne	.+2      	; 0x1364 <_Z12renderOutputv+0x4c0>
    1362:	bd 82       	std	Y+5, r11	; 0x05
    1364:	0f 5f       	subi	r16, 0xFF	; 255
    1366:	1f 4f       	sbci	r17, 0xFF	; 255
    1368:	89 81       	ldd	r24, Y+1	; 0x01
    136a:	9a 81       	ldd	r25, Y+2	; 0x02
    136c:	01 96       	adiw	r24, 0x01	; 1
    136e:	9a 83       	std	Y+2, r25	; 0x02
    1370:	89 83       	std	Y+1, r24	; 0x01
    1372:	9f ef       	ldi	r25, 0xFF	; 255
    1374:	e9 1a       	sub	r14, r25
    1376:	f9 0a       	sbc	r15, r25
    1378:	e4 e0       	ldi	r30, 0x04	; 4
    137a:	ce 0e       	add	r12, r30
    137c:	d1 1c       	adc	r13, r1
    137e:	ff ef       	ldi	r31, 0xFF	; 255
    1380:	6f 1a       	sub	r6, r31
    1382:	7f 0a       	sbc	r7, r31
    1384:	8b 81       	ldd	r24, Y+3	; 0x03
    1386:	9c 81       	ldd	r25, Y+4	; 0x04
    1388:	04 96       	adiw	r24, 0x04	; 4
    138a:	9c 83       	std	Y+4, r25	; 0x04
    138c:	8b 83       	std	Y+3, r24	; 0x03
    138e:	06 30       	cpi	r16, 0x06	; 6
    1390:	11 05       	cpc	r17, r1
    1392:	09 f0       	breq	.+2      	; 0x1396 <_Z12renderOutputv+0x4f2>
    1394:	c2 cd       	rjmp	.-1148   	; 0xf1a <_Z12renderOutputv+0x76>
    1396:	f9 01       	movw	r30, r18
    1398:	ec 56       	subi	r30, 0x6C	; 108
    139a:	fe 4f       	sbci	r31, 0xFE	; 254
    139c:	80 81       	ld	r24, Z
    139e:	81 11       	cpse	r24, r1
    13a0:	5d c0       	rjmp	.+186    	; 0x145c <_Z12renderOutputv+0x5b8>
    13a2:	4d 81       	ldd	r20, Y+5	; 0x05
    13a4:	66 e0       	ldi	r22, 0x06	; 6
    13a6:	8f e3       	ldi	r24, 0x3F	; 63
    13a8:	96 e0       	ldi	r25, 0x06	; 6
    13aa:	2b 96       	adiw	r28, 0x0b	; 11
    13ac:	0f b6       	in	r0, 0x3f	; 63
    13ae:	f8 94       	cli
    13b0:	de bf       	out	0x3e, r29	; 62
    13b2:	0f be       	out	0x3f, r0	; 63
    13b4:	cd bf       	out	0x3d, r28	; 61
    13b6:	df 91       	pop	r29
    13b8:	cf 91       	pop	r28
    13ba:	1f 91       	pop	r17
    13bc:	0f 91       	pop	r16
    13be:	ff 90       	pop	r15
    13c0:	ef 90       	pop	r14
    13c2:	df 90       	pop	r13
    13c4:	cf 90       	pop	r12
    13c6:	bf 90       	pop	r11
    13c8:	af 90       	pop	r10
    13ca:	9f 90       	pop	r9
    13cc:	8f 90       	pop	r8
    13ce:	7f 90       	pop	r7
    13d0:	6f 90       	pop	r6
    13d2:	5f 90       	pop	r5
    13d4:	4f 90       	pop	r4
    13d6:	3f 90       	pop	r3
    13d8:	2f 90       	pop	r2
    13da:	0c c1       	rjmp	.+536    	; 0x15f4 <_ZN16trinityRackCV_HW6setDACEhh>
    13dc:	f7 01       	movw	r30, r14
    13de:	20 83       	st	Z, r18
    13e0:	60 2f       	mov	r22, r16
    13e2:	8f e0       	ldi	r24, 0x0F	; 15
    13e4:	92 e0       	ldi	r25, 0x02	; 2
    13e6:	e7 d7       	rcall	.+4046   	; 0x23b6 <_ZN19simpleSerialDecoder11sendTriggerEh>
    13e8:	c1 cd       	rjmp	.-1150   	; 0xf6c <_Z12renderOutputv+0xc8>
    13ea:	6b 2d       	mov	r22, r11
    13ec:	8f e3       	ldi	r24, 0x3F	; 63
    13ee:	96 e0       	ldi	r25, 0x06	; 6
    13f0:	06 d1       	rcall	.+524    	; 0x15fe <_ZN16trinityRackCV_HW10getCVValueEh>
    13f2:	81 34       	cpi	r24, 0x41	; 65
    13f4:	08 f4       	brcc	.+2      	; 0x13f8 <_Z12renderOutputv+0x554>
    13f6:	b6 cd       	rjmp	.-1172   	; 0xf64 <_Z12renderOutputv+0xc0>
    13f8:	b9 cd       	rjmp	.-1166   	; 0xf6c <_Z12renderOutputv+0xc8>
    13fa:	f7 01       	movw	r30, r14
    13fc:	10 82       	st	Z, r1
    13fe:	b6 cd       	rjmp	.-1172   	; 0xf6c <_Z12renderOutputv+0xc8>
    1400:	81 e0       	ldi	r24, 0x01	; 1
    1402:	f7 01       	movw	r30, r14
    1404:	80 83       	st	Z, r24
    1406:	f9 01       	movw	r30, r18
    1408:	13 82       	std	Z+3, r1	; 0x03
    140a:	12 82       	std	Z+2, r1	; 0x02
    140c:	14 86       	std	Z+12, r1	; 0x0c
    140e:	15 86       	std	Z+13, r1	; 0x0d
    1410:	16 86       	std	Z+14, r1	; 0x0e
    1412:	17 86       	std	Z+15, r1	; 0x0f
    1414:	8f ce       	rjmp	.-738    	; 0x1134 <_Z12renderOutputv+0x290>
    1416:	69 2d       	mov	r22, r9
    1418:	8f e3       	ldi	r24, 0x3F	; 63
    141a:	96 e0       	ldi	r25, 0x06	; 6
    141c:	f0 d0       	rcall	.+480    	; 0x15fe <_ZN16trinityRackCV_HW10getCVValueEh>
    141e:	81 34       	cpi	r24, 0x41	; 65
    1420:	08 f4       	brcc	.+2      	; 0x1424 <_Z12renderOutputv+0x580>
    1422:	64 ce       	rjmp	.-824    	; 0x10ec <_Z12renderOutputv+0x248>
    1424:	87 ce       	rjmp	.-754    	; 0x1134 <_Z12renderOutputv+0x290>
    1426:	f7 01       	movw	r30, r14
    1428:	10 82       	st	Z, r1
    142a:	84 ce       	rjmp	.-760    	; 0x1134 <_Z12renderOutputv+0x290>
    142c:	69 2d       	mov	r22, r9
    142e:	8f e3       	ldi	r24, 0x3F	; 63
    1430:	96 e0       	ldi	r25, 0x06	; 6
    1432:	e5 d0       	rcall	.+458    	; 0x15fe <_ZN16trinityRackCV_HW10getCVValueEh>
    1434:	81 34       	cpi	r24, 0x41	; 65
    1436:	08 f4       	brcc	.+2      	; 0x143a <_Z12renderOutputv+0x596>
    1438:	72 ce       	rjmp	.-796    	; 0x111e <_Z12renderOutputv+0x27a>
    143a:	7c ce       	rjmp	.-776    	; 0x1134 <_Z12renderOutputv+0x290>
    143c:	21 e0       	ldi	r18, 0x01	; 1
    143e:	f7 01       	movw	r30, r14
    1440:	20 83       	st	Z, r18
    1442:	81 e0       	ldi	r24, 0x01	; 1
    1444:	90 e0       	ldi	r25, 0x00	; 0
    1446:	72 ce       	rjmp	.-796    	; 0x112c <_Z12renderOutputv+0x288>
    1448:	f7 01       	movw	r30, r14
    144a:	10 82       	st	Z, r1
    144c:	e8 85       	ldd	r30, Y+8	; 0x08
    144e:	f9 85       	ldd	r31, Y+9	; 0x09
    1450:	82 81       	ldd	r24, Z+2	; 0x02
    1452:	93 81       	ldd	r25, Z+3	; 0x03
    1454:	89 2b       	or	r24, r25
    1456:	09 f0       	breq	.+2      	; 0x145a <_Z12renderOutputv+0x5b6>
    1458:	67 ce       	rjmp	.-818    	; 0x1128 <_Z12renderOutputv+0x284>
    145a:	6c ce       	rjmp	.-808    	; 0x1134 <_Z12renderOutputv+0x290>
    145c:	2b 96       	adiw	r28, 0x0b	; 11
    145e:	0f b6       	in	r0, 0x3f	; 63
    1460:	f8 94       	cli
    1462:	de bf       	out	0x3e, r29	; 62
    1464:	0f be       	out	0x3f, r0	; 63
    1466:	cd bf       	out	0x3d, r28	; 61
    1468:	df 91       	pop	r29
    146a:	cf 91       	pop	r28
    146c:	1f 91       	pop	r17
    146e:	0f 91       	pop	r16
    1470:	ff 90       	pop	r15
    1472:	ef 90       	pop	r14
    1474:	df 90       	pop	r13
    1476:	cf 90       	pop	r12
    1478:	bf 90       	pop	r11
    147a:	af 90       	pop	r10
    147c:	9f 90       	pop	r9
    147e:	8f 90       	pop	r8
    1480:	7f 90       	pop	r7
    1482:	6f 90       	pop	r6
    1484:	5f 90       	pop	r5
    1486:	4f 90       	pop	r4
    1488:	3f 90       	pop	r3
    148a:	2f 90       	pop	r2
    148c:	08 95       	ret

0000148e <_Z8updateHWv>:
    148e:	8f e3       	ldi	r24, 0x3F	; 63
    1490:	96 e0       	ldi	r25, 0x06	; 6
    1492:	8e d1       	rcall	.+796    	; 0x17b0 <_ZN16trinityRackCV_HW17isr_updateClockInEv>
    1494:	8f e3       	ldi	r24, 0x3F	; 63
    1496:	96 e0       	ldi	r25, 0x06	; 6
    1498:	b7 d0       	rcall	.+366    	; 0x1608 <_ZN16trinityRackCV_HW13isr_updateADCEv>
    149a:	8f e3       	ldi	r24, 0x3F	; 63
    149c:	96 e0       	ldi	r25, 0x06	; 6
    149e:	03 d1       	rcall	.+518    	; 0x16a6 <_ZN16trinityRackCV_HW13isr_updateDACEv>
    14a0:	8f e3       	ldi	r24, 0x3F	; 63
    14a2:	96 e0       	ldi	r25, 0x06	; 6
    14a4:	27 c1       	rjmp	.+590    	; 0x16f4 <_ZN16trinityRackCV_HW16isr_updateSelectEv>

000014a6 <loop>:
    14a6:	80 91 41 06 	lds	r24, 0x0641
    14aa:	90 91 42 06 	lds	r25, 0x0642
    14ae:	a0 91 43 06 	lds	r26, 0x0643
    14b2:	b0 91 44 06 	lds	r27, 0x0644
    14b6:	40 91 05 02 	lds	r20, 0x0205
    14ba:	50 91 06 02 	lds	r21, 0x0206
    14be:	60 91 07 02 	lds	r22, 0x0207
    14c2:	70 91 08 02 	lds	r23, 0x0208
    14c6:	84 17       	cp	r24, r20
    14c8:	95 07       	cpc	r25, r21
    14ca:	a6 07       	cpc	r26, r22
    14cc:	b7 07       	cpc	r27, r23
    14ce:	99 f0       	breq	.+38     	; 0x14f6 <loop+0x50>
    14d0:	80 93 05 02 	sts	0x0205, r24
    14d4:	90 93 06 02 	sts	0x0206, r25
    14d8:	a0 93 07 02 	sts	0x0207, r26
    14dc:	b0 93 08 02 	sts	0x0208, r27
    14e0:	80 91 90 01 	lds	r24, 0x0190
    14e4:	90 91 91 01 	lds	r25, 0x0191
    14e8:	01 96       	adiw	r24, 0x01	; 1
    14ea:	90 93 91 01 	sts	0x0191, r25
    14ee:	80 93 90 01 	sts	0x0190, r24
    14f2:	d8 dc       	rcall	.-1616   	; 0xea4 <_Z12renderOutputv>
    14f4:	cc df       	rcall	.-104    	; 0x148e <_Z8updateHWv>
    14f6:	8f e0       	ldi	r24, 0x0F	; 15
    14f8:	92 e0       	ldi	r25, 0x02	; 2
    14fa:	66 c7       	rjmp	.+3788   	; 0x23c8 <_ZN19simpleSerialDecoder6updateEv>

000014fc <main>:
    14fc:	0e 94 32 16 	call	0x2c64	; 0x2c64 <init>
    1500:	f7 db       	rcall	.-2066   	; 0xcf0 <setup>
    1502:	d1 df       	rcall	.-94     	; 0x14a6 <loop>
    1504:	fe cf       	rjmp	.-4      	; 0x1502 <main+0x6>

00001506 <_GLOBAL__sub_I_main>:
    1506:	cf 93       	push	r28
    1508:	df 93       	push	r29
    150a:	cd ec       	ldi	r28, 0xCD	; 205
    150c:	d2 e0       	ldi	r29, 0x02	; 2
    150e:	ce 01       	movw	r24, r28
    1510:	e7 d2       	rcall	.+1486   	; 0x1ae0 <_ZN4ADSRC1Ev>
    1512:	c0 5c       	subi	r28, 0xC0	; 192
    1514:	df 4f       	sbci	r29, 0xFF	; 255
    1516:	84 e0       	ldi	r24, 0x04	; 4
    1518:	cd 34       	cpi	r28, 0x4D	; 77
    151a:	d8 07       	cpc	r29, r24
    151c:	c1 f7       	brne	.-16     	; 0x150e <_GLOBAL__sub_I_main+0x8>
    151e:	df 91       	pop	r29
    1520:	cf 91       	pop	r28
    1522:	08 95       	ret

00001524 <_GLOBAL__sub_D_main>:
    1524:	cf 93       	push	r28
    1526:	df 93       	push	r29
    1528:	cd e4       	ldi	r28, 0x4D	; 77
    152a:	d4 e0       	ldi	r29, 0x04	; 4
    152c:	c0 54       	subi	r28, 0x40	; 64
    152e:	d1 09       	sbc	r29, r1
    1530:	ce 01       	movw	r24, r28
    1532:	b2 d1       	rcall	.+868    	; 0x1898 <_ZN4ADSRD1Ev>
    1534:	82 e0       	ldi	r24, 0x02	; 2
    1536:	cd 3c       	cpi	r28, 0xCD	; 205
    1538:	d8 07       	cpc	r29, r24
    153a:	c1 f7       	brne	.-16     	; 0x152c <_GLOBAL__sub_D_main+0x8>
    153c:	df 91       	pop	r29
    153e:	cf 91       	pop	r28
    1540:	08 95       	ret

00001542 <_ZN16trinityRackCV_HW21getElapsedBastlCyclesEv>:
    1542:	fc 01       	movw	r30, r24
    1544:	42 81       	ldd	r20, Z+2	; 0x02
    1546:	53 81       	ldd	r21, Z+3	; 0x03
    1548:	64 81       	ldd	r22, Z+4	; 0x04
    154a:	75 81       	ldd	r23, Z+5	; 0x05
    154c:	ab 01       	movw	r20, r22
    154e:	66 27       	eor	r22, r22
    1550:	77 27       	eor	r23, r23
    1552:	ca 01       	movw	r24, r20
    1554:	08 95       	ret

00001556 <_ZN16trinityRackCV_HW14getButtonStateEh>:
    1556:	80 e0       	ldi	r24, 0x00	; 0
    1558:	90 e0       	ldi	r25, 0x00	; 0
    155a:	08 95       	ret

0000155c <_ZN16trinityRackCV_HW6setLEDEhN6ILEDHW8LedStateE>:
    155c:	08 95       	ret

0000155e <_ZN16trinityRackCV_HW12getKnobValueEh>:
    155e:	80 e0       	ldi	r24, 0x00	; 0
    1560:	08 95       	ret

00001562 <_ZN16trinityRackCV_HW10freezeKnobEhh>:
    1562:	08 95       	ret

00001564 <_ZN16trinityRackCV_HW10setKnobLEDEhh>:
    1564:	08 95       	ret

00001566 <_ZN16trinityRackCV_HW18setKnobLEDTrackingEhb>:
    1566:	08 95       	ret

00001568 <_ZN16trinityRackCV_HW8readSRAMEl>:
    1568:	80 e0       	ldi	r24, 0x00	; 0
    156a:	08 95       	ret

0000156c <_ZN16trinityRackCV_HW8readSRAMElPhj>:
    156c:	08 95       	ret

0000156e <_ZN16trinityRackCV_HW9writeSRAMElh>:
    156e:	08 95       	ret

00001570 <_ZN16trinityRackCV_HW9writeSRAMElPhj>:
    1570:	08 95       	ret

00001572 <_ZN16trinityRackCV_HW11writeEEPROMEjPhj>:
    1572:	80 e0       	ldi	r24, 0x00	; 0
    1574:	08 95       	ret

00001576 <_ZN16trinityRackCV_HW10readEEPROMEjPhj>:
    1576:	08 95       	ret

00001578 <_ZN16trinityRackCV_HW12giveSomeTimeEv>:
    1578:	08 95       	ret

0000157a <_ZN16trinityRackCV_HW11giveAllTimeEv>:
    157a:	08 95       	ret

0000157c <_ZN16trinityRackCV_HW23getBastlCyclesPerSecondEv>:
    157c:	60 91 b3 00 	lds	r22, 0x00B3
    1580:	89 e0       	ldi	r24, 0x09	; 9
    1582:	9d e3       	ldi	r25, 0x3D	; 61
    1584:	70 e0       	ldi	r23, 0x00	; 0
    1586:	0e 94 ad 1a 	call	0x355a	; 0x355a <__udivmodhi4>
    158a:	cb 01       	movw	r24, r22
    158c:	08 95       	ret

0000158e <_ZN14fastAnalogRead4initEv>:
    158e:	80 e4       	ldi	r24, 0x40	; 64
    1590:	80 93 7c 00 	sts	0x007C, r24
    1594:	ea e7       	ldi	r30, 0x7A	; 122
    1596:	f0 e0       	ldi	r31, 0x00	; 0
    1598:	80 e8       	ldi	r24, 0x80	; 128
    159a:	80 83       	st	Z, r24
    159c:	80 81       	ld	r24, Z
    159e:	87 60       	ori	r24, 0x07	; 7
    15a0:	80 83       	st	Z, r24
    15a2:	08 95       	ret

000015a4 <_ZN14fastAnalogRead14connectChannelEh>:
    15a4:	ec e7       	ldi	r30, 0x7C	; 124
    15a6:	f0 e0       	ldi	r31, 0x00	; 0
    15a8:	90 81       	ld	r25, Z
    15aa:	90 77       	andi	r25, 0x70	; 112
    15ac:	90 83       	st	Z, r25
    15ae:	90 81       	ld	r25, Z
    15b0:	98 2b       	or	r25, r24
    15b2:	90 83       	st	Z, r25
    15b4:	21 e0       	ldi	r18, 0x01	; 1
    15b6:	30 e0       	ldi	r19, 0x00	; 0
    15b8:	08 2e       	mov	r0, r24
    15ba:	01 c0       	rjmp	.+2      	; 0x15be <_ZN14fastAnalogRead14connectChannelEh+0x1a>
    15bc:	22 0f       	add	r18, r18
    15be:	0a 94       	dec	r0
    15c0:	ea f7       	brpl	.-6      	; 0x15bc <_ZN14fastAnalogRead14connectChannelEh+0x18>
    15c2:	20 93 7e 00 	sts	0x007E, r18
    15c6:	08 95       	ret

000015c8 <_ZN14fastAnalogRead15startConversionEv>:
    15c8:	ea e7       	ldi	r30, 0x7A	; 122
    15ca:	f0 e0       	ldi	r31, 0x00	; 0
    15cc:	80 81       	ld	r24, Z
    15ce:	80 64       	ori	r24, 0x40	; 64
    15d0:	80 83       	st	Z, r24
    15d2:	08 95       	ret

000015d4 <_ZN14fastAnalogRead20isConversionFinishedEv>:
    15d4:	80 91 7a 00 	lds	r24, 0x007A
    15d8:	82 95       	swap	r24
    15da:	81 70       	andi	r24, 0x01	; 1
    15dc:	08 95       	ret

000015de <_ZN14fastAnalogRead19getConversionResultEv>:
    15de:	20 91 78 00 	lds	r18, 0x0078
    15e2:	30 91 79 00 	lds	r19, 0x0079
    15e6:	93 2f       	mov	r25, r19
    15e8:	80 e0       	ldi	r24, 0x00	; 0
    15ea:	ac 01       	movw	r20, r24
    15ec:	42 2b       	or	r20, r18
    15ee:	9a 01       	movw	r18, r20
    15f0:	c9 01       	movw	r24, r18
    15f2:	08 95       	ret

000015f4 <_ZN16trinityRackCV_HW6setDACEhh>:
    15f4:	86 0f       	add	r24, r22
    15f6:	91 1d       	adc	r25, r1
    15f8:	fc 01       	movw	r30, r24
    15fa:	43 87       	std	Z+11, r20	; 0x0b
    15fc:	08 95       	ret

000015fe <_ZN16trinityRackCV_HW10getCVValueEh>:
    15fe:	86 0f       	add	r24, r22
    1600:	91 1d       	adc	r25, r1
    1602:	fc 01       	movw	r30, r24
    1604:	83 8d       	ldd	r24, Z+27	; 0x1b
    1606:	08 95       	ret

00001608 <_ZN16trinityRackCV_HW13isr_updateADCEv>:
    1608:	0f 93       	push	r16
    160a:	1f 93       	push	r17
    160c:	cf 93       	push	r28
    160e:	df 93       	push	r29
    1610:	ec 01       	movw	r28, r24
    1612:	e0 df       	rcall	.-64     	; 0x15d4 <_ZN14fastAnalogRead20isConversionFinishedEv>
    1614:	88 23       	and	r24, r24
    1616:	09 f4       	brne	.+2      	; 0x161a <_ZN16trinityRackCV_HW13isr_updateADCEv+0x12>
    1618:	41 c0       	rjmp	.+130    	; 0x169c <_ZN16trinityRackCV_HW13isr_updateADCEv+0x94>
    161a:	8f a1       	ldd	r24, Y+39	; 0x27
    161c:	8e 01       	movw	r16, r28
    161e:	08 0f       	add	r16, r24
    1620:	11 1d       	adc	r17, r1
    1622:	f8 01       	movw	r30, r16
    1624:	83 8d       	ldd	r24, Z+27	; 0x1b
    1626:	81 a3       	std	Z+33, r24	; 0x21
    1628:	da df       	rcall	.-76     	; 0x15de <_ZN14fastAnalogRead19getConversionResultEv>
    162a:	96 95       	lsr	r25
    162c:	87 95       	ror	r24
    162e:	96 95       	lsr	r25
    1630:	87 95       	ror	r24
    1632:	f8 01       	movw	r30, r16
    1634:	83 8f       	std	Z+27, r24	; 0x1b
    1636:	2f a1       	ldd	r18, Y+39	; 0x27
    1638:	fe 01       	movw	r30, r28
    163a:	e2 0f       	add	r30, r18
    163c:	f1 1d       	adc	r31, r1
    163e:	81 a1       	ldd	r24, Z+33	; 0x21
    1640:	90 e0       	ldi	r25, 0x00	; 0
    1642:	33 8d       	ldd	r19, Z+27	; 0x1b
    1644:	83 1b       	sub	r24, r19
    1646:	91 09       	sbc	r25, r1
    1648:	97 ff       	sbrs	r25, 7
    164a:	03 c0       	rjmp	.+6      	; 0x1652 <_ZN16trinityRackCV_HW13isr_updateADCEv+0x4a>
    164c:	91 95       	neg	r25
    164e:	81 95       	neg	r24
    1650:	91 09       	sbc	r25, r1
    1652:	38 a5       	ldd	r19, Y+40	; 0x28
    1654:	41 e0       	ldi	r20, 0x01	; 1
    1656:	50 e0       	ldi	r21, 0x00	; 0
    1658:	60 e0       	ldi	r22, 0x00	; 0
    165a:	70 e0       	ldi	r23, 0x00	; 0
    165c:	02 2e       	mov	r0, r18
    165e:	04 c0       	rjmp	.+8      	; 0x1668 <_ZN16trinityRackCV_HW13isr_updateADCEv+0x60>
    1660:	44 0f       	add	r20, r20
    1662:	55 1f       	adc	r21, r21
    1664:	66 1f       	adc	r22, r22
    1666:	77 1f       	adc	r23, r23
    1668:	0a 94       	dec	r0
    166a:	d2 f7       	brpl	.-12     	; 0x1660 <_ZN16trinityRackCV_HW13isr_updateADCEv+0x58>
    166c:	02 97       	sbiw	r24, 0x02	; 2
    166e:	14 f0       	brlt	.+4      	; 0x1674 <_ZN16trinityRackCV_HW13isr_updateADCEv+0x6c>
    1670:	43 2b       	or	r20, r19
    1672:	02 c0       	rjmp	.+4      	; 0x1678 <_ZN16trinityRackCV_HW13isr_updateADCEv+0x70>
    1674:	40 95       	com	r20
    1676:	43 23       	and	r20, r19
    1678:	48 a7       	std	Y+40, r20	; 0x28
    167a:	2f 5f       	subi	r18, 0xFF	; 255
    167c:	26 30       	cpi	r18, 0x06	; 6
    167e:	10 f4       	brcc	.+4      	; 0x1684 <_ZN16trinityRackCV_HW13isr_updateADCEv+0x7c>
    1680:	2f a3       	std	Y+39, r18	; 0x27
    1682:	01 c0       	rjmp	.+2      	; 0x1686 <_ZN16trinityRackCV_HW13isr_updateADCEv+0x7e>
    1684:	1f a2       	std	Y+39, r1	; 0x27
    1686:	ef a1       	ldd	r30, Y+39	; 0x27
    1688:	f0 e0       	ldi	r31, 0x00	; 0
    168a:	ee 58       	subi	r30, 0x8E	; 142
    168c:	fe 4f       	sbci	r31, 0xFE	; 254
    168e:	80 81       	ld	r24, Z
    1690:	89 df       	rcall	.-238    	; 0x15a4 <_ZN14fastAnalogRead14connectChannelEh>
    1692:	df 91       	pop	r29
    1694:	cf 91       	pop	r28
    1696:	1f 91       	pop	r17
    1698:	0f 91       	pop	r16
    169a:	96 cf       	rjmp	.-212    	; 0x15c8 <_ZN14fastAnalogRead15startConversionEv>
    169c:	df 91       	pop	r29
    169e:	cf 91       	pop	r28
    16a0:	1f 91       	pop	r17
    16a2:	0f 91       	pop	r16
    16a4:	08 95       	ret

000016a6 <_ZN16trinityRackCV_HW13isr_updateDACEv>:
    16a6:	fc 01       	movw	r30, r24
    16a8:	80 e0       	ldi	r24, 0x00	; 0
    16aa:	82 87       	std	Z+10, r24	; 0x0a
    16ac:	2a 9a       	sbi	0x05, 2	; 5
    16ae:	a2 85       	ldd	r26, Z+10	; 0x0a
    16b0:	b0 e0       	ldi	r27, 0x00	; 0
    16b2:	a8 58       	subi	r26, 0x88	; 136
    16b4:	be 4f       	sbci	r27, 0xFE	; 254
    16b6:	9c 91       	ld	r25, X
    16b8:	9e bd       	out	0x2e, r25	; 46
    16ba:	0d b4       	in	r0, 0x2d	; 45
    16bc:	07 fe       	sbrs	r0, 7
    16be:	fd cf       	rjmp	.-6      	; 0x16ba <_ZN16trinityRackCV_HW13isr_updateDACEv+0x14>
    16c0:	9e b5       	in	r25, 0x2e	; 46
    16c2:	92 85       	ldd	r25, Z+10	; 0x0a
    16c4:	df 01       	movw	r26, r30
    16c6:	a9 0f       	add	r26, r25
    16c8:	b1 1d       	adc	r27, r1
    16ca:	1b 96       	adiw	r26, 0x0b	; 11
    16cc:	9c 91       	ld	r25, X
    16ce:	9e bd       	out	0x2e, r25	; 46
    16d0:	0d b4       	in	r0, 0x2d	; 45
    16d2:	07 fe       	sbrs	r0, 7
    16d4:	fd cf       	rjmp	.-6      	; 0x16d0 <_ZN16trinityRackCV_HW13isr_updateDACEv+0x2a>
    16d6:	9e b5       	in	r25, 0x2e	; 46
    16d8:	2a 98       	cbi	0x05, 2	; 5
    16da:	92 85       	ldd	r25, Z+10	; 0x0a
    16dc:	df 01       	movw	r26, r30
    16de:	a9 0f       	add	r26, r25
    16e0:	b1 1d       	adc	r27, r1
    16e2:	1b 96       	adiw	r26, 0x0b	; 11
    16e4:	9c 91       	ld	r25, X
    16e6:	1b 97       	sbiw	r26, 0x0b	; 11
    16e8:	53 96       	adiw	r26, 0x13	; 19
    16ea:	9c 93       	st	X, r25
    16ec:	8f 5f       	subi	r24, 0xFF	; 255
    16ee:	87 30       	cpi	r24, 0x07	; 7
    16f0:	e1 f6       	brne	.-72     	; 0x16aa <_ZN16trinityRackCV_HW13isr_updateDACEv+0x4>
    16f2:	08 95       	ret

000016f4 <_ZN16trinityRackCV_HW16isr_updateSelectEv>:
    16f4:	fc 01       	movw	r30, r24
    16f6:	81 85       	ldd	r24, Z+9	; 0x09
    16f8:	83 30       	cpi	r24, 0x03	; 3
    16fa:	18 f0       	brcs	.+6      	; 0x1702 <_ZN16trinityRackCV_HW16isr_updateSelectEv+0xe>
    16fc:	28 9a       	sbi	0x05, 0	; 5
    16fe:	29 98       	cbi	0x05, 1	; 5
    1700:	08 95       	ret
    1702:	29 9a       	sbi	0x05, 1	; 5
    1704:	28 98       	cbi	0x05, 0	; 5
    1706:	08 95       	ret

00001708 <_ZN16trinityRackCV_HW8zeroDACsEv>:
    1708:	0f 93       	push	r16
    170a:	1f 93       	push	r17
    170c:	cf 93       	push	r28
    170e:	df 93       	push	r29
    1710:	8c 01       	movw	r16, r24
    1712:	c0 e0       	ldi	r28, 0x00	; 0
    1714:	d0 e0       	ldi	r29, 0x00	; 0
    1716:	f8 01       	movw	r30, r16
    1718:	c2 87       	std	Z+10, r28	; 0x0a
    171a:	ec 0f       	add	r30, r28
    171c:	fd 1f       	adc	r31, r29
    171e:	13 86       	std	Z+11, r1	; 0x0b
    1720:	c8 01       	movw	r24, r16
    1722:	c1 df       	rcall	.-126    	; 0x16a6 <_ZN16trinityRackCV_HW13isr_updateDACEv>
    1724:	21 96       	adiw	r28, 0x01	; 1
    1726:	c8 30       	cpi	r28, 0x08	; 8
    1728:	d1 05       	cpc	r29, r1
    172a:	a9 f7       	brne	.-22     	; 0x1716 <_ZN16trinityRackCV_HW8zeroDACsEv+0xe>
    172c:	df 91       	pop	r29
    172e:	cf 91       	pop	r28
    1730:	1f 91       	pop	r17
    1732:	0f 91       	pop	r16
    1734:	08 95       	ret

00001736 <_ZN16trinityRackCV_HW7DACInitEv>:
    1736:	cf 93       	push	r28
    1738:	df 93       	push	r29
    173a:	ec 01       	movw	r28, r24
    173c:	7b d0       	rcall	.+246    	; 0x1834 <_ZN8SPIClass5beginEv>
    173e:	81 e0       	ldi	r24, 0x01	; 1
    1740:	8f d0       	rcall	.+286    	; 0x1860 <_ZN8SPIClass11setBitOrderEh>
    1742:	81 e0       	ldi	r24, 0x01	; 1
    1744:	9b d0       	rcall	.+310    	; 0x187c <_ZN8SPIClass15setClockDividerEh>
    1746:	84 e0       	ldi	r24, 0x04	; 4
    1748:	94 d0       	rcall	.+296    	; 0x1872 <_ZN8SPIClass11setDataModeEh>
    174a:	2a 98       	cbi	0x05, 2	; 5
    174c:	1a 86       	std	Y+10, r1	; 0x0a
    174e:	ce 01       	movw	r24, r28
    1750:	df 91       	pop	r29
    1752:	cf 91       	pop	r28
    1754:	d9 cf       	rjmp	.-78     	; 0x1708 <_ZN16trinityRackCV_HW8zeroDACsEv>

00001756 <_ZN16trinityRackCV_HW4initEPFvvE>:
    1756:	0f 93       	push	r16
    1758:	1f 93       	push	r17
    175a:	cf 93       	push	r28
    175c:	df 93       	push	r29
    175e:	ec 01       	movw	r28, r24
    1760:	8b 01       	movw	r16, r22
    1762:	f8 94       	cli
    1764:	53 98       	cbi	0x0a, 3	; 10
    1766:	5b 9a       	sbi	0x0b, 3	; 11
    1768:	22 9a       	sbi	0x04, 2	; 4
    176a:	21 9a       	sbi	0x04, 1	; 4
    176c:	20 9a       	sbi	0x04, 0	; 4
    176e:	20 9a       	sbi	0x04, 0	; 4
    1770:	21 9a       	sbi	0x04, 1	; 4
    1772:	e1 df       	rcall	.-62     	; 0x1736 <_ZN16trinityRackCV_HW7DACInitEv>
    1774:	18 87       	std	Y+8, r17	; 0x08
    1776:	0f 83       	std	Y+7, r16	; 0x07
    1778:	82 e0       	ldi	r24, 0x02	; 2
    177a:	80 93 b0 00 	sts	0x00B0, r24
    177e:	e0 e7       	ldi	r30, 0x70	; 112
    1780:	f0 e0       	ldi	r31, 0x00	; 0
    1782:	80 81       	ld	r24, Z
    1784:	82 60       	ori	r24, 0x02	; 2
    1786:	80 83       	st	Z, r24
    1788:	87 e0       	ldi	r24, 0x07	; 7
    178a:	80 93 b1 00 	sts	0x00B1, r24
    178e:	8f e0       	ldi	r24, 0x0F	; 15
    1790:	80 93 b3 00 	sts	0x00B3, r24
    1794:	10 92 b2 00 	sts	0x00B2, r1
    1798:	fa de       	rcall	.-524    	; 0x158e <_ZN14fastAnalogRead4initEv>
    179a:	1f a2       	std	Y+39, r1	; 0x27
    179c:	80 e0       	ldi	r24, 0x00	; 0
    179e:	02 df       	rcall	.-508    	; 0x15a4 <_ZN14fastAnalogRead14connectChannelEh>
    17a0:	13 df       	rcall	.-474    	; 0x15c8 <_ZN14fastAnalogRead15startConversionEv>
    17a2:	18 a6       	std	Y+40, r1	; 0x28
    17a4:	78 94       	sei
    17a6:	df 91       	pop	r29
    17a8:	cf 91       	pop	r28
    17aa:	1f 91       	pop	r17
    17ac:	0f 91       	pop	r16
    17ae:	08 95       	ret

000017b0 <_ZN16trinityRackCV_HW17isr_updateClockInEv>:
    17b0:	1f 93       	push	r17
    17b2:	cf 93       	push	r28
    17b4:	df 93       	push	r29
    17b6:	ec 01       	movw	r28, r24
    17b8:	ef 81       	ldd	r30, Y+7	; 0x07
    17ba:	f8 85       	ldd	r31, Y+8	; 0x08
    17bc:	30 97       	sbiw	r30, 0x00	; 0
    17be:	61 f0       	breq	.+24     	; 0x17d8 <_ZN16trinityRackCV_HW17isr_updateClockInEv+0x28>
    17c0:	19 b1       	in	r17, 0x09	; 9
    17c2:	13 fb       	bst	r17, 3
    17c4:	11 27       	eor	r17, r17
    17c6:	10 f9       	bld	r17, 0
    17c8:	81 e0       	ldi	r24, 0x01	; 1
    17ca:	18 27       	eor	r17, r24
    17cc:	21 f0       	breq	.+8      	; 0x17d6 <_ZN16trinityRackCV_HW17isr_updateClockInEv+0x26>
    17ce:	8e 81       	ldd	r24, Y+6	; 0x06
    17d0:	81 11       	cpse	r24, r1
    17d2:	01 c0       	rjmp	.+2      	; 0x17d6 <_ZN16trinityRackCV_HW17isr_updateClockInEv+0x26>
    17d4:	09 95       	icall
    17d6:	1e 83       	std	Y+6, r17	; 0x06
    17d8:	df 91       	pop	r29
    17da:	cf 91       	pop	r28
    17dc:	1f 91       	pop	r17
    17de:	08 95       	ret

000017e0 <__vector_7>:
    17e0:	1f 92       	push	r1
    17e2:	0f 92       	push	r0
    17e4:	0f b6       	in	r0, 0x3f	; 63
    17e6:	0f 92       	push	r0
    17e8:	11 24       	eor	r1, r1
    17ea:	8f 93       	push	r24
    17ec:	9f 93       	push	r25
    17ee:	af 93       	push	r26
    17f0:	bf 93       	push	r27
    17f2:	ef 93       	push	r30
    17f4:	ff 93       	push	r31
    17f6:	ef e3       	ldi	r30, 0x3F	; 63
    17f8:	f6 e0       	ldi	r31, 0x06	; 6
    17fa:	82 81       	ldd	r24, Z+2	; 0x02
    17fc:	93 81       	ldd	r25, Z+3	; 0x03
    17fe:	a4 81       	ldd	r26, Z+4	; 0x04
    1800:	b5 81       	ldd	r27, Z+5	; 0x05
    1802:	01 96       	adiw	r24, 0x01	; 1
    1804:	a1 1d       	adc	r26, r1
    1806:	b1 1d       	adc	r27, r1
    1808:	82 83       	std	Z+2, r24	; 0x02
    180a:	93 83       	std	Z+3, r25	; 0x03
    180c:	a4 83       	std	Z+4, r26	; 0x04
    180e:	b5 83       	std	Z+5, r27	; 0x05
    1810:	ff 91       	pop	r31
    1812:	ef 91       	pop	r30
    1814:	bf 91       	pop	r27
    1816:	af 91       	pop	r26
    1818:	9f 91       	pop	r25
    181a:	8f 91       	pop	r24
    181c:	0f 90       	pop	r0
    181e:	0f be       	out	0x3f, r0	; 63
    1820:	0f 90       	pop	r0
    1822:	1f 90       	pop	r1
    1824:	18 95       	reti

00001826 <_GLOBAL__sub_I__ZN14fastAnalogRead4initEv>:
    1826:	82 e5       	ldi	r24, 0x52	; 82
    1828:	91 e0       	ldi	r25, 0x01	; 1
    182a:	90 93 40 06 	sts	0x0640, r25
    182e:	80 93 3f 06 	sts	0x063F, r24
    1832:	08 95       	ret

00001834 <_ZN8SPIClass5beginEv>:
    1834:	61 e0       	ldi	r22, 0x01	; 1
    1836:	8a e0       	ldi	r24, 0x0A	; 10
    1838:	0e 94 cf 16 	call	0x2d9e	; 0x2d9e <digitalWrite>
    183c:	61 e0       	ldi	r22, 0x01	; 1
    183e:	8a e0       	ldi	r24, 0x0A	; 10
    1840:	0e 94 97 16 	call	0x2d2e	; 0x2d2e <pinMode>
    1844:	8c b5       	in	r24, 0x2c	; 44
    1846:	80 61       	ori	r24, 0x10	; 16
    1848:	8c bd       	out	0x2c, r24	; 44
    184a:	8c b5       	in	r24, 0x2c	; 44
    184c:	80 64       	ori	r24, 0x40	; 64
    184e:	8c bd       	out	0x2c, r24	; 44
    1850:	61 e0       	ldi	r22, 0x01	; 1
    1852:	8d e0       	ldi	r24, 0x0D	; 13
    1854:	0e 94 97 16 	call	0x2d2e	; 0x2d2e <pinMode>
    1858:	61 e0       	ldi	r22, 0x01	; 1
    185a:	8b e0       	ldi	r24, 0x0B	; 11
    185c:	0c 94 97 16 	jmp	0x2d2e	; 0x2d2e <pinMode>

00001860 <_ZN8SPIClass11setBitOrderEh>:
    1860:	81 11       	cpse	r24, r1
    1862:	03 c0       	rjmp	.+6      	; 0x186a <_ZN8SPIClass11setBitOrderEh+0xa>
    1864:	8c b5       	in	r24, 0x2c	; 44
    1866:	80 62       	ori	r24, 0x20	; 32
    1868:	02 c0       	rjmp	.+4      	; 0x186e <_ZN8SPIClass11setBitOrderEh+0xe>
    186a:	8c b5       	in	r24, 0x2c	; 44
    186c:	8f 7d       	andi	r24, 0xDF	; 223
    186e:	8c bd       	out	0x2c, r24	; 44
    1870:	08 95       	ret

00001872 <_ZN8SPIClass11setDataModeEh>:
    1872:	9c b5       	in	r25, 0x2c	; 44
    1874:	93 7f       	andi	r25, 0xF3	; 243
    1876:	98 2b       	or	r25, r24
    1878:	9c bd       	out	0x2c, r25	; 44
    187a:	08 95       	ret

0000187c <_ZN8SPIClass15setClockDividerEh>:
    187c:	2c b5       	in	r18, 0x2c	; 44
    187e:	98 2f       	mov	r25, r24
    1880:	93 70       	andi	r25, 0x03	; 3
    1882:	2c 7f       	andi	r18, 0xFC	; 252
    1884:	92 2b       	or	r25, r18
    1886:	9c bd       	out	0x2c, r25	; 44
    1888:	9d b5       	in	r25, 0x2d	; 45
    188a:	82 fb       	bst	r24, 2
    188c:	88 27       	eor	r24, r24
    188e:	80 f9       	bld	r24, 0
    1890:	9e 7f       	andi	r25, 0xFE	; 254
    1892:	98 2b       	or	r25, r24
    1894:	9d bd       	out	0x2d, r25	; 45
    1896:	08 95       	ret

00001898 <_ZN4ADSRD1Ev>:
    1898:	08 95       	ret

0000189a <_ZN4ADSR4syncEv>:
    189a:	08 95       	ret

0000189c <_ZN4ADSR8calcCoefEff>:
    189c:	8f 92       	push	r8
    189e:	9f 92       	push	r9
    18a0:	af 92       	push	r10
    18a2:	bf 92       	push	r11
    18a4:	cf 92       	push	r12
    18a6:	df 92       	push	r13
    18a8:	ef 92       	push	r14
    18aa:	ff 92       	push	r15
    18ac:	0f 93       	push	r16
    18ae:	1f 93       	push	r17
    18b0:	4a 01       	movw	r8, r20
    18b2:	5b 01       	movw	r10, r22
    18b4:	68 01       	movw	r12, r16
    18b6:	79 01       	movw	r14, r18
    18b8:	20 e0       	ldi	r18, 0x00	; 0
    18ba:	30 e0       	ldi	r19, 0x00	; 0
    18bc:	40 e8       	ldi	r20, 0x80	; 128
    18be:	5f e3       	ldi	r21, 0x3F	; 63
    18c0:	c7 01       	movw	r24, r14
    18c2:	b6 01       	movw	r22, r12
    18c4:	0e 94 5f 17 	call	0x2ebe	; 0x2ebe <__addsf3>
    18c8:	a7 01       	movw	r20, r14
    18ca:	96 01       	movw	r18, r12
    18cc:	0e 94 c7 17 	call	0x2f8e	; 0x2f8e <__divsf3>
    18d0:	0e 94 ae 19 	call	0x335c	; 0x335c <log>
    18d4:	90 58       	subi	r25, 0x80	; 128
    18d6:	a5 01       	movw	r20, r10
    18d8:	94 01       	movw	r18, r8
    18da:	0e 94 c7 17 	call	0x2f8e	; 0x2f8e <__divsf3>
    18de:	1f 91       	pop	r17
    18e0:	0f 91       	pop	r16
    18e2:	ff 90       	pop	r15
    18e4:	ef 90       	pop	r14
    18e6:	df 90       	pop	r13
    18e8:	cf 90       	pop	r12
    18ea:	bf 90       	pop	r11
    18ec:	af 90       	pop	r10
    18ee:	9f 90       	pop	r9
    18f0:	8f 90       	pop	r8
    18f2:	0c 94 34 18 	jmp	0x3068	; 0x3068 <exp>

000018f6 <_ZN4ADSR14setReleaseRateEf>:
    18f6:	cf 92       	push	r12
    18f8:	df 92       	push	r13
    18fa:	ef 92       	push	r14
    18fc:	ff 92       	push	r15
    18fe:	0f 93       	push	r16
    1900:	1f 93       	push	r17
    1902:	cf 93       	push	r28
    1904:	df 93       	push	r29
    1906:	ec 01       	movw	r28, r24
    1908:	48 8f       	std	Y+24, r20	; 0x18
    190a:	59 8f       	std	Y+25, r21	; 0x19
    190c:	6a 8f       	std	Y+26, r22	; 0x1a
    190e:	7b 8f       	std	Y+27, r23	; 0x1b
    1910:	c8 a8       	ldd	r12, Y+48	; 0x30
    1912:	d9 a8       	ldd	r13, Y+49	; 0x31
    1914:	ea a8       	ldd	r14, Y+50	; 0x32
    1916:	fb a8       	ldd	r15, Y+51	; 0x33
    1918:	97 01       	movw	r18, r14
    191a:	86 01       	movw	r16, r12
    191c:	bf df       	rcall	.-130    	; 0x189c <_ZN4ADSR8calcCoefEff>
    191e:	9b 01       	movw	r18, r22
    1920:	ac 01       	movw	r20, r24
    1922:	6c a3       	std	Y+36, r22	; 0x24
    1924:	7d a3       	std	Y+37, r23	; 0x25
    1926:	8e a3       	std	Y+38, r24	; 0x26
    1928:	9f a3       	std	Y+39, r25	; 0x27
    192a:	f7 fa       	bst	r15, 7
    192c:	f0 94       	com	r15
    192e:	f7 f8       	bld	r15, 7
    1930:	f0 94       	com	r15
    1932:	60 e0       	ldi	r22, 0x00	; 0
    1934:	70 e0       	ldi	r23, 0x00	; 0
    1936:	80 e8       	ldi	r24, 0x80	; 128
    1938:	9f e3       	ldi	r25, 0x3F	; 63
    193a:	0e 94 5e 17 	call	0x2ebc	; 0x2ebc <__subsf3>
    193e:	9b 01       	movw	r18, r22
    1940:	ac 01       	movw	r20, r24
    1942:	c7 01       	movw	r24, r14
    1944:	b6 01       	movw	r22, r12
    1946:	0e 94 21 1a 	call	0x3442	; 0x3442 <__mulsf3>
    194a:	6c af       	std	Y+60, r22	; 0x3c
    194c:	7d af       	std	Y+61, r23	; 0x3d
    194e:	8e af       	std	Y+62, r24	; 0x3e
    1950:	9f af       	std	Y+63, r25	; 0x3f
    1952:	df 91       	pop	r29
    1954:	cf 91       	pop	r28
    1956:	1f 91       	pop	r17
    1958:	0f 91       	pop	r16
    195a:	ff 90       	pop	r15
    195c:	ef 90       	pop	r14
    195e:	df 90       	pop	r13
    1960:	cf 90       	pop	r12
    1962:	08 95       	ret

00001964 <_ZN4ADSR12setDecayRateEf>:
    1964:	8f 92       	push	r8
    1966:	9f 92       	push	r9
    1968:	af 92       	push	r10
    196a:	bf 92       	push	r11
    196c:	cf 92       	push	r12
    196e:	df 92       	push	r13
    1970:	ef 92       	push	r14
    1972:	ff 92       	push	r15
    1974:	0f 93       	push	r16
    1976:	1f 93       	push	r17
    1978:	cf 93       	push	r28
    197a:	df 93       	push	r29
    197c:	ec 01       	movw	r28, r24
    197e:	4c 8b       	std	Y+20, r20	; 0x14
    1980:	5d 8b       	std	Y+21, r21	; 0x15
    1982:	6e 8b       	std	Y+22, r22	; 0x16
    1984:	7f 8b       	std	Y+23, r23	; 0x17
    1986:	c8 a8       	ldd	r12, Y+48	; 0x30
    1988:	d9 a8       	ldd	r13, Y+49	; 0x31
    198a:	ea a8       	ldd	r14, Y+50	; 0x32
    198c:	fb a8       	ldd	r15, Y+51	; 0x33
    198e:	97 01       	movw	r18, r14
    1990:	86 01       	movw	r16, r12
    1992:	84 df       	rcall	.-248    	; 0x189c <_ZN4ADSR8calcCoefEff>
    1994:	4b 01       	movw	r8, r22
    1996:	5c 01       	movw	r10, r24
    1998:	68 a3       	std	Y+32, r22	; 0x20
    199a:	79 a3       	std	Y+33, r23	; 0x21
    199c:	8a a3       	std	Y+34, r24	; 0x22
    199e:	9b a3       	std	Y+35, r25	; 0x23
    19a0:	a7 01       	movw	r20, r14
    19a2:	96 01       	movw	r18, r12
    19a4:	68 a5       	ldd	r22, Y+40	; 0x28
    19a6:	79 a5       	ldd	r23, Y+41	; 0x29
    19a8:	8a a5       	ldd	r24, Y+42	; 0x2a
    19aa:	9b a5       	ldd	r25, Y+43	; 0x2b
    19ac:	0e 94 5e 17 	call	0x2ebc	; 0x2ebc <__subsf3>
    19b0:	6b 01       	movw	r12, r22
    19b2:	7c 01       	movw	r14, r24
    19b4:	a5 01       	movw	r20, r10
    19b6:	94 01       	movw	r18, r8
    19b8:	60 e0       	ldi	r22, 0x00	; 0
    19ba:	70 e0       	ldi	r23, 0x00	; 0
    19bc:	80 e8       	ldi	r24, 0x80	; 128
    19be:	9f e3       	ldi	r25, 0x3F	; 63
    19c0:	0e 94 5e 17 	call	0x2ebc	; 0x2ebc <__subsf3>
    19c4:	9b 01       	movw	r18, r22
    19c6:	ac 01       	movw	r20, r24
    19c8:	c7 01       	movw	r24, r14
    19ca:	b6 01       	movw	r22, r12
    19cc:	0e 94 21 1a 	call	0x3442	; 0x3442 <__mulsf3>
    19d0:	68 af       	std	Y+56, r22	; 0x38
    19d2:	79 af       	std	Y+57, r23	; 0x39
    19d4:	8a af       	std	Y+58, r24	; 0x3a
    19d6:	9b af       	std	Y+59, r25	; 0x3b
    19d8:	df 91       	pop	r29
    19da:	cf 91       	pop	r28
    19dc:	1f 91       	pop	r17
    19de:	0f 91       	pop	r16
    19e0:	ff 90       	pop	r15
    19e2:	ef 90       	pop	r14
    19e4:	df 90       	pop	r13
    19e6:	cf 90       	pop	r12
    19e8:	bf 90       	pop	r11
    19ea:	af 90       	pop	r10
    19ec:	9f 90       	pop	r9
    19ee:	8f 90       	pop	r8
    19f0:	08 95       	ret

000019f2 <_ZN4ADSR13setAttackRateEf>:
    19f2:	8f 92       	push	r8
    19f4:	9f 92       	push	r9
    19f6:	af 92       	push	r10
    19f8:	bf 92       	push	r11
    19fa:	cf 92       	push	r12
    19fc:	df 92       	push	r13
    19fe:	ef 92       	push	r14
    1a00:	ff 92       	push	r15
    1a02:	0f 93       	push	r16
    1a04:	1f 93       	push	r17
    1a06:	cf 93       	push	r28
    1a08:	df 93       	push	r29
    1a0a:	ec 01       	movw	r28, r24
    1a0c:	48 8b       	std	Y+16, r20	; 0x10
    1a0e:	59 8b       	std	Y+17, r21	; 0x11
    1a10:	6a 8b       	std	Y+18, r22	; 0x12
    1a12:	7b 8b       	std	Y+19, r23	; 0x13
    1a14:	cc a4       	ldd	r12, Y+44	; 0x2c
    1a16:	dd a4       	ldd	r13, Y+45	; 0x2d
    1a18:	ee a4       	ldd	r14, Y+46	; 0x2e
    1a1a:	ff a4       	ldd	r15, Y+47	; 0x2f
    1a1c:	97 01       	movw	r18, r14
    1a1e:	86 01       	movw	r16, r12
    1a20:	3d df       	rcall	.-390    	; 0x189c <_ZN4ADSR8calcCoefEff>
    1a22:	4b 01       	movw	r8, r22
    1a24:	5c 01       	movw	r10, r24
    1a26:	6c 8f       	std	Y+28, r22	; 0x1c
    1a28:	7d 8f       	std	Y+29, r23	; 0x1d
    1a2a:	8e 8f       	std	Y+30, r24	; 0x1e
    1a2c:	9f 8f       	std	Y+31, r25	; 0x1f
    1a2e:	20 e0       	ldi	r18, 0x00	; 0
    1a30:	30 e0       	ldi	r19, 0x00	; 0
    1a32:	40 e8       	ldi	r20, 0x80	; 128
    1a34:	5f e3       	ldi	r21, 0x3F	; 63
    1a36:	c7 01       	movw	r24, r14
    1a38:	b6 01       	movw	r22, r12
    1a3a:	0e 94 5f 17 	call	0x2ebe	; 0x2ebe <__addsf3>
    1a3e:	6b 01       	movw	r12, r22
    1a40:	7c 01       	movw	r14, r24
    1a42:	a5 01       	movw	r20, r10
    1a44:	94 01       	movw	r18, r8
    1a46:	60 e0       	ldi	r22, 0x00	; 0
    1a48:	70 e0       	ldi	r23, 0x00	; 0
    1a4a:	80 e8       	ldi	r24, 0x80	; 128
    1a4c:	9f e3       	ldi	r25, 0x3F	; 63
    1a4e:	0e 94 5e 17 	call	0x2ebc	; 0x2ebc <__subsf3>
    1a52:	9b 01       	movw	r18, r22
    1a54:	ac 01       	movw	r20, r24
    1a56:	c7 01       	movw	r24, r14
    1a58:	b6 01       	movw	r22, r12
    1a5a:	0e 94 21 1a 	call	0x3442	; 0x3442 <__mulsf3>
    1a5e:	6c ab       	std	Y+52, r22	; 0x34
    1a60:	7d ab       	std	Y+53, r23	; 0x35
    1a62:	8e ab       	std	Y+54, r24	; 0x36
    1a64:	9f ab       	std	Y+55, r25	; 0x37
    1a66:	df 91       	pop	r29
    1a68:	cf 91       	pop	r28
    1a6a:	1f 91       	pop	r17
    1a6c:	0f 91       	pop	r16
    1a6e:	ff 90       	pop	r15
    1a70:	ef 90       	pop	r14
    1a72:	df 90       	pop	r13
    1a74:	cf 90       	pop	r12
    1a76:	bf 90       	pop	r11
    1a78:	af 90       	pop	r10
    1a7a:	9f 90       	pop	r9
    1a7c:	8f 90       	pop	r8
    1a7e:	08 95       	ret

00001a80 <_ZN4ADSR15setSustainLevelEf>:
    1a80:	cf 92       	push	r12
    1a82:	df 92       	push	r13
    1a84:	ef 92       	push	r14
    1a86:	ff 92       	push	r15
    1a88:	cf 93       	push	r28
    1a8a:	df 93       	push	r29
    1a8c:	ec 01       	movw	r28, r24
    1a8e:	cb 01       	movw	r24, r22
    1a90:	ba 01       	movw	r22, r20
    1a92:	68 a7       	std	Y+40, r22	; 0x28
    1a94:	79 a7       	std	Y+41, r23	; 0x29
    1a96:	8a a7       	std	Y+42, r24	; 0x2a
    1a98:	9b a7       	std	Y+43, r25	; 0x2b
    1a9a:	28 a9       	ldd	r18, Y+48	; 0x30
    1a9c:	39 a9       	ldd	r19, Y+49	; 0x31
    1a9e:	4a a9       	ldd	r20, Y+50	; 0x32
    1aa0:	5b a9       	ldd	r21, Y+51	; 0x33
    1aa2:	0e 94 5e 17 	call	0x2ebc	; 0x2ebc <__subsf3>
    1aa6:	6b 01       	movw	r12, r22
    1aa8:	7c 01       	movw	r14, r24
    1aaa:	28 a1       	ldd	r18, Y+32	; 0x20
    1aac:	39 a1       	ldd	r19, Y+33	; 0x21
    1aae:	4a a1       	ldd	r20, Y+34	; 0x22
    1ab0:	5b a1       	ldd	r21, Y+35	; 0x23
    1ab2:	60 e0       	ldi	r22, 0x00	; 0
    1ab4:	70 e0       	ldi	r23, 0x00	; 0
    1ab6:	80 e8       	ldi	r24, 0x80	; 128
    1ab8:	9f e3       	ldi	r25, 0x3F	; 63
    1aba:	0e 94 5e 17 	call	0x2ebc	; 0x2ebc <__subsf3>
    1abe:	9b 01       	movw	r18, r22
    1ac0:	ac 01       	movw	r20, r24
    1ac2:	c7 01       	movw	r24, r14
    1ac4:	b6 01       	movw	r22, r12
    1ac6:	0e 94 21 1a 	call	0x3442	; 0x3442 <__mulsf3>
    1aca:	68 af       	std	Y+56, r22	; 0x38
    1acc:	79 af       	std	Y+57, r23	; 0x39
    1ace:	8a af       	std	Y+58, r24	; 0x3a
    1ad0:	9b af       	std	Y+59, r25	; 0x3b
    1ad2:	df 91       	pop	r29
    1ad4:	cf 91       	pop	r28
    1ad6:	ff 90       	pop	r15
    1ad8:	ef 90       	pop	r14
    1ada:	df 90       	pop	r13
    1adc:	cf 90       	pop	r12
    1ade:	08 95       	ret

00001ae0 <_ZN4ADSRC1Ev>:
    1ae0:	cf 92       	push	r12
    1ae2:	df 92       	push	r13
    1ae4:	ef 92       	push	r14
    1ae6:	ff 92       	push	r15
    1ae8:	cf 93       	push	r28
    1aea:	df 93       	push	r29
    1aec:	ec 01       	movw	r28, r24
    1aee:	1b 82       	std	Y+3, r1	; 0x03
    1af0:	1a 82       	std	Y+2, r1	; 0x02
    1af2:	1c 86       	std	Y+12, r1	; 0x0c
    1af4:	1d 86       	std	Y+13, r1	; 0x0d
    1af6:	1e 86       	std	Y+14, r1	; 0x0e
    1af8:	1f 86       	std	Y+15, r1	; 0x0f
    1afa:	40 e0       	ldi	r20, 0x00	; 0
    1afc:	50 e0       	ldi	r21, 0x00	; 0
    1afe:	ba 01       	movw	r22, r20
    1b00:	78 df       	rcall	.-272    	; 0x19f2 <_ZN4ADSR13setAttackRateEf>
    1b02:	40 e0       	ldi	r20, 0x00	; 0
    1b04:	50 e0       	ldi	r21, 0x00	; 0
    1b06:	ba 01       	movw	r22, r20
    1b08:	ce 01       	movw	r24, r28
    1b0a:	2c df       	rcall	.-424    	; 0x1964 <_ZN4ADSR12setDecayRateEf>
    1b0c:	40 e0       	ldi	r20, 0x00	; 0
    1b0e:	50 e0       	ldi	r21, 0x00	; 0
    1b10:	ba 01       	movw	r22, r20
    1b12:	ce 01       	movw	r24, r28
    1b14:	f0 de       	rcall	.-544    	; 0x18f6 <_ZN4ADSR14setReleaseRateEf>
    1b16:	40 e0       	ldi	r20, 0x00	; 0
    1b18:	50 e0       	ldi	r21, 0x00	; 0
    1b1a:	60 e8       	ldi	r22, 0x80	; 128
    1b1c:	7f e3       	ldi	r23, 0x3F	; 63
    1b1e:	ce 01       	movw	r24, r28
    1b20:	af df       	rcall	.-162    	; 0x1a80 <_ZN4ADSR15setSustainLevelEf>
    1b22:	8a e9       	ldi	r24, 0x9A	; 154
    1b24:	99 e9       	ldi	r25, 0x99	; 153
    1b26:	a9 e9       	ldi	r26, 0x99	; 153
    1b28:	be e3       	ldi	r27, 0x3E	; 62
    1b2a:	8c a7       	std	Y+44, r24	; 0x2c
    1b2c:	9d a7       	std	Y+45, r25	; 0x2d
    1b2e:	ae a7       	std	Y+46, r26	; 0x2e
    1b30:	bf a7       	std	Y+47, r27	; 0x2f
    1b32:	2c 8d       	ldd	r18, Y+28	; 0x1c
    1b34:	3d 8d       	ldd	r19, Y+29	; 0x1d
    1b36:	4e 8d       	ldd	r20, Y+30	; 0x1e
    1b38:	5f 8d       	ldd	r21, Y+31	; 0x1f
    1b3a:	60 e0       	ldi	r22, 0x00	; 0
    1b3c:	70 e0       	ldi	r23, 0x00	; 0
    1b3e:	80 e8       	ldi	r24, 0x80	; 128
    1b40:	9f e3       	ldi	r25, 0x3F	; 63
    1b42:	0e 94 5e 17 	call	0x2ebc	; 0x2ebc <__subsf3>
    1b46:	26 e6       	ldi	r18, 0x66	; 102
    1b48:	36 e6       	ldi	r19, 0x66	; 102
    1b4a:	46 ea       	ldi	r20, 0xA6	; 166
    1b4c:	5f e3       	ldi	r21, 0x3F	; 63
    1b4e:	0e 94 21 1a 	call	0x3442	; 0x3442 <__mulsf3>
    1b52:	6c ab       	std	Y+52, r22	; 0x34
    1b54:	7d ab       	std	Y+53, r23	; 0x35
    1b56:	8e ab       	std	Y+54, r24	; 0x36
    1b58:	9f ab       	std	Y+55, r25	; 0x37
    1b5a:	87 e1       	ldi	r24, 0x17	; 23
    1b5c:	97 eb       	ldi	r25, 0xB7	; 183
    1b5e:	a1 ed       	ldi	r26, 0xD1	; 209
    1b60:	b8 e3       	ldi	r27, 0x38	; 56
    1b62:	88 ab       	std	Y+48, r24	; 0x30
    1b64:	99 ab       	std	Y+49, r25	; 0x31
    1b66:	aa ab       	std	Y+50, r26	; 0x32
    1b68:	bb ab       	std	Y+51, r27	; 0x33
    1b6a:	9c 01       	movw	r18, r24
    1b6c:	ad 01       	movw	r20, r26
    1b6e:	68 a5       	ldd	r22, Y+40	; 0x28
    1b70:	79 a5       	ldd	r23, Y+41	; 0x29
    1b72:	8a a5       	ldd	r24, Y+42	; 0x2a
    1b74:	9b a5       	ldd	r25, Y+43	; 0x2b
    1b76:	0e 94 5e 17 	call	0x2ebc	; 0x2ebc <__subsf3>
    1b7a:	6b 01       	movw	r12, r22
    1b7c:	7c 01       	movw	r14, r24
    1b7e:	28 a1       	ldd	r18, Y+32	; 0x20
    1b80:	39 a1       	ldd	r19, Y+33	; 0x21
    1b82:	4a a1       	ldd	r20, Y+34	; 0x22
    1b84:	5b a1       	ldd	r21, Y+35	; 0x23
    1b86:	60 e0       	ldi	r22, 0x00	; 0
    1b88:	70 e0       	ldi	r23, 0x00	; 0
    1b8a:	80 e8       	ldi	r24, 0x80	; 128
    1b8c:	9f e3       	ldi	r25, 0x3F	; 63
    1b8e:	0e 94 5e 17 	call	0x2ebc	; 0x2ebc <__subsf3>
    1b92:	9b 01       	movw	r18, r22
    1b94:	ac 01       	movw	r20, r24
    1b96:	c7 01       	movw	r24, r14
    1b98:	b6 01       	movw	r22, r12
    1b9a:	0e 94 21 1a 	call	0x3442	; 0x3442 <__mulsf3>
    1b9e:	68 af       	std	Y+56, r22	; 0x38
    1ba0:	79 af       	std	Y+57, r23	; 0x39
    1ba2:	8a af       	std	Y+58, r24	; 0x3a
    1ba4:	9b af       	std	Y+59, r25	; 0x3b
    1ba6:	2c a1       	ldd	r18, Y+36	; 0x24
    1ba8:	3d a1       	ldd	r19, Y+37	; 0x25
    1baa:	4e a1       	ldd	r20, Y+38	; 0x26
    1bac:	5f a1       	ldd	r21, Y+39	; 0x27
    1bae:	60 e0       	ldi	r22, 0x00	; 0
    1bb0:	70 e0       	ldi	r23, 0x00	; 0
    1bb2:	80 e8       	ldi	r24, 0x80	; 128
    1bb4:	9f e3       	ldi	r25, 0x3F	; 63
    1bb6:	0e 94 5e 17 	call	0x2ebc	; 0x2ebc <__subsf3>
    1bba:	27 e1       	ldi	r18, 0x17	; 23
    1bbc:	37 eb       	ldi	r19, 0xB7	; 183
    1bbe:	41 ed       	ldi	r20, 0xD1	; 209
    1bc0:	58 eb       	ldi	r21, 0xB8	; 184
    1bc2:	0e 94 21 1a 	call	0x3442	; 0x3442 <__mulsf3>
    1bc6:	6c af       	std	Y+60, r22	; 0x3c
    1bc8:	7d af       	std	Y+61, r23	; 0x3d
    1bca:	8e af       	std	Y+62, r24	; 0x3e
    1bcc:	9f af       	std	Y+63, r25	; 0x3f
    1bce:	19 82       	std	Y+1, r1	; 0x01
    1bd0:	df 91       	pop	r29
    1bd2:	cf 91       	pop	r28
    1bd4:	ff 90       	pop	r15
    1bd6:	ef 90       	pop	r14
    1bd8:	df 90       	pop	r13
    1bda:	cf 90       	pop	r12
    1bdc:	08 95       	ret

00001bde <_ZN4ADSR15setTargetRatioAEf>:
    1bde:	cf 92       	push	r12
    1be0:	df 92       	push	r13
    1be2:	ef 92       	push	r14
    1be4:	ff 92       	push	r15
    1be6:	cf 93       	push	r28
    1be8:	df 93       	push	r29
    1bea:	ec 01       	movw	r28, r24
    1bec:	6a 01       	movw	r12, r20
    1bee:	7b 01       	movw	r14, r22
    1bf0:	2f e5       	ldi	r18, 0x5F	; 95
    1bf2:	30 e7       	ldi	r19, 0x70	; 112
    1bf4:	49 e8       	ldi	r20, 0x89	; 137
    1bf6:	50 e3       	ldi	r21, 0x30	; 48
    1bf8:	c7 01       	movw	r24, r14
    1bfa:	b6 01       	movw	r22, r12
    1bfc:	0e 94 c3 17 	call	0x2f86	; 0x2f86 <__cmpsf2>
    1c00:	87 ff       	sbrs	r24, 7
    1c02:	08 c0       	rjmp	.+16     	; 0x1c14 <_ZN4ADSR15setTargetRatioAEf+0x36>
    1c04:	8f e5       	ldi	r24, 0x5F	; 95
    1c06:	c8 2e       	mov	r12, r24
    1c08:	80 e7       	ldi	r24, 0x70	; 112
    1c0a:	d8 2e       	mov	r13, r24
    1c0c:	89 e8       	ldi	r24, 0x89	; 137
    1c0e:	e8 2e       	mov	r14, r24
    1c10:	80 e3       	ldi	r24, 0x30	; 48
    1c12:	f8 2e       	mov	r15, r24
    1c14:	cc a6       	std	Y+44, r12	; 0x2c
    1c16:	dd a6       	std	Y+45, r13	; 0x2d
    1c18:	ee a6       	std	Y+46, r14	; 0x2e
    1c1a:	ff a6       	std	Y+47, r15	; 0x2f
    1c1c:	20 e0       	ldi	r18, 0x00	; 0
    1c1e:	30 e0       	ldi	r19, 0x00	; 0
    1c20:	40 e8       	ldi	r20, 0x80	; 128
    1c22:	5f e3       	ldi	r21, 0x3F	; 63
    1c24:	c7 01       	movw	r24, r14
    1c26:	b6 01       	movw	r22, r12
    1c28:	0e 94 5f 17 	call	0x2ebe	; 0x2ebe <__addsf3>
    1c2c:	6b 01       	movw	r12, r22
    1c2e:	7c 01       	movw	r14, r24
    1c30:	2c 8d       	ldd	r18, Y+28	; 0x1c
    1c32:	3d 8d       	ldd	r19, Y+29	; 0x1d
    1c34:	4e 8d       	ldd	r20, Y+30	; 0x1e
    1c36:	5f 8d       	ldd	r21, Y+31	; 0x1f
    1c38:	60 e0       	ldi	r22, 0x00	; 0
    1c3a:	70 e0       	ldi	r23, 0x00	; 0
    1c3c:	80 e8       	ldi	r24, 0x80	; 128
    1c3e:	9f e3       	ldi	r25, 0x3F	; 63
    1c40:	0e 94 5e 17 	call	0x2ebc	; 0x2ebc <__subsf3>
    1c44:	9b 01       	movw	r18, r22
    1c46:	ac 01       	movw	r20, r24
    1c48:	c7 01       	movw	r24, r14
    1c4a:	b6 01       	movw	r22, r12
    1c4c:	0e 94 21 1a 	call	0x3442	; 0x3442 <__mulsf3>
    1c50:	6c ab       	std	Y+52, r22	; 0x34
    1c52:	7d ab       	std	Y+53, r23	; 0x35
    1c54:	8e ab       	std	Y+54, r24	; 0x36
    1c56:	9f ab       	std	Y+55, r25	; 0x37
    1c58:	df 91       	pop	r29
    1c5a:	cf 91       	pop	r28
    1c5c:	ff 90       	pop	r15
    1c5e:	ef 90       	pop	r14
    1c60:	df 90       	pop	r13
    1c62:	cf 90       	pop	r12
    1c64:	08 95       	ret

00001c66 <_ZN4ADSR16setTargetRatioDREf>:
    1c66:	8f 92       	push	r8
    1c68:	9f 92       	push	r9
    1c6a:	af 92       	push	r10
    1c6c:	bf 92       	push	r11
    1c6e:	cf 92       	push	r12
    1c70:	df 92       	push	r13
    1c72:	ef 92       	push	r14
    1c74:	ff 92       	push	r15
    1c76:	cf 93       	push	r28
    1c78:	df 93       	push	r29
    1c7a:	ec 01       	movw	r28, r24
    1c7c:	6a 01       	movw	r12, r20
    1c7e:	7b 01       	movw	r14, r22
    1c80:	2f e5       	ldi	r18, 0x5F	; 95
    1c82:	30 e7       	ldi	r19, 0x70	; 112
    1c84:	49 e8       	ldi	r20, 0x89	; 137
    1c86:	50 e3       	ldi	r21, 0x30	; 48
    1c88:	c7 01       	movw	r24, r14
    1c8a:	b6 01       	movw	r22, r12
    1c8c:	0e 94 c3 17 	call	0x2f86	; 0x2f86 <__cmpsf2>
    1c90:	87 ff       	sbrs	r24, 7
    1c92:	08 c0       	rjmp	.+16     	; 0x1ca4 <_ZN4ADSR16setTargetRatioDREf+0x3e>
    1c94:	9f e5       	ldi	r25, 0x5F	; 95
    1c96:	c9 2e       	mov	r12, r25
    1c98:	90 e7       	ldi	r25, 0x70	; 112
    1c9a:	d9 2e       	mov	r13, r25
    1c9c:	99 e8       	ldi	r25, 0x89	; 137
    1c9e:	e9 2e       	mov	r14, r25
    1ca0:	90 e3       	ldi	r25, 0x30	; 48
    1ca2:	f9 2e       	mov	r15, r25
    1ca4:	c8 aa       	std	Y+48, r12	; 0x30
    1ca6:	d9 aa       	std	Y+49, r13	; 0x31
    1ca8:	ea aa       	std	Y+50, r14	; 0x32
    1caa:	fb aa       	std	Y+51, r15	; 0x33
    1cac:	a7 01       	movw	r20, r14
    1cae:	96 01       	movw	r18, r12
    1cb0:	68 a5       	ldd	r22, Y+40	; 0x28
    1cb2:	79 a5       	ldd	r23, Y+41	; 0x29
    1cb4:	8a a5       	ldd	r24, Y+42	; 0x2a
    1cb6:	9b a5       	ldd	r25, Y+43	; 0x2b
    1cb8:	0e 94 5e 17 	call	0x2ebc	; 0x2ebc <__subsf3>
    1cbc:	4b 01       	movw	r8, r22
    1cbe:	5c 01       	movw	r10, r24
    1cc0:	28 a1       	ldd	r18, Y+32	; 0x20
    1cc2:	39 a1       	ldd	r19, Y+33	; 0x21
    1cc4:	4a a1       	ldd	r20, Y+34	; 0x22
    1cc6:	5b a1       	ldd	r21, Y+35	; 0x23
    1cc8:	60 e0       	ldi	r22, 0x00	; 0
    1cca:	70 e0       	ldi	r23, 0x00	; 0
    1ccc:	80 e8       	ldi	r24, 0x80	; 128
    1cce:	9f e3       	ldi	r25, 0x3F	; 63
    1cd0:	0e 94 5e 17 	call	0x2ebc	; 0x2ebc <__subsf3>
    1cd4:	9b 01       	movw	r18, r22
    1cd6:	ac 01       	movw	r20, r24
    1cd8:	c5 01       	movw	r24, r10
    1cda:	b4 01       	movw	r22, r8
    1cdc:	0e 94 21 1a 	call	0x3442	; 0x3442 <__mulsf3>
    1ce0:	68 af       	std	Y+56, r22	; 0x38
    1ce2:	79 af       	std	Y+57, r23	; 0x39
    1ce4:	8a af       	std	Y+58, r24	; 0x3a
    1ce6:	9b af       	std	Y+59, r25	; 0x3b
    1ce8:	f7 fa       	bst	r15, 7
    1cea:	f0 94       	com	r15
    1cec:	f7 f8       	bld	r15, 7
    1cee:	f0 94       	com	r15
    1cf0:	2c a1       	ldd	r18, Y+36	; 0x24
    1cf2:	3d a1       	ldd	r19, Y+37	; 0x25
    1cf4:	4e a1       	ldd	r20, Y+38	; 0x26
    1cf6:	5f a1       	ldd	r21, Y+39	; 0x27
    1cf8:	60 e0       	ldi	r22, 0x00	; 0
    1cfa:	70 e0       	ldi	r23, 0x00	; 0
    1cfc:	80 e8       	ldi	r24, 0x80	; 128
    1cfe:	9f e3       	ldi	r25, 0x3F	; 63
    1d00:	0e 94 5e 17 	call	0x2ebc	; 0x2ebc <__subsf3>
    1d04:	9b 01       	movw	r18, r22
    1d06:	ac 01       	movw	r20, r24
    1d08:	c7 01       	movw	r24, r14
    1d0a:	b6 01       	movw	r22, r12
    1d0c:	0e 94 21 1a 	call	0x3442	; 0x3442 <__mulsf3>
    1d10:	6c af       	std	Y+60, r22	; 0x3c
    1d12:	7d af       	std	Y+61, r23	; 0x3d
    1d14:	8e af       	std	Y+62, r24	; 0x3e
    1d16:	9f af       	std	Y+63, r25	; 0x3f
    1d18:	df 91       	pop	r29
    1d1a:	cf 91       	pop	r28
    1d1c:	ff 90       	pop	r15
    1d1e:	ef 90       	pop	r14
    1d20:	df 90       	pop	r13
    1d22:	cf 90       	pop	r12
    1d24:	bf 90       	pop	r11
    1d26:	af 90       	pop	r10
    1d28:	9f 90       	pop	r9
    1d2a:	8f 90       	pop	r8
    1d2c:	08 95       	ret

00001d2e <_ZN19interpolatingBuffer4initEh>:
    1d2e:	fc 01       	movw	r30, r24
    1d30:	61 83       	std	Z+1, r22	; 0x01
    1d32:	08 95       	ret

00001d34 <_ZN19interpolatingBuffer4syncEv>:
    1d34:	08 95       	ret

00001d36 <_ZN19interpolatingBuffer7setStepEh>:
    1d36:	4f 92       	push	r4
    1d38:	8f 92       	push	r8
    1d3a:	9f 92       	push	r9
    1d3c:	af 92       	push	r10
    1d3e:	bf 92       	push	r11
    1d40:	cf 92       	push	r12
    1d42:	df 92       	push	r13
    1d44:	ef 92       	push	r14
    1d46:	ff 92       	push	r15
    1d48:	0f 93       	push	r16
    1d4a:	1f 93       	push	r17
    1d4c:	cf 93       	push	r28
    1d4e:	df 93       	push	r29
    1d50:	ec 01       	movw	r28, r24
    1d52:	96 2e       	mov	r9, r22
    1d54:	fc 01       	movw	r30, r24
    1d56:	ee 5a       	subi	r30, 0xAE	; 174
    1d58:	ff 4f       	sbci	r31, 0xFF	; 255
    1d5a:	60 83       	st	Z, r22
    1d5c:	fc 01       	movw	r30, r24
    1d5e:	eb 5b       	subi	r30, 0xBB	; 187
    1d60:	ff 4f       	sbci	r31, 0xFF	; 255
    1d62:	40 80       	ld	r4, Z
    1d64:	64 2d       	mov	r22, r4
    1d66:	70 e0       	ldi	r23, 0x00	; 0
    1d68:	80 e0       	ldi	r24, 0x00	; 0
    1d6a:	90 e0       	ldi	r25, 0x00	; 0
    1d6c:	fe 01       	movw	r30, r28
    1d6e:	e8 5b       	subi	r30, 0xB8	; 184
    1d70:	ff 4f       	sbci	r31, 0xFF	; 255
    1d72:	20 81       	ld	r18, Z
    1d74:	31 81       	ldd	r19, Z+1	; 0x01
    1d76:	89 01       	movw	r16, r18
    1d78:	1f 92       	push	r1
    1d7a:	1f 92       	push	r1
    1d7c:	1f 93       	push	r17
    1d7e:	2f 93       	push	r18
    1d80:	a1 2c       	mov	r10, r1
    1d82:	b1 2c       	mov	r11, r1
    1d84:	65 01       	movw	r12, r10
    1d86:	a3 94       	inc	r10
    1d88:	e1 2c       	mov	r14, r1
    1d8a:	f1 2c       	mov	r15, r1
    1d8c:	87 01       	movw	r16, r14
    1d8e:	ea 94       	dec	r14
    1d90:	20 e0       	ldi	r18, 0x00	; 0
    1d92:	30 e0       	ldi	r19, 0x00	; 0
    1d94:	a9 01       	movw	r20, r18
    1d96:	d7 d6       	rcall	.+3502   	; 0x2b46 <_Z3maplllll>
    1d98:	8b 01       	movw	r16, r22
    1d9a:	fe 01       	movw	r30, r28
    1d9c:	e0 5b       	subi	r30, 0xB0	; 176
    1d9e:	ff 4f       	sbci	r31, 0xFF	; 255
    1da0:	71 83       	std	Z+1, r23	; 0x01
    1da2:	60 83       	st	Z, r22
    1da4:	0f 90       	pop	r0
    1da6:	0f 90       	pop	r0
    1da8:	0f 90       	pop	r0
    1daa:	0f 90       	pop	r0
    1dac:	8a 81       	ldd	r24, Y+2	; 0x02
    1dae:	88 23       	and	r24, r24
    1db0:	09 f4       	brne	.+2      	; 0x1db4 <_ZN19interpolatingBuffer7setStepEh+0x7e>
    1db2:	7e c0       	rjmp	.+252    	; 0x1eb0 <_ZN19interpolatingBuffer7setStepEh+0x17a>
    1db4:	2e e1       	ldi	r18, 0x1E	; 30
    1db6:	29 15       	cp	r18, r9
    1db8:	e8 f1       	brcs	.+122    	; 0x1e34 <_ZN19interpolatingBuffer7setStepEh+0xfe>
    1dba:	7e 01       	movw	r14, r28
    1dbc:	e9 0c       	add	r14, r9
    1dbe:	f1 1c       	adc	r15, r1
    1dc0:	f7 01       	movw	r30, r14
    1dc2:	64 81       	ldd	r22, Z+4	; 0x04
    1dc4:	70 e0       	ldi	r23, 0x00	; 0
    1dc6:	80 e0       	ldi	r24, 0x00	; 0
    1dc8:	90 e0       	ldi	r25, 0x00	; 0
    1dca:	0e 94 91 18 	call	0x3122	; 0x3122 <__floatunsisf>
    1dce:	4b 01       	movw	r8, r22
    1dd0:	5c 01       	movw	r10, r24
    1dd2:	f7 01       	movw	r30, r14
    1dd4:	63 81       	ldd	r22, Z+3	; 0x03
    1dd6:	70 e0       	ldi	r23, 0x00	; 0
    1dd8:	80 e0       	ldi	r24, 0x00	; 0
    1dda:	90 e0       	ldi	r25, 0x00	; 0
    1ddc:	0e 94 91 18 	call	0x3122	; 0x3122 <__floatunsisf>
    1de0:	e9 80       	ldd	r14, Y+1	; 0x01
    1de2:	f8 e0       	ldi	r31, 0x08	; 8
    1de4:	ef 9e       	mul	r14, r31
    1de6:	70 01       	movw	r14, r0
    1de8:	11 24       	eor	r1, r1
    1dea:	28 e6       	ldi	r18, 0x68	; 104
    1dec:	36 e0       	ldi	r19, 0x06	; 6
    1dee:	e2 0e       	add	r14, r18
    1df0:	f3 1e       	adc	r15, r19
    1df2:	2f b7       	in	r18, 0x3f	; 63
    1df4:	f8 94       	cli
    1df6:	f7 01       	movw	r30, r14
    1df8:	60 83       	st	Z, r22
    1dfa:	71 83       	std	Z+1, r23	; 0x01
    1dfc:	82 83       	std	Z+2, r24	; 0x02
    1dfe:	93 83       	std	Z+3, r25	; 0x03
    1e00:	2f bf       	out	0x3f, r18	; 63
    1e02:	20 81       	ld	r18, Z
    1e04:	31 81       	ldd	r19, Z+1	; 0x01
    1e06:	42 81       	ldd	r20, Z+2	; 0x02
    1e08:	53 81       	ldd	r21, Z+3	; 0x03
    1e0a:	c5 01       	movw	r24, r10
    1e0c:	b4 01       	movw	r22, r8
    1e0e:	0e 94 5e 17 	call	0x2ebc	; 0x2ebc <__subsf3>
    1e12:	4b 01       	movw	r8, r22
    1e14:	5c 01       	movw	r10, r24
    1e16:	b8 01       	movw	r22, r16
    1e18:	80 e0       	ldi	r24, 0x00	; 0
    1e1a:	90 e0       	ldi	r25, 0x00	; 0
    1e1c:	0e 94 91 18 	call	0x3122	; 0x3122 <__floatunsisf>
    1e20:	9b 01       	movw	r18, r22
    1e22:	ac 01       	movw	r20, r24
    1e24:	c5 01       	movw	r24, r10
    1e26:	b4 01       	movw	r22, r8
    1e28:	0e 94 c7 17 	call	0x2f8e	; 0x2f8e <__divsf3>
    1e2c:	ab 01       	movw	r20, r22
    1e2e:	bc 01       	movw	r22, r24
    1e30:	f7 01       	movw	r30, r14
    1e32:	3a c0       	rjmp	.+116    	; 0x1ea8 <_ZN19interpolatingBuffer7setStepEh+0x172>
    1e34:	6b 81       	ldd	r22, Y+3	; 0x03
    1e36:	70 e0       	ldi	r23, 0x00	; 0
    1e38:	80 e0       	ldi	r24, 0x00	; 0
    1e3a:	90 e0       	ldi	r25, 0x00	; 0
    1e3c:	0e 94 91 18 	call	0x3122	; 0x3122 <__floatunsisf>
    1e40:	6b 01       	movw	r12, r22
    1e42:	7c 01       	movw	r14, r24
    1e44:	fe 01       	movw	r30, r28
    1e46:	e9 0d       	add	r30, r9
    1e48:	f1 1d       	adc	r31, r1
    1e4a:	63 81       	ldd	r22, Z+3	; 0x03
    1e4c:	70 e0       	ldi	r23, 0x00	; 0
    1e4e:	80 e0       	ldi	r24, 0x00	; 0
    1e50:	90 e0       	ldi	r25, 0x00	; 0
    1e52:	0e 94 91 18 	call	0x3122	; 0x3122 <__floatunsisf>
    1e56:	89 80       	ldd	r8, Y+1	; 0x01
    1e58:	f8 e0       	ldi	r31, 0x08	; 8
    1e5a:	8f 9e       	mul	r8, r31
    1e5c:	40 01       	movw	r8, r0
    1e5e:	11 24       	eor	r1, r1
    1e60:	28 e6       	ldi	r18, 0x68	; 104
    1e62:	36 e0       	ldi	r19, 0x06	; 6
    1e64:	82 0e       	add	r8, r18
    1e66:	93 1e       	adc	r9, r19
    1e68:	2f b7       	in	r18, 0x3f	; 63
    1e6a:	f8 94       	cli
    1e6c:	f4 01       	movw	r30, r8
    1e6e:	60 83       	st	Z, r22
    1e70:	71 83       	std	Z+1, r23	; 0x01
    1e72:	82 83       	std	Z+2, r24	; 0x02
    1e74:	93 83       	std	Z+3, r25	; 0x03
    1e76:	2f bf       	out	0x3f, r18	; 63
    1e78:	20 81       	ld	r18, Z
    1e7a:	31 81       	ldd	r19, Z+1	; 0x01
    1e7c:	42 81       	ldd	r20, Z+2	; 0x02
    1e7e:	53 81       	ldd	r21, Z+3	; 0x03
    1e80:	c7 01       	movw	r24, r14
    1e82:	b6 01       	movw	r22, r12
    1e84:	0e 94 5e 17 	call	0x2ebc	; 0x2ebc <__subsf3>
    1e88:	6b 01       	movw	r12, r22
    1e8a:	7c 01       	movw	r14, r24
    1e8c:	b8 01       	movw	r22, r16
    1e8e:	80 e0       	ldi	r24, 0x00	; 0
    1e90:	90 e0       	ldi	r25, 0x00	; 0
    1e92:	0e 94 91 18 	call	0x3122	; 0x3122 <__floatunsisf>
    1e96:	9b 01       	movw	r18, r22
    1e98:	ac 01       	movw	r20, r24
    1e9a:	c7 01       	movw	r24, r14
    1e9c:	b6 01       	movw	r22, r12
    1e9e:	0e 94 c7 17 	call	0x2f8e	; 0x2f8e <__divsf3>
    1ea2:	ab 01       	movw	r20, r22
    1ea4:	bc 01       	movw	r22, r24
    1ea6:	f4 01       	movw	r30, r8
    1ea8:	44 83       	std	Z+4, r20	; 0x04
    1eaa:	55 83       	std	Z+5, r21	; 0x05
    1eac:	66 83       	std	Z+6, r22	; 0x06
    1eae:	77 83       	std	Z+7, r23	; 0x07
    1eb0:	c2 5b       	subi	r28, 0xB2	; 178
    1eb2:	df 4f       	sbci	r29, 0xFF	; 255
    1eb4:	19 82       	std	Y+1, r1	; 0x01
    1eb6:	18 82       	st	Y, r1
    1eb8:	df 91       	pop	r29
    1eba:	cf 91       	pop	r28
    1ebc:	1f 91       	pop	r17
    1ebe:	0f 91       	pop	r16
    1ec0:	ff 90       	pop	r15
    1ec2:	ef 90       	pop	r14
    1ec4:	df 90       	pop	r13
    1ec6:	cf 90       	pop	r12
    1ec8:	bf 90       	pop	r11
    1eca:	af 90       	pop	r10
    1ecc:	9f 90       	pop	r9
    1ece:	8f 90       	pop	r8
    1ed0:	4f 90       	pop	r4
    1ed2:	08 95       	ret

00001ed4 <_ZN19interpolatingBuffer12rotateBufferEv>:
    1ed4:	fc 01       	movw	r30, r24
    1ed6:	42 a1       	ldd	r20, Z+34	; 0x22
    1ed8:	20 e0       	ldi	r18, 0x00	; 0
    1eda:	30 e0       	ldi	r19, 0x00	; 0
    1edc:	fc 01       	movw	r30, r24
    1ede:	e2 0f       	add	r30, r18
    1ee0:	f3 1f       	adc	r31, r19
    1ee2:	51 a1       	ldd	r21, Z+33	; 0x21
    1ee4:	52 a3       	std	Z+34, r21	; 0x22
    1ee6:	21 50       	subi	r18, 0x01	; 1
    1ee8:	31 09       	sbc	r19, r1
    1eea:	21 3e       	cpi	r18, 0xE1	; 225
    1eec:	ff ef       	ldi	r31, 0xFF	; 255
    1eee:	3f 07       	cpc	r19, r31
    1ef0:	a9 f7       	brne	.-22     	; 0x1edc <_ZN19interpolatingBuffer12rotateBufferEv+0x8>
    1ef2:	fc 01       	movw	r30, r24
    1ef4:	43 83       	std	Z+3, r20	; 0x03
    1ef6:	08 95       	ret

00001ef8 <_ZN19interpolatingBuffer13addRandomStepEv>:
    1ef8:	cf 93       	push	r28
    1efa:	df 93       	push	r29
    1efc:	ec 01       	movw	r28, r24
    1efe:	ea df       	rcall	.-44     	; 0x1ed4 <_ZN19interpolatingBuffer12rotateBufferEv>
    1f00:	20 e4       	ldi	r18, 0x40	; 64
    1f02:	30 e0       	ldi	r19, 0x00	; 0
    1f04:	40 e0       	ldi	r20, 0x00	; 0
    1f06:	50 e0       	ldi	r21, 0x00	; 0
    1f08:	60 e0       	ldi	r22, 0x00	; 0
    1f0a:	70 e0       	ldi	r23, 0x00	; 0
    1f0c:	cb 01       	movw	r24, r22
    1f0e:	fe d5       	rcall	.+3068   	; 0x2b0c <_Z6randomll>
    1f10:	2c 81       	ldd	r18, Y+4	; 0x04
    1f12:	30 e0       	ldi	r19, 0x00	; 0
    1f14:	2f 51       	subi	r18, 0x1F	; 31
    1f16:	31 09       	sbc	r19, r1
    1f18:	26 0f       	add	r18, r22
    1f1a:	37 1f       	adc	r19, r23
    1f1c:	2f 3f       	cpi	r18, 0xFF	; 255
    1f1e:	31 05       	cpc	r19, r1
    1f20:	09 f0       	breq	.+2      	; 0x1f24 <_ZN19interpolatingBuffer13addRandomStepEv+0x2c>
    1f22:	1c f4       	brge	.+6      	; 0x1f2a <_ZN19interpolatingBuffer13addRandomStepEv+0x32>
    1f24:	37 fd       	sbrc	r19, 7
    1f26:	04 c0       	rjmp	.+8      	; 0x1f30 <_ZN19interpolatingBuffer13addRandomStepEv+0x38>
    1f28:	05 c0       	rjmp	.+10     	; 0x1f34 <_ZN19interpolatingBuffer13addRandomStepEv+0x3c>
    1f2a:	2f ef       	ldi	r18, 0xFF	; 255
    1f2c:	30 e0       	ldi	r19, 0x00	; 0
    1f2e:	02 c0       	rjmp	.+4      	; 0x1f34 <_ZN19interpolatingBuffer13addRandomStepEv+0x3c>
    1f30:	20 e0       	ldi	r18, 0x00	; 0
    1f32:	30 e0       	ldi	r19, 0x00	; 0
    1f34:	2b 83       	std	Y+3, r18	; 0x03
    1f36:	df 91       	pop	r29
    1f38:	cf 91       	pop	r28
    1f3a:	08 95       	ret

00001f3c <_ZN19interpolatingBuffer18rotateSmoothBufferEv>:
    1f3c:	fc 01       	movw	r30, r24
    1f3e:	ee 5b       	subi	r30, 0xBE	; 190
    1f40:	ff 4f       	sbci	r31, 0xFF	; 255
    1f42:	50 81       	ld	r21, Z
    1f44:	9c 01       	movw	r18, r24
    1f46:	4f e1       	ldi	r20, 0x1F	; 31
    1f48:	f9 01       	movw	r30, r18
    1f4a:	ef 5b       	subi	r30, 0xBF	; 191
    1f4c:	ff 4f       	sbci	r31, 0xFF	; 255
    1f4e:	60 81       	ld	r22, Z
    1f50:	f9 01       	movw	r30, r18
    1f52:	ee 5b       	subi	r30, 0xBE	; 190
    1f54:	ff 4f       	sbci	r31, 0xFF	; 255
    1f56:	60 83       	st	Z, r22
    1f58:	41 50       	subi	r20, 0x01	; 1
    1f5a:	21 50       	subi	r18, 0x01	; 1
    1f5c:	31 09       	sbc	r19, r1
    1f5e:	41 11       	cpse	r20, r1
    1f60:	f3 cf       	rjmp	.-26     	; 0x1f48 <_ZN19interpolatingBuffer18rotateSmoothBufferEv+0xc>
    1f62:	fc 01       	movw	r30, r24
    1f64:	53 a3       	std	Z+35, r21	; 0x23
    1f66:	08 95       	ret

00001f68 <_ZN19interpolatingBuffer6updateEv>:
    1f68:	4f 92       	push	r4
    1f6a:	5f 92       	push	r5
    1f6c:	6f 92       	push	r6
    1f6e:	7f 92       	push	r7
    1f70:	8f 92       	push	r8
    1f72:	9f 92       	push	r9
    1f74:	af 92       	push	r10
    1f76:	bf 92       	push	r11
    1f78:	cf 92       	push	r12
    1f7a:	df 92       	push	r13
    1f7c:	ef 92       	push	r14
    1f7e:	ff 92       	push	r15
    1f80:	0f 93       	push	r16
    1f82:	1f 93       	push	r17
    1f84:	cf 93       	push	r28
    1f86:	df 93       	push	r29
    1f88:	ec 01       	movw	r28, r24
    1f8a:	fc 01       	movw	r30, r24
    1f8c:	e6 5b       	subi	r30, 0xB6	; 182
    1f8e:	ff 4f       	sbci	r31, 0xFF	; 255
    1f90:	80 81       	ld	r24, Z
    1f92:	91 81       	ldd	r25, Z+1	; 0x01
    1f94:	01 96       	adiw	r24, 0x01	; 1
    1f96:	91 83       	std	Z+1, r25	; 0x01
    1f98:	80 83       	st	Z, r24
    1f9a:	de 01       	movw	r26, r28
    1f9c:	a8 5b       	subi	r26, 0xB8	; 184
    1f9e:	bf 4f       	sbci	r27, 0xFF	; 255
    1fa0:	2d 91       	ld	r18, X+
    1fa2:	3c 91       	ld	r19, X
    1fa4:	82 17       	cp	r24, r18
    1fa6:	93 07       	cpc	r25, r19
    1fa8:	b8 f0       	brcs	.+46     	; 0x1fd8 <_ZN19interpolatingBuffer6updateEv+0x70>
    1faa:	11 82       	std	Z+1, r1	; 0x01
    1fac:	10 82       	st	Z, r1
    1fae:	fe 01       	movw	r30, r28
    1fb0:	ec 5b       	subi	r30, 0xBC	; 188
    1fb2:	ff 4f       	sbci	r31, 0xFF	; 255
    1fb4:	80 81       	ld	r24, Z
    1fb6:	8f 31       	cpi	r24, 0x1F	; 31
    1fb8:	18 f4       	brcc	.+6      	; 0x1fc0 <_ZN19interpolatingBuffer6updateEv+0x58>
    1fba:	8f 5f       	subi	r24, 0xFF	; 255
    1fbc:	80 83       	st	Z, r24
    1fbe:	01 c0       	rjmp	.+2      	; 0x1fc2 <_ZN19interpolatingBuffer6updateEv+0x5a>
    1fc0:	10 82       	st	Z, r1
    1fc2:	8a 81       	ldd	r24, Y+2	; 0x02
    1fc4:	81 11       	cpse	r24, r1
    1fc6:	08 c0       	rjmp	.+16     	; 0x1fd8 <_ZN19interpolatingBuffer6updateEv+0x70>
    1fc8:	88 81       	ld	r24, Y
    1fca:	81 11       	cpse	r24, r1
    1fcc:	03 c0       	rjmp	.+6      	; 0x1fd4 <_ZN19interpolatingBuffer6updateEv+0x6c>
    1fce:	ce 01       	movw	r24, r28
    1fd0:	93 df       	rcall	.-218    	; 0x1ef8 <_ZN19interpolatingBuffer13addRandomStepEv>
    1fd2:	02 c0       	rjmp	.+4      	; 0x1fd8 <_ZN19interpolatingBuffer6updateEv+0x70>
    1fd4:	ce 01       	movw	r24, r28
    1fd6:	7e df       	rcall	.-260    	; 0x1ed4 <_ZN19interpolatingBuffer12rotateBufferEv>
    1fd8:	4e 01       	movw	r8, r28
    1fda:	8c e4       	ldi	r24, 0x4C	; 76
    1fdc:	88 0e       	add	r8, r24
    1fde:	91 1c       	adc	r9, r1
    1fe0:	f4 01       	movw	r30, r8
    1fe2:	80 81       	ld	r24, Z
    1fe4:	91 81       	ldd	r25, Z+1	; 0x01
    1fe6:	01 96       	adiw	r24, 0x01	; 1
    1fe8:	91 83       	std	Z+1, r25	; 0x01
    1fea:	80 83       	st	Z, r24
    1fec:	fe 01       	movw	r30, r28
    1fee:	ea 5b       	subi	r30, 0xBA	; 186
    1ff0:	ff 4f       	sbci	r31, 0xFF	; 255
    1ff2:	40 80       	ld	r4, Z
    1ff4:	51 80       	ldd	r5, Z+1	; 0x01
    1ff6:	b2 01       	movw	r22, r4
    1ff8:	80 e0       	ldi	r24, 0x00	; 0
    1ffa:	90 e0       	ldi	r25, 0x00	; 0
    1ffc:	fe 01       	movw	r30, r28
    1ffe:	e8 5b       	subi	r30, 0xB8	; 184
    2000:	ff 4f       	sbci	r31, 0xFF	; 255
    2002:	20 81       	ld	r18, Z
    2004:	31 81       	ldd	r19, Z+1	; 0x01
    2006:	29 01       	movw	r4, r18
    2008:	1f 92       	push	r1
    200a:	1f 92       	push	r1
    200c:	5f 92       	push	r5
    200e:	2f 93       	push	r18
    2010:	a1 2c       	mov	r10, r1
    2012:	b1 2c       	mov	r11, r1
    2014:	65 01       	movw	r12, r10
    2016:	ee 24       	eor	r14, r14
    2018:	ea 94       	dec	r14
    201a:	17 e0       	ldi	r17, 0x07	; 7
    201c:	f1 2e       	mov	r15, r17
    201e:	00 e0       	ldi	r16, 0x00	; 0
    2020:	10 e0       	ldi	r17, 0x00	; 0
    2022:	20 e0       	ldi	r18, 0x00	; 0
    2024:	30 e0       	ldi	r19, 0x00	; 0
    2026:	a9 01       	movw	r20, r18
    2028:	8e d5       	rcall	.+2844   	; 0x2b46 <_Z3maplllll>
    202a:	0f 90       	pop	r0
    202c:	0f 90       	pop	r0
    202e:	0f 90       	pop	r0
    2030:	0f 90       	pop	r0
    2032:	f4 01       	movw	r30, r8
    2034:	20 81       	ld	r18, Z
    2036:	31 81       	ldd	r19, Z+1	; 0x01
    2038:	26 17       	cp	r18, r22
    203a:	37 07       	cpc	r19, r23
    203c:	30 f0       	brcs	.+12     	; 0x204a <_ZN19interpolatingBuffer6updateEv+0xe2>
    203e:	11 82       	std	Z+1, r1	; 0x01
    2040:	10 82       	st	Z, r1
    2042:	9b 80       	ldd	r9, Y+3	; 0x03
    2044:	ce 01       	movw	r24, r28
    2046:	7a df       	rcall	.-268    	; 0x1f3c <_ZN19interpolatingBuffer18rotateSmoothBufferEv>
    2048:	9b a2       	std	Y+35, r9	; 0x23
    204a:	df 91       	pop	r29
    204c:	cf 91       	pop	r28
    204e:	1f 91       	pop	r17
    2050:	0f 91       	pop	r16
    2052:	ff 90       	pop	r15
    2054:	ef 90       	pop	r14
    2056:	df 90       	pop	r13
    2058:	cf 90       	pop	r12
    205a:	bf 90       	pop	r11
    205c:	af 90       	pop	r10
    205e:	9f 90       	pop	r9
    2060:	8f 90       	pop	r8
    2062:	7f 90       	pop	r7
    2064:	6f 90       	pop	r6
    2066:	5f 90       	pop	r5
    2068:	4f 90       	pop	r4
    206a:	08 95       	ret

0000206c <_ZN19interpolatingBuffer22calculateSmoothAverageEv>:
    206c:	20 e0       	ldi	r18, 0x00	; 0
    206e:	30 e0       	ldi	r19, 0x00	; 0
    2070:	40 e0       	ldi	r20, 0x00	; 0
    2072:	50 e0       	ldi	r21, 0x00	; 0
    2074:	fc 01       	movw	r30, r24
    2076:	e2 0f       	add	r30, r18
    2078:	f3 1f       	adc	r31, r19
    207a:	63 a1       	ldd	r22, Z+35	; 0x23
    207c:	46 0f       	add	r20, r22
    207e:	51 1d       	adc	r21, r1
    2080:	2f 5f       	subi	r18, 0xFF	; 255
    2082:	3f 4f       	sbci	r19, 0xFF	; 255
    2084:	20 32       	cpi	r18, 0x20	; 32
    2086:	31 05       	cpc	r19, r1
    2088:	a9 f7       	brne	.-22     	; 0x2074 <_ZN19interpolatingBuffer22calculateSmoothAverageEv+0x8>
    208a:	ca 01       	movw	r24, r20
    208c:	55 e0       	ldi	r21, 0x05	; 5
    208e:	96 95       	lsr	r25
    2090:	87 95       	ror	r24
    2092:	5a 95       	dec	r21
    2094:	e1 f7       	brne	.-8      	; 0x208e <_ZN19interpolatingBuffer22calculateSmoothAverageEv+0x22>
    2096:	08 95       	ret

00002098 <_ZN19interpolatingBuffer15getCurrentValueEv>:
    2098:	1f 93       	push	r17
    209a:	cf 93       	push	r28
    209c:	df 93       	push	r29
    209e:	fc 01       	movw	r30, r24
    20a0:	22 81       	ldd	r18, Z+2	; 0x02
    20a2:	22 23       	and	r18, r18
    20a4:	09 f4       	brne	.+2      	; 0x20a8 <_ZN19interpolatingBuffer15getCurrentValueEv+0x10>
    20a6:	3f c0       	rjmp	.+126    	; 0x2126 <_ZN19interpolatingBuffer15getCurrentValueEv+0x8e>
    20a8:	e2 5b       	subi	r30, 0xB2	; 178
    20aa:	ff 4f       	sbci	r31, 0xFF	; 255
    20ac:	20 81       	ld	r18, Z
    20ae:	31 81       	ldd	r19, Z+1	; 0x01
    20b0:	dc 01       	movw	r26, r24
    20b2:	a0 5b       	subi	r26, 0xB0	; 176
    20b4:	bf 4f       	sbci	r27, 0xFF	; 255
    20b6:	4d 91       	ld	r20, X+
    20b8:	5c 91       	ld	r21, X
    20ba:	24 17       	cp	r18, r20
    20bc:	35 07       	cpc	r19, r21
    20be:	28 f5       	brcc	.+74     	; 0x210a <_ZN19interpolatingBuffer15getCurrentValueEv+0x72>
    20c0:	2f 5f       	subi	r18, 0xFF	; 255
    20c2:	3f 4f       	sbci	r19, 0xFF	; 255
    20c4:	31 83       	std	Z+1, r19	; 0x01
    20c6:	20 83       	st	Z, r18
    20c8:	fc 01       	movw	r30, r24
    20ca:	c1 81       	ldd	r28, Z+1	; 0x01
    20cc:	f8 e0       	ldi	r31, 0x08	; 8
    20ce:	cf 9f       	mul	r28, r31
    20d0:	e0 01       	movw	r28, r0
    20d2:	11 24       	eor	r1, r1
    20d4:	c8 59       	subi	r28, 0x98	; 152
    20d6:	d9 4f       	sbci	r29, 0xF9	; 249
    20d8:	1f b7       	in	r17, 0x3f	; 63
    20da:	f8 94       	cli
    20dc:	2c 81       	ldd	r18, Y+4	; 0x04
    20de:	3d 81       	ldd	r19, Y+5	; 0x05
    20e0:	4e 81       	ldd	r20, Y+6	; 0x06
    20e2:	5f 81       	ldd	r21, Y+7	; 0x07
    20e4:	68 81       	ld	r22, Y
    20e6:	79 81       	ldd	r23, Y+1	; 0x01
    20e8:	8a 81       	ldd	r24, Y+2	; 0x02
    20ea:	9b 81       	ldd	r25, Y+3	; 0x03
    20ec:	e8 d6       	rcall	.+3536   	; 0x2ebe <__addsf3>
    20ee:	ab 01       	movw	r20, r22
    20f0:	bc 01       	movw	r22, r24
    20f2:	48 83       	st	Y, r20
    20f4:	59 83       	std	Y+1, r21	; 0x01
    20f6:	6a 83       	std	Y+2, r22	; 0x02
    20f8:	7b 83       	std	Y+3, r23	; 0x03
    20fa:	1f bf       	out	0x3f, r17	; 63
    20fc:	68 81       	ld	r22, Y
    20fe:	79 81       	ldd	r23, Y+1	; 0x01
    2100:	8a 81       	ldd	r24, Y+2	; 0x02
    2102:	9b 81       	ldd	r25, Y+3	; 0x03
    2104:	e2 d7       	rcall	.+4036   	; 0x30ca <__fixunssfsi>
    2106:	86 2f       	mov	r24, r22
    2108:	19 c0       	rjmp	.+50     	; 0x213c <_ZN19interpolatingBuffer15getCurrentValueEv+0xa4>
    210a:	fc 01       	movw	r30, r24
    210c:	ee 5a       	subi	r30, 0xAE	; 174
    210e:	ff 4f       	sbci	r31, 0xFF	; 255
    2110:	20 81       	ld	r18, Z
    2112:	2f 31       	cpi	r18, 0x1F	; 31
    2114:	19 f4       	brne	.+6      	; 0x211c <_ZN19interpolatingBuffer15getCurrentValueEv+0x84>
    2116:	fc 01       	movw	r30, r24
    2118:	83 81       	ldd	r24, Z+3	; 0x03
    211a:	10 c0       	rjmp	.+32     	; 0x213c <_ZN19interpolatingBuffer15getCurrentValueEv+0xa4>
    211c:	fc 01       	movw	r30, r24
    211e:	e2 0f       	add	r30, r18
    2120:	f1 1d       	adc	r31, r1
    2122:	84 81       	ldd	r24, Z+4	; 0x04
    2124:	0b c0       	rjmp	.+22     	; 0x213c <_ZN19interpolatingBuffer15getCurrentValueEv+0xa4>
    2126:	fc 01       	movw	r30, r24
    2128:	ea 5b       	subi	r30, 0xBA	; 186
    212a:	ff 4f       	sbci	r31, 0xFF	; 255
    212c:	20 81       	ld	r18, Z
    212e:	31 81       	ldd	r19, Z+1	; 0x01
    2130:	23 2b       	or	r18, r19
    2132:	89 f3       	breq	.-30     	; 0x2116 <_ZN19interpolatingBuffer15getCurrentValueEv+0x7e>
    2134:	df 91       	pop	r29
    2136:	cf 91       	pop	r28
    2138:	1f 91       	pop	r17
    213a:	98 cf       	rjmp	.-208    	; 0x206c <_ZN19interpolatingBuffer22calculateSmoothAverageEv>
    213c:	df 91       	pop	r29
    213e:	cf 91       	pop	r28
    2140:	1f 91       	pop	r17
    2142:	08 95       	ret

00002144 <_ZN11lfoExtended4initEj>:
    2144:	fc 01       	movw	r30, r24
    2146:	11 82       	std	Z+1, r1	; 0x01
    2148:	10 82       	st	Z, r1
    214a:	15 82       	std	Z+5, r1	; 0x05
    214c:	14 82       	std	Z+4, r1	; 0x04
    214e:	8f ef       	ldi	r24, 0xFF	; 255
    2150:	80 87       	std	Z+8, r24	; 0x08
    2152:	81 e0       	ldi	r24, 0x01	; 1
    2154:	90 e0       	ldi	r25, 0x00	; 0
    2156:	92 87       	std	Z+10, r25	; 0x0a
    2158:	81 87       	std	Z+9, r24	; 0x09
    215a:	15 86       	std	Z+13, r1	; 0x0d
    215c:	17 82       	std	Z+7, r1	; 0x07
    215e:	16 82       	std	Z+6, r1	; 0x06
    2160:	17 8a       	std	Z+23, r1	; 0x17
    2162:	12 82       	std	Z+2, r1	; 0x02
    2164:	13 82       	std	Z+3, r1	; 0x03
    2166:	14 86       	std	Z+12, r1	; 0x0c
    2168:	13 86       	std	Z+11, r1	; 0x0b
    216a:	17 86       	std	Z+15, r1	; 0x0f
    216c:	16 86       	std	Z+14, r1	; 0x0e
    216e:	72 8b       	std	Z+18, r23	; 0x12
    2170:	61 8b       	std	Z+17, r22	; 0x11
    2172:	08 95       	ret

00002174 <_ZN11lfoExtended23setBastlCyclesPerPeriodEj>:
    2174:	cf 93       	push	r28
    2176:	df 93       	push	r29
    2178:	ec 01       	movw	r28, r24
    217a:	9b 01       	movw	r18, r22
    217c:	61 15       	cp	r22, r1
    217e:	71 05       	cpc	r23, r1
    2180:	a1 f0       	breq	.+40     	; 0x21aa <_ZN11lfoExtended23setBastlCyclesPerPeriodEj+0x36>
    2182:	76 95       	lsr	r23
    2184:	67 95       	ror	r22
    2186:	80 e0       	ldi	r24, 0x00	; 0
    2188:	90 e0       	ldi	r25, 0x00	; 0
    218a:	01 96       	adiw	r24, 0x01	; 1
    218c:	40 e0       	ldi	r20, 0x00	; 0
    218e:	50 e0       	ldi	r21, 0x00	; 0
    2190:	0e 94 d4 1a 	call	0x35a8	; 0x35a8 <__udivmodsi4>
    2194:	c9 01       	movw	r24, r18
    2196:	3c 8b       	std	Y+20, r19	; 0x14
    2198:	2b 8b       	std	Y+19, r18	; 0x13
    219a:	8c 59       	subi	r24, 0x9C	; 156
    219c:	9f 4f       	sbci	r25, 0xFF	; 255
    219e:	26 e0       	ldi	r18, 0x06	; 6
    21a0:	96 95       	lsr	r25
    21a2:	87 95       	ror	r24
    21a4:	2a 95       	dec	r18
    21a6:	e1 f7       	brne	.-8      	; 0x21a0 <_ZN11lfoExtended23setBastlCyclesPerPeriodEj+0x2c>
    21a8:	8e 8b       	std	Y+22, r24	; 0x16
    21aa:	df 91       	pop	r29
    21ac:	cf 91       	pop	r28
    21ae:	08 95       	ret

000021b0 <_ZN11lfoExtended11setWaveformE16LFOBasicWaveform>:
    21b0:	fc 01       	movw	r30, r24
    21b2:	71 83       	std	Z+1, r23	; 0x01
    21b4:	60 83       	st	Z, r22
    21b6:	08 95       	ret

000021b8 <_ZN11lfoExtended6setXOREh>:
    21b8:	fc 01       	movw	r30, r24
    21ba:	62 83       	std	Z+2, r22	; 0x02
    21bc:	08 95       	ret

000021be <_ZN11lfoExtended7setFlopEh>:
    21be:	fc 01       	movw	r30, r24
    21c0:	63 83       	std	Z+3, r22	; 0x03
    21c2:	08 95       	ret

000021c4 <_ZN11lfoExtended13setResolutionEh>:
    21c4:	cf 93       	push	r28
    21c6:	df 93       	push	r29
    21c8:	ec 01       	movw	r28, r24
    21ca:	61 11       	cpse	r22, r1
    21cc:	01 c0       	rjmp	.+2      	; 0x21d0 <_ZN11lfoExtended13setResolutionEh+0xc>
    21ce:	61 e0       	ldi	r22, 0x01	; 1
    21d0:	26 2f       	mov	r18, r22
    21d2:	30 e0       	ldi	r19, 0x00	; 0
    21d4:	40 e0       	ldi	r20, 0x00	; 0
    21d6:	50 e0       	ldi	r21, 0x00	; 0
    21d8:	60 e0       	ldi	r22, 0x00	; 0
    21da:	70 e0       	ldi	r23, 0x00	; 0
    21dc:	81 e0       	ldi	r24, 0x01	; 1
    21de:	90 e0       	ldi	r25, 0x00	; 0
    21e0:	0e 94 d4 1a 	call	0x35a8	; 0x35a8 <__udivmodsi4>
    21e4:	22 50       	subi	r18, 0x02	; 2
    21e6:	31 09       	sbc	r19, r1
    21e8:	3d 83       	std	Y+5, r19	; 0x05
    21ea:	2c 83       	std	Y+4, r18	; 0x04
    21ec:	df 91       	pop	r29
    21ee:	cf 91       	pop	r28
    21f0:	08 95       	ret

000021f2 <_ZN11lfoExtended8getValueEv>:
    21f2:	cf 93       	push	r28
    21f4:	df 93       	push	r29
    21f6:	ec 01       	movw	r28, r24
    21f8:	8b 85       	ldd	r24, Y+11	; 0x0b
    21fa:	9c 85       	ldd	r25, Y+12	; 0x0c
    21fc:	2e 81       	ldd	r18, Y+6	; 0x06
    21fe:	3f 81       	ldd	r19, Y+7	; 0x07
    2200:	4c 81       	ldd	r20, Y+4	; 0x04
    2202:	5d 81       	ldd	r21, Y+5	; 0x05
    2204:	bc 01       	movw	r22, r24
    2206:	62 1b       	sub	r22, r18
    2208:	73 0b       	sbc	r23, r19
    220a:	64 17       	cp	r22, r20
    220c:	75 07       	cpc	r23, r21
    220e:	10 f4       	brcc	.+4      	; 0x2214 <_ZN11lfoExtended8getValueEv+0x22>
    2210:	8d 89       	ldd	r24, Y+21	; 0x15
    2212:	6e c0       	rjmp	.+220    	; 0x22f0 <_ZN11lfoExtended8getValueEv+0xfe>
    2214:	24 0f       	add	r18, r20
    2216:	35 1f       	adc	r19, r21
    2218:	3f 83       	std	Y+7, r19	; 0x07
    221a:	2e 83       	std	Y+6, r18	; 0x06
    221c:	89 2f       	mov	r24, r25
    221e:	99 27       	eor	r25, r25
    2220:	48 2f       	mov	r20, r24
    2222:	8d 87       	std	Y+13, r24	; 0x0d
    2224:	2b 81       	ldd	r18, Y+3	; 0x03
    2226:	28 23       	and	r18, r24
    2228:	09 f0       	breq	.+2      	; 0x222c <_ZN11lfoExtended8getValueEv+0x3a>
    222a:	61 c0       	rjmp	.+194    	; 0x22ee <_ZN11lfoExtended8getValueEv+0xfc>
    222c:	28 89       	ldd	r18, Y+16	; 0x10
    222e:	58 2f       	mov	r21, r24
    2230:	52 1b       	sub	r21, r18
    2232:	09 f0       	breq	.+2      	; 0x2236 <_ZN11lfoExtended8getValueEv+0x44>
    2234:	88 8b       	std	Y+16, r24	; 0x10
    2236:	28 81       	ld	r18, Y
    2238:	39 81       	ldd	r19, Y+1	; 0x01
    223a:	22 30       	cpi	r18, 0x02	; 2
    223c:	31 05       	cpc	r19, r1
    223e:	79 f5       	brne	.+94     	; 0x229e <_ZN11lfoExtended8getValueEv+0xac>
    2240:	88 8d       	ldd	r24, Y+24	; 0x18
    2242:	99 8d       	ldd	r25, Y+25	; 0x19
    2244:	85 1b       	sub	r24, r21
    2246:	91 09       	sbc	r25, r1
    2248:	99 8f       	std	Y+25, r25	; 0x19
    224a:	88 8f       	std	Y+24, r24	; 0x18
    224c:	18 16       	cp	r1, r24
    224e:	19 06       	cpc	r1, r25
    2250:	64 f0       	brlt	.+24     	; 0x226a <_ZN11lfoExtended8getValueEv+0x78>
    2252:	6e 89       	ldd	r22, Y+22	; 0x16
    2254:	66 0f       	add	r22, r22
    2256:	80 e0       	ldi	r24, 0x00	; 0
    2258:	84 d0       	rcall	.+264    	; 0x2362 <_ZN11bastlRandom5rangeEhh>
    225a:	9e 89       	ldd	r25, Y+22	; 0x16
    225c:	89 1b       	sub	r24, r25
    225e:	8f 8b       	std	Y+23, r24	; 0x17
    2260:	68 e2       	ldi	r22, 0x28	; 40
    2262:	8a e0       	ldi	r24, 0x0A	; 10
    2264:	7e d0       	rcall	.+252    	; 0x2362 <_ZN11bastlRandom5rangeEhh>
    2266:	88 8f       	std	Y+24, r24	; 0x18
    2268:	19 8e       	std	Y+25, r1	; 0x19
    226a:	89 85       	ldd	r24, Y+9	; 0x09
    226c:	9a 85       	ldd	r25, Y+10	; 0x0a
    226e:	01 97       	sbiw	r24, 0x01	; 1
    2270:	89 f4       	brne	.+34     	; 0x2294 <_ZN11lfoExtended8getValueEv+0xa2>
    2272:	4f 89       	ldd	r20, Y+23	; 0x17
    2274:	2d 89       	ldd	r18, Y+21	; 0x15
    2276:	84 2f       	mov	r24, r20
    2278:	99 27       	eor	r25, r25
    227a:	87 fd       	sbrc	r24, 7
    227c:	90 95       	com	r25
    227e:	82 0f       	add	r24, r18
    2280:	91 1d       	adc	r25, r1
    2282:	28 85       	ldd	r18, Y+8	; 0x08
    2284:	30 e0       	ldi	r19, 0x00	; 0
    2286:	28 17       	cp	r18, r24
    2288:	39 07       	cpc	r19, r25
    228a:	14 f0       	brlt	.+4      	; 0x2290 <_ZN11lfoExtended8getValueEv+0x9e>
    228c:	97 ff       	sbrs	r25, 7
    228e:	02 c0       	rjmp	.+4      	; 0x2294 <_ZN11lfoExtended8getValueEv+0xa2>
    2290:	41 95       	neg	r20
    2292:	4f 8b       	std	Y+23, r20	; 0x17
    2294:	8d 89       	ldd	r24, Y+21	; 0x15
    2296:	9f 89       	ldd	r25, Y+23	; 0x17
    2298:	89 0f       	add	r24, r25
    229a:	8d 8b       	std	Y+21, r24	; 0x15
    229c:	11 c0       	rjmp	.+34     	; 0x22c0 <_ZN11lfoExtended8getValueEv+0xce>
    229e:	21 15       	cp	r18, r1
    22a0:	31 05       	cpc	r19, r1
    22a2:	31 f0       	breq	.+12     	; 0x22b0 <_ZN11lfoExtended8getValueEv+0xbe>
    22a4:	21 30       	cpi	r18, 0x01	; 1
    22a6:	31 05       	cpc	r19, r1
    22a8:	59 f4       	brne	.+22     	; 0x22c0 <_ZN11lfoExtended8getValueEv+0xce>
    22aa:	87 fd       	sbrc	r24, 7
    22ac:	03 c0       	rjmp	.+6      	; 0x22b4 <_ZN11lfoExtended8getValueEv+0xc2>
    22ae:	44 0f       	add	r20, r20
    22b0:	4d 8b       	std	Y+21, r20	; 0x15
    22b2:	06 c0       	rjmp	.+12     	; 0x22c0 <_ZN11lfoExtended8getValueEv+0xce>
    22b4:	2f ef       	ldi	r18, 0xFF	; 255
    22b6:	30 e0       	ldi	r19, 0x00	; 0
    22b8:	28 1b       	sub	r18, r24
    22ba:	39 0b       	sbc	r19, r25
    22bc:	22 0f       	add	r18, r18
    22be:	2d 8b       	std	Y+21, r18	; 0x15
    22c0:	8d 89       	ldd	r24, Y+21	; 0x15
    22c2:	48 85       	ldd	r20, Y+8	; 0x08
    22c4:	48 17       	cp	r20, r24
    22c6:	70 f4       	brcc	.+28     	; 0x22e4 <_ZN11lfoExtended8getValueEv+0xf2>
    22c8:	29 85       	ldd	r18, Y+9	; 0x09
    22ca:	3a 85       	ldd	r19, Y+10	; 0x0a
    22cc:	64 2f       	mov	r22, r20
    22ce:	0e 94 a1 1a 	call	0x3542	; 0x3542 <__udivmodqi4>
    22d2:	23 2b       	or	r18, r19
    22d4:	09 f4       	brne	.+2      	; 0x22d8 <_ZN11lfoExtended8getValueEv+0xe6>
    22d6:	05 c0       	rjmp	.+10     	; 0x22e2 <_ZN11lfoExtended8getValueEv+0xf0>
    22d8:	80 ff       	sbrs	r24, 0
    22da:	03 c0       	rjmp	.+6      	; 0x22e2 <_ZN11lfoExtended8getValueEv+0xf0>
    22dc:	49 1b       	sub	r20, r25
    22de:	4d 8b       	std	Y+21, r20	; 0x15
    22e0:	01 c0       	rjmp	.+2      	; 0x22e4 <_ZN11lfoExtended8getValueEv+0xf2>
    22e2:	9d 8b       	std	Y+21, r25	; 0x15
    22e4:	8a 81       	ldd	r24, Y+2	; 0x02
    22e6:	9d 89       	ldd	r25, Y+21	; 0x15
    22e8:	89 27       	eor	r24, r25
    22ea:	8d 8b       	std	Y+21, r24	; 0x15
    22ec:	01 c0       	rjmp	.+2      	; 0x22f0 <_ZN11lfoExtended8getValueEv+0xfe>
    22ee:	80 e0       	ldi	r24, 0x00	; 0
    22f0:	df 91       	pop	r29
    22f2:	cf 91       	pop	r28
    22f4:	08 95       	ret

000022f6 <_ZN11lfoExtended8getValueEj>:
    22f6:	fc 01       	movw	r30, r24
    22f8:	0c c0       	rjmp	.+24     	; 0x2312 <_ZN11lfoExtended8getValueEj+0x1c>
    22fa:	83 85       	ldd	r24, Z+11	; 0x0b
    22fc:	94 85       	ldd	r25, Z+12	; 0x0c
    22fe:	43 89       	ldd	r20, Z+19	; 0x13
    2300:	54 89       	ldd	r21, Z+20	; 0x14
    2302:	84 0f       	add	r24, r20
    2304:	95 1f       	adc	r25, r21
    2306:	94 87       	std	Z+12, r25	; 0x0c
    2308:	83 87       	std	Z+11, r24	; 0x0b
    230a:	2f 5f       	subi	r18, 0xFF	; 255
    230c:	3f 4f       	sbci	r19, 0xFF	; 255
    230e:	37 87       	std	Z+15, r19	; 0x0f
    2310:	26 87       	std	Z+14, r18	; 0x0e
    2312:	26 85       	ldd	r18, Z+14	; 0x0e
    2314:	37 85       	ldd	r19, Z+15	; 0x0f
    2316:	26 17       	cp	r18, r22
    2318:	37 07       	cpc	r19, r23
    231a:	79 f7       	brne	.-34     	; 0x22fa <_ZN11lfoExtended8getValueEj+0x4>
    231c:	cf 01       	movw	r24, r30
    231e:	69 cf       	rjmp	.-302    	; 0x21f2 <_ZN11lfoExtended8getValueEv>

00002320 <_ZN11bastlRandom4byteEv>:
    2320:	20 91 2c 01 	lds	r18, 0x012C
    2324:	30 91 2d 01 	lds	r19, 0x012D
    2328:	c9 01       	movw	r24, r18
    232a:	96 95       	lsr	r25
    232c:	98 2f       	mov	r25, r24
    232e:	88 27       	eor	r24, r24
    2330:	97 95       	ror	r25
    2332:	87 95       	ror	r24
    2334:	82 27       	eor	r24, r18
    2336:	93 27       	eor	r25, r19
    2338:	9c 01       	movw	r18, r24
    233a:	23 2f       	mov	r18, r19
    233c:	33 27       	eor	r19, r19
    233e:	26 95       	lsr	r18
    2340:	26 95       	lsr	r18
    2342:	26 95       	lsr	r18
    2344:	28 27       	eor	r18, r24
    2346:	39 27       	eor	r19, r25
    2348:	c9 01       	movw	r24, r18
    234a:	88 0f       	add	r24, r24
    234c:	99 1f       	adc	r25, r25
    234e:	88 0f       	add	r24, r24
    2350:	99 1f       	adc	r25, r25
    2352:	82 27       	eor	r24, r18
    2354:	93 27       	eor	r25, r19
    2356:	90 93 2d 01 	sts	0x012D, r25
    235a:	80 93 2c 01 	sts	0x012C, r24
    235e:	89 2f       	mov	r24, r25
    2360:	08 95       	ret

00002362 <_ZN11bastlRandom5rangeEhh>:
    2362:	1f 93       	push	r17
    2364:	cf 93       	push	r28
    2366:	df 93       	push	r29
    2368:	18 2f       	mov	r17, r24
    236a:	c6 2f       	mov	r28, r22
    236c:	d0 e0       	ldi	r29, 0x00	; 0
    236e:	c8 1b       	sub	r28, r24
    2370:	d1 09       	sbc	r29, r1
    2372:	21 96       	adiw	r28, 0x01	; 1
    2374:	d5 df       	rcall	.-86     	; 0x2320 <_ZN11bastlRandom4byteEv>
    2376:	8e 3f       	cpi	r24, 0xFE	; 254
    2378:	20 f4       	brcc	.+8      	; 0x2382 <_ZN11bastlRandom5rangeEhh+0x20>
    237a:	d2 df       	rcall	.-92     	; 0x2320 <_ZN11bastlRandom4byteEv>
    237c:	28 2f       	mov	r18, r24
    237e:	30 e0       	ldi	r19, 0x00	; 0
    2380:	02 c0       	rjmp	.+4      	; 0x2386 <_ZN11bastlRandom5rangeEhh+0x24>
    2382:	2e ef       	ldi	r18, 0xFE	; 254
    2384:	30 e0       	ldi	r19, 0x00	; 0
    2386:	2c 9f       	mul	r18, r28
    2388:	a0 01       	movw	r20, r0
    238a:	2d 9f       	mul	r18, r29
    238c:	50 0d       	add	r21, r0
    238e:	3c 9f       	mul	r19, r28
    2390:	50 0d       	add	r21, r0
    2392:	11 24       	eor	r1, r1
    2394:	81 2f       	mov	r24, r17
    2396:	85 0f       	add	r24, r21
    2398:	df 91       	pop	r29
    239a:	cf 91       	pop	r28
    239c:	1f 91       	pop	r17
    239e:	08 95       	ret

000023a0 <_ZN19simpleSerialDecoder4initEj>:
    23a0:	88 e9       	ldi	r24, 0x98	; 152
    23a2:	96 e0       	ldi	r25, 0x06	; 6
    23a4:	22 c1       	rjmp	.+580    	; 0x25ea <_ZN20simpleSerialProtocol4initEj>

000023a6 <_ZN19simpleSerialDecoder15sendPairMessageEv>:
    23a6:	88 e9       	ldi	r24, 0x98	; 152
    23a8:	96 e0       	ldi	r25, 0x06	; 6
    23aa:	71 c1       	rjmp	.+738    	; 0x268e <_ZN20simpleSerialProtocol11pairMessageEv>

000023ac <_ZN19simpleSerialDecoder8sendStepEh>:
    23ac:	46 2f       	mov	r20, r22
    23ae:	62 e0       	ldi	r22, 0x02	; 2
    23b0:	88 e9       	ldi	r24, 0x98	; 152
    23b2:	96 e0       	ldi	r25, 0x06	; 6
    23b4:	20 c1       	rjmp	.+576    	; 0x25f6 <_ZN20simpleSerialProtocol15transferMessageEhh>

000023b6 <_ZN19simpleSerialDecoder11sendTriggerEh>:
    23b6:	46 2f       	mov	r20, r22
    23b8:	64 e0       	ldi	r22, 0x04	; 4
    23ba:	88 e9       	ldi	r24, 0x98	; 152
    23bc:	96 e0       	ldi	r25, 0x06	; 6
    23be:	1b c1       	rjmp	.+566    	; 0x25f6 <_ZN20simpleSerialProtocol15transferMessageEhh>

000023c0 <_ZN19simpleSerialDecoder13sendChannelCVEhh>:
    23c0:	62 5e       	subi	r22, 0xE2	; 226
    23c2:	88 e9       	ldi	r24, 0x98	; 152
    23c4:	96 e0       	ldi	r25, 0x06	; 6
    23c6:	17 c1       	rjmp	.+558    	; 0x25f6 <_ZN20simpleSerialProtocol15transferMessageEhh>

000023c8 <_ZN19simpleSerialDecoder6updateEv>:
    23c8:	ef 92       	push	r14
    23ca:	ff 92       	push	r15
    23cc:	0f 93       	push	r16
    23ce:	1f 93       	push	r17
    23d0:	cf 93       	push	r28
    23d2:	df 93       	push	r29
    23d4:	1f 92       	push	r1
    23d6:	cd b7       	in	r28, 0x3d	; 61
    23d8:	de b7       	in	r29, 0x3e	; 62
    23da:	7c 01       	movw	r14, r24
    23dc:	0a e0       	ldi	r16, 0x0A	; 10
    23de:	10 e0       	ldi	r17, 0x00	; 0
    23e0:	88 e9       	ldi	r24, 0x98	; 152
    23e2:	96 e0       	ldi	r25, 0x06	; 6
    23e4:	19 d1       	rcall	.+562    	; 0x2618 <_ZN20simpleSerialProtocol14recieveMessageEv>
    23e6:	88 23       	and	r24, r24
    23e8:	09 f4       	brne	.+2      	; 0x23ec <_ZN19simpleSerialDecoder6updateEv+0x24>
    23ea:	b7 c0       	rjmp	.+366    	; 0x255a <_ZN19simpleSerialDecoder6updateEv+0x192>
    23ec:	88 e9       	ldi	r24, 0x98	; 152
    23ee:	96 e0       	ldi	r25, 0x06	; 6
    23f0:	48 d1       	rcall	.+656    	; 0x2682 <_ZN20simpleSerialProtocol14getMessageTypeEv>
    23f2:	28 2f       	mov	r18, r24
    23f4:	88 e9       	ldi	r24, 0x98	; 152
    23f6:	96 e0       	ldi	r25, 0x06	; 6
    23f8:	29 83       	std	Y+1, r18	; 0x01
    23fa:	46 d1       	rcall	.+652    	; 0x2688 <_ZN20simpleSerialProtocol15getMessageValueEv>
    23fc:	48 2f       	mov	r20, r24
    23fe:	29 81       	ldd	r18, Y+1	; 0x01
    2400:	24 30       	cpi	r18, 0x04	; 4
    2402:	49 f1       	breq	.+82     	; 0x2456 <_ZN19simpleSerialDecoder6updateEv+0x8e>
    2404:	38 f4       	brcc	.+14     	; 0x2414 <_ZN19simpleSerialDecoder6updateEv+0x4c>
    2406:	22 30       	cpi	r18, 0x02	; 2
    2408:	d1 f0       	breq	.+52     	; 0x243e <_ZN19simpleSerialDecoder6updateEv+0x76>
    240a:	f8 f4       	brcc	.+62     	; 0x244a <_ZN19simpleSerialDecoder6updateEv+0x82>
    240c:	21 30       	cpi	r18, 0x01	; 1
    240e:	09 f0       	breq	.+2      	; 0x2412 <_ZN19simpleSerialDecoder6updateEv+0x4a>
    2410:	45 c0       	rjmp	.+138    	; 0x249c <_ZN19simpleSerialDecoder6updateEv+0xd4>
    2412:	08 c0       	rjmp	.+16     	; 0x2424 <_ZN19simpleSerialDecoder6updateEv+0x5c>
    2414:	26 30       	cpi	r18, 0x06	; 6
    2416:	59 f1       	breq	.+86     	; 0x246e <_ZN19simpleSerialDecoder6updateEv+0xa6>
    2418:	20 f1       	brcs	.+72     	; 0x2462 <_ZN19simpleSerialDecoder6updateEv+0x9a>
    241a:	27 30       	cpi	r18, 0x07	; 7
    241c:	71 f1       	breq	.+92     	; 0x247a <_ZN19simpleSerialDecoder6updateEv+0xb2>
    241e:	28 30       	cpi	r18, 0x08	; 8
    2420:	e9 f5       	brne	.+122    	; 0x249c <_ZN19simpleSerialDecoder6updateEv+0xd4>
    2422:	31 c0       	rjmp	.+98     	; 0x2486 <_ZN19simpleSerialDecoder6updateEv+0xbe>
    2424:	81 30       	cpi	r24, 0x01	; 1
    2426:	29 f0       	breq	.+10     	; 0x2432 <_ZN19simpleSerialDecoder6updateEv+0x6a>
    2428:	88 e9       	ldi	r24, 0x98	; 152
    242a:	96 e0       	ldi	r25, 0x06	; 6
    242c:	49 83       	std	Y+1, r20	; 0x01
    242e:	32 d1       	rcall	.+612    	; 0x2694 <_ZN20simpleSerialProtocol4syncEv>
    2430:	49 81       	ldd	r20, Y+1	; 0x01
    2432:	d7 01       	movw	r26, r14
    2434:	12 96       	adiw	r26, 0x02	; 2
    2436:	ed 91       	ld	r30, X+
    2438:	fc 91       	ld	r31, X
    243a:	13 97       	sbiw	r26, 0x03	; 3
    243c:	29 c0       	rjmp	.+82     	; 0x2490 <_ZN19simpleSerialDecoder6updateEv+0xc8>
    243e:	d7 01       	movw	r26, r14
    2440:	14 96       	adiw	r26, 0x04	; 4
    2442:	ed 91       	ld	r30, X+
    2444:	fc 91       	ld	r31, X
    2446:	15 97       	sbiw	r26, 0x05	; 5
    2448:	23 c0       	rjmp	.+70     	; 0x2490 <_ZN19simpleSerialDecoder6updateEv+0xc8>
    244a:	d7 01       	movw	r26, r14
    244c:	16 96       	adiw	r26, 0x06	; 6
    244e:	ed 91       	ld	r30, X+
    2450:	fc 91       	ld	r31, X
    2452:	17 97       	sbiw	r26, 0x07	; 7
    2454:	1d c0       	rjmp	.+58     	; 0x2490 <_ZN19simpleSerialDecoder6updateEv+0xc8>
    2456:	d7 01       	movw	r26, r14
    2458:	18 96       	adiw	r26, 0x08	; 8
    245a:	ed 91       	ld	r30, X+
    245c:	fc 91       	ld	r31, X
    245e:	19 97       	sbiw	r26, 0x09	; 9
    2460:	17 c0       	rjmp	.+46     	; 0x2490 <_ZN19simpleSerialDecoder6updateEv+0xc8>
    2462:	d7 01       	movw	r26, r14
    2464:	1a 96       	adiw	r26, 0x0a	; 10
    2466:	ed 91       	ld	r30, X+
    2468:	fc 91       	ld	r31, X
    246a:	1b 97       	sbiw	r26, 0x0b	; 11
    246c:	11 c0       	rjmp	.+34     	; 0x2490 <_ZN19simpleSerialDecoder6updateEv+0xc8>
    246e:	d7 01       	movw	r26, r14
    2470:	1c 96       	adiw	r26, 0x0c	; 12
    2472:	ed 91       	ld	r30, X+
    2474:	fc 91       	ld	r31, X
    2476:	1d 97       	sbiw	r26, 0x0d	; 13
    2478:	0b c0       	rjmp	.+22     	; 0x2490 <_ZN19simpleSerialDecoder6updateEv+0xc8>
    247a:	d7 01       	movw	r26, r14
    247c:	1e 96       	adiw	r26, 0x0e	; 14
    247e:	ed 91       	ld	r30, X+
    2480:	fc 91       	ld	r31, X
    2482:	1f 97       	sbiw	r26, 0x0f	; 15
    2484:	05 c0       	rjmp	.+10     	; 0x2490 <_ZN19simpleSerialDecoder6updateEv+0xc8>
    2486:	d7 01       	movw	r26, r14
    2488:	50 96       	adiw	r26, 0x10	; 16
    248a:	ed 91       	ld	r30, X+
    248c:	fc 91       	ld	r31, X
    248e:	51 97       	sbiw	r26, 0x11	; 17
    2490:	30 97       	sbiw	r30, 0x00	; 0
    2492:	09 f4       	brne	.+2      	; 0x2496 <_ZN19simpleSerialDecoder6updateEv+0xce>
    2494:	a5 cf       	rjmp	.-182    	; 0x23e0 <_ZN19simpleSerialDecoder6updateEv+0x18>
    2496:	84 2f       	mov	r24, r20
    2498:	09 95       	icall
    249a:	a2 cf       	rjmp	.-188    	; 0x23e0 <_ZN19simpleSerialDecoder6updateEv+0x18>
    249c:	82 2f       	mov	r24, r18
    249e:	8a 50       	subi	r24, 0x0A	; 10
    24a0:	8a 30       	cpi	r24, 0x0A	; 10
    24a2:	30 f4       	brcc	.+12     	; 0x24b0 <_ZN19simpleSerialDecoder6updateEv+0xe8>
    24a4:	d7 01       	movw	r26, r14
    24a6:	52 96       	adiw	r26, 0x12	; 18
    24a8:	ed 91       	ld	r30, X+
    24aa:	fc 91       	ld	r31, X
    24ac:	53 97       	sbiw	r26, 0x13	; 19
    24ae:	3b c0       	rjmp	.+118    	; 0x2526 <_ZN19simpleSerialDecoder6updateEv+0x15e>
    24b0:	82 2f       	mov	r24, r18
    24b2:	84 51       	subi	r24, 0x14	; 20
    24b4:	8a 30       	cpi	r24, 0x0A	; 10
    24b6:	30 f4       	brcc	.+12     	; 0x24c4 <_ZN19simpleSerialDecoder6updateEv+0xfc>
    24b8:	d7 01       	movw	r26, r14
    24ba:	54 96       	adiw	r26, 0x14	; 20
    24bc:	ed 91       	ld	r30, X+
    24be:	fc 91       	ld	r31, X
    24c0:	55 97       	sbiw	r26, 0x15	; 21
    24c2:	31 c0       	rjmp	.+98     	; 0x2526 <_ZN19simpleSerialDecoder6updateEv+0x15e>
    24c4:	82 2f       	mov	r24, r18
    24c6:	8e 51       	subi	r24, 0x1E	; 30
    24c8:	8a 30       	cpi	r24, 0x0A	; 10
    24ca:	30 f4       	brcc	.+12     	; 0x24d8 <_ZN19simpleSerialDecoder6updateEv+0x110>
    24cc:	d7 01       	movw	r26, r14
    24ce:	56 96       	adiw	r26, 0x16	; 22
    24d0:	ed 91       	ld	r30, X+
    24d2:	fc 91       	ld	r31, X
    24d4:	57 97       	sbiw	r26, 0x17	; 23
    24d6:	27 c0       	rjmp	.+78     	; 0x2526 <_ZN19simpleSerialDecoder6updateEv+0x15e>
    24d8:	82 2f       	mov	r24, r18
    24da:	88 52       	subi	r24, 0x28	; 40
    24dc:	8a 30       	cpi	r24, 0x0A	; 10
    24de:	30 f4       	brcc	.+12     	; 0x24ec <_ZN19simpleSerialDecoder6updateEv+0x124>
    24e0:	d7 01       	movw	r26, r14
    24e2:	58 96       	adiw	r26, 0x18	; 24
    24e4:	ed 91       	ld	r30, X+
    24e6:	fc 91       	ld	r31, X
    24e8:	59 97       	sbiw	r26, 0x19	; 25
    24ea:	1d c0       	rjmp	.+58     	; 0x2526 <_ZN19simpleSerialDecoder6updateEv+0x15e>
    24ec:	82 2f       	mov	r24, r18
    24ee:	82 53       	subi	r24, 0x32	; 50
    24f0:	8a 30       	cpi	r24, 0x0A	; 10
    24f2:	30 f4       	brcc	.+12     	; 0x2500 <_ZN19simpleSerialDecoder6updateEv+0x138>
    24f4:	d7 01       	movw	r26, r14
    24f6:	5a 96       	adiw	r26, 0x1a	; 26
    24f8:	ed 91       	ld	r30, X+
    24fa:	fc 91       	ld	r31, X
    24fc:	5b 97       	sbiw	r26, 0x1b	; 27
    24fe:	13 c0       	rjmp	.+38     	; 0x2526 <_ZN19simpleSerialDecoder6updateEv+0x15e>
    2500:	82 2f       	mov	r24, r18
    2502:	8c 53       	subi	r24, 0x3C	; 60
    2504:	8a 30       	cpi	r24, 0x0A	; 10
    2506:	30 f4       	brcc	.+12     	; 0x2514 <_ZN19simpleSerialDecoder6updateEv+0x14c>
    2508:	d7 01       	movw	r26, r14
    250a:	5c 96       	adiw	r26, 0x1c	; 28
    250c:	ed 91       	ld	r30, X+
    250e:	fc 91       	ld	r31, X
    2510:	5d 97       	sbiw	r26, 0x1d	; 29
    2512:	09 c0       	rjmp	.+18     	; 0x2526 <_ZN19simpleSerialDecoder6updateEv+0x15e>
    2514:	82 2f       	mov	r24, r18
    2516:	86 54       	subi	r24, 0x46	; 70
    2518:	8a 30       	cpi	r24, 0x0A	; 10
    251a:	58 f4       	brcc	.+22     	; 0x2532 <_ZN19simpleSerialDecoder6updateEv+0x16a>
    251c:	d7 01       	movw	r26, r14
    251e:	5e 96       	adiw	r26, 0x1e	; 30
    2520:	ed 91       	ld	r30, X+
    2522:	fc 91       	ld	r31, X
    2524:	5f 97       	sbiw	r26, 0x1f	; 31
    2526:	30 97       	sbiw	r30, 0x00	; 0
    2528:	09 f4       	brne	.+2      	; 0x252c <_ZN19simpleSerialDecoder6updateEv+0x164>
    252a:	5a cf       	rjmp	.-332    	; 0x23e0 <_ZN19simpleSerialDecoder6updateEv+0x18>
    252c:	64 2f       	mov	r22, r20
    252e:	09 95       	icall
    2530:	57 cf       	rjmp	.-338    	; 0x23e0 <_ZN19simpleSerialDecoder6updateEv+0x18>
    2532:	24 36       	cpi	r18, 0x64	; 100
    2534:	08 f4       	brcc	.+2      	; 0x2538 <_ZN19simpleSerialDecoder6updateEv+0x170>
    2536:	54 cf       	rjmp	.-344    	; 0x23e0 <_ZN19simpleSerialDecoder6updateEv+0x18>
    2538:	d7 01       	movw	r26, r14
    253a:	90 96       	adiw	r26, 0x20	; 32
    253c:	ed 91       	ld	r30, X+
    253e:	fc 91       	ld	r31, X
    2540:	91 97       	sbiw	r26, 0x21	; 33
    2542:	30 97       	sbiw	r30, 0x00	; 0
    2544:	09 f4       	brne	.+2      	; 0x2548 <_ZN19simpleSerialDecoder6updateEv+0x180>
    2546:	4c cf       	rjmp	.-360    	; 0x23e0 <_ZN19simpleSerialDecoder6updateEv+0x18>
    2548:	82 2f       	mov	r24, r18
    254a:	90 e0       	ldi	r25, 0x00	; 0
    254c:	84 56       	subi	r24, 0x64	; 100
    254e:	91 09       	sbc	r25, r1
    2550:	b8 01       	movw	r22, r16
    2552:	0e 94 c1 1a 	call	0x3582	; 0x3582 <__divmodhi4>
    2556:	09 95       	icall
    2558:	43 cf       	rjmp	.-378    	; 0x23e0 <_ZN19simpleSerialDecoder6updateEv+0x18>
    255a:	0f 90       	pop	r0
    255c:	df 91       	pop	r29
    255e:	cf 91       	pop	r28
    2560:	1f 91       	pop	r17
    2562:	0f 91       	pop	r16
    2564:	ff 90       	pop	r15
    2566:	ef 90       	pop	r14
    2568:	08 95       	ret

0000256a <_ZN19simpleSerialDecoder19attachClockCallbackEPFvhE>:
    256a:	fc 01       	movw	r30, r24
    256c:	73 83       	std	Z+3, r23	; 0x03
    256e:	62 83       	std	Z+2, r22	; 0x02
    2570:	08 95       	ret

00002572 <_ZN19simpleSerialDecoder18attachStepCallbackEPFvhE>:
    2572:	fc 01       	movw	r30, r24
    2574:	75 83       	std	Z+5, r23	; 0x05
    2576:	64 83       	std	Z+4, r22	; 0x04
    2578:	08 95       	ret

0000257a <_ZN19simpleSerialDecoder18attachGateCallbackEPFvhE>:
    257a:	fc 01       	movw	r30, r24
    257c:	77 83       	std	Z+7, r23	; 0x07
    257e:	66 83       	std	Z+6, r22	; 0x06
    2580:	08 95       	ret

00002582 <_ZN19simpleSerialDecoder21attachTriggerCallbackEPFvhE>:
    2582:	fc 01       	movw	r30, r24
    2584:	71 87       	std	Z+9, r23	; 0x09
    2586:	60 87       	std	Z+8, r22	; 0x08
    2588:	08 95       	ret

0000258a <_ZN19simpleSerialDecoder19attachStartCallbackEPFvhE>:
    258a:	fc 01       	movw	r30, r24
    258c:	73 87       	std	Z+11, r23	; 0x0b
    258e:	62 87       	std	Z+10, r22	; 0x0a
    2590:	08 95       	ret

00002592 <_ZN19simpleSerialDecoder18attachStopCallbackEPFvhE>:
    2592:	fc 01       	movw	r30, r24
    2594:	75 87       	std	Z+13, r23	; 0x0d
    2596:	64 87       	std	Z+12, r22	; 0x0c
    2598:	08 95       	ret

0000259a <_ZN19simpleSerialDecoder21attachRestartCallbackEPFvhE>:
    259a:	fc 01       	movw	r30, r24
    259c:	77 87       	std	Z+15, r23	; 0x0f
    259e:	66 87       	std	Z+14, r22	; 0x0e
    25a0:	08 95       	ret

000025a2 <_ZN19simpleSerialDecoder20attachSelectCallbackEPFvhE>:
    25a2:	fc 01       	movw	r30, r24
    25a4:	71 8b       	std	Z+17, r23	; 0x11
    25a6:	60 8b       	std	Z+16, r22	; 0x10
    25a8:	08 95       	ret

000025aa <_ZN19simpleSerialDecoder28attachChannelTriggerCallbackEPFvhhE>:
    25aa:	fc 01       	movw	r30, r24
    25ac:	73 8b       	std	Z+19, r23	; 0x13
    25ae:	62 8b       	std	Z+18, r22	; 0x12
    25b0:	08 95       	ret

000025b2 <_ZN19simpleSerialDecoder25attachChannelGateCallbackEPFvhhE>:
    25b2:	fc 01       	movw	r30, r24
    25b4:	75 8b       	std	Z+21, r23	; 0x15
    25b6:	64 8b       	std	Z+20, r22	; 0x14
    25b8:	08 95       	ret

000025ba <_ZN19simpleSerialDecoder23attachChannelCVCallbackEPFvhhE>:
    25ba:	fc 01       	movw	r30, r24
    25bc:	77 8b       	std	Z+23, r23	; 0x17
    25be:	66 8b       	std	Z+22, r22	; 0x16
    25c0:	08 95       	ret

000025c2 <_ZN19simpleSerialDecoder36attachChannelInterpolateFromCallbackEPFvhhE>:
    25c2:	fc 01       	movw	r30, r24
    25c4:	71 8f       	std	Z+25, r23	; 0x19
    25c6:	60 8f       	std	Z+24, r22	; 0x18
    25c8:	08 95       	ret

000025ca <_ZN19simpleSerialDecoder34attachChannelInterpolateToCallbackEPFvhhE>:
    25ca:	fc 01       	movw	r30, r24
    25cc:	73 8f       	std	Z+27, r23	; 0x1b
    25ce:	62 8f       	std	Z+26, r22	; 0x1a
    25d0:	08 95       	ret

000025d2 <_ZN19simpleSerialDecoder32attachChannelInterpolateCallbackEPFvhhE>:
    25d2:	fc 01       	movw	r30, r24
    25d4:	75 8f       	std	Z+29, r23	; 0x1d
    25d6:	64 8f       	std	Z+28, r22	; 0x1c
    25d8:	08 95       	ret

000025da <_ZN19simpleSerialDecoder25attachChannelModeCallbackEPFvhhE>:
    25da:	fc 01       	movw	r30, r24
    25dc:	77 8f       	std	Z+31, r23	; 0x1f
    25de:	66 8f       	std	Z+30, r22	; 0x1e
    25e0:	08 95       	ret

000025e2 <_ZN19simpleSerialDecoder26attachChannelValueCallbackEPFvhhhE>:
    25e2:	fc 01       	movw	r30, r24
    25e4:	71 a3       	std	Z+33, r23	; 0x21
    25e6:	60 a3       	std	Z+32, r22	; 0x20
    25e8:	08 95       	ret

000025ea <_ZN20simpleSerialProtocol4initEj>:
    25ea:	ab 01       	movw	r20, r22
    25ec:	60 e0       	ldi	r22, 0x00	; 0
    25ee:	70 e0       	ldi	r23, 0x00	; 0
    25f0:	8b e9       	ldi	r24, 0x9B	; 155
    25f2:	96 e0       	ldi	r25, 0x06	; 6
    25f4:	64 c1       	rjmp	.+712    	; 0x28be <_ZN14HardwareSerial5beginEm>

000025f6 <_ZN20simpleSerialProtocol15transferMessageEhh>:
    25f6:	cf 93       	push	r28
    25f8:	df 93       	push	r29
    25fa:	1f 92       	push	r1
    25fc:	cd b7       	in	r28, 0x3d	; 61
    25fe:	de b7       	in	r29, 0x3e	; 62
    2600:	8b e9       	ldi	r24, 0x9B	; 155
    2602:	96 e0       	ldi	r25, 0x06	; 6
    2604:	49 83       	std	Y+1, r20	; 0x01
    2606:	a9 d0       	rcall	.+338    	; 0x275a <_ZN14HardwareSerial5writeEh>
    2608:	49 81       	ldd	r20, Y+1	; 0x01
    260a:	64 2f       	mov	r22, r20
    260c:	8b e9       	ldi	r24, 0x9B	; 155
    260e:	96 e0       	ldi	r25, 0x06	; 6
    2610:	0f 90       	pop	r0
    2612:	df 91       	pop	r29
    2614:	cf 91       	pop	r28
    2616:	a1 c0       	rjmp	.+322    	; 0x275a <_ZN14HardwareSerial5writeEh>

00002618 <_ZN20simpleSerialProtocol14recieveMessageEv>:
    2618:	cf 93       	push	r28
    261a:	df 93       	push	r29
    261c:	ec 01       	movw	r28, r24
    261e:	8b e9       	ldi	r24, 0x9B	; 155
    2620:	96 e0       	ldi	r25, 0x06	; 6
    2622:	3d d0       	rcall	.+122    	; 0x269e <_ZN14HardwareSerial9availableEv>
    2624:	89 2b       	or	r24, r25
    2626:	39 f1       	breq	.+78     	; 0x2676 <_ZN20simpleSerialProtocol14recieveMessageEv+0x5e>
    2628:	8a 81       	ldd	r24, Y+2	; 0x02
    262a:	81 11       	cpse	r24, r1
    262c:	0e c0       	rjmp	.+28     	; 0x264a <_ZN20simpleSerialProtocol14recieveMessageEv+0x32>
    262e:	8b e9       	ldi	r24, 0x9B	; 155
    2630:	96 e0       	ldi	r25, 0x06	; 6
    2632:	64 d0       	rcall	.+200    	; 0x26fc <_ZN14HardwareSerial4readEv>
    2634:	88 83       	st	Y, r24
    2636:	91 e0       	ldi	r25, 0x01	; 1
    2638:	9a 83       	std	Y+2, r25	; 0x02
    263a:	89 30       	cpi	r24, 0x09	; 9
    263c:	31 f4       	brne	.+12     	; 0x264a <_ZN20simpleSerialProtocol14recieveMessageEv+0x32>
    263e:	89 81       	ldd	r24, Y+1	; 0x01
    2640:	89 30       	cpi	r24, 0x09	; 9
    2642:	19 f4       	brne	.+6      	; 0x264a <_ZN20simpleSerialProtocol14recieveMessageEv+0x32>
    2644:	1a 82       	std	Y+2, r1	; 0x02
    2646:	18 82       	st	Y, r1
    2648:	19 82       	std	Y+1, r1	; 0x01
    264a:	8a 81       	ldd	r24, Y+2	; 0x02
    264c:	81 30       	cpi	r24, 0x01	; 1
    264e:	91 f4       	brne	.+36     	; 0x2674 <_ZN20simpleSerialProtocol14recieveMessageEv+0x5c>
    2650:	8b e9       	ldi	r24, 0x9B	; 155
    2652:	96 e0       	ldi	r25, 0x06	; 6
    2654:	24 d0       	rcall	.+72     	; 0x269e <_ZN14HardwareSerial9availableEv>
    2656:	89 2b       	or	r24, r25
    2658:	71 f0       	breq	.+28     	; 0x2676 <_ZN20simpleSerialProtocol14recieveMessageEv+0x5e>
    265a:	8b e9       	ldi	r24, 0x9B	; 155
    265c:	96 e0       	ldi	r25, 0x06	; 6
    265e:	4e d0       	rcall	.+156    	; 0x26fc <_ZN14HardwareSerial4readEv>
    2660:	89 83       	std	Y+1, r24	; 0x01
    2662:	1a 82       	std	Y+2, r1	; 0x02
    2664:	98 81       	ld	r25, Y
    2666:	99 30       	cpi	r25, 0x09	; 9
    2668:	41 f4       	brne	.+16     	; 0x267a <_ZN20simpleSerialProtocol14recieveMessageEv+0x62>
    266a:	89 30       	cpi	r24, 0x09	; 9
    266c:	31 f4       	brne	.+12     	; 0x267a <_ZN20simpleSerialProtocol14recieveMessageEv+0x62>
    266e:	18 82       	st	Y, r1
    2670:	19 82       	std	Y+1, r1	; 0x01
    2672:	03 c0       	rjmp	.+6      	; 0x267a <_ZN20simpleSerialProtocol14recieveMessageEv+0x62>
    2674:	03 c0       	rjmp	.+6      	; 0x267c <_ZN20simpleSerialProtocol14recieveMessageEv+0x64>
    2676:	80 e0       	ldi	r24, 0x00	; 0
    2678:	01 c0       	rjmp	.+2      	; 0x267c <_ZN20simpleSerialProtocol14recieveMessageEv+0x64>
    267a:	81 e0       	ldi	r24, 0x01	; 1
    267c:	df 91       	pop	r29
    267e:	cf 91       	pop	r28
    2680:	08 95       	ret

00002682 <_ZN20simpleSerialProtocol14getMessageTypeEv>:
    2682:	fc 01       	movw	r30, r24
    2684:	80 81       	ld	r24, Z
    2686:	08 95       	ret

00002688 <_ZN20simpleSerialProtocol15getMessageValueEv>:
    2688:	fc 01       	movw	r30, r24
    268a:	81 81       	ldd	r24, Z+1	; 0x01
    268c:	08 95       	ret

0000268e <_ZN20simpleSerialProtocol11pairMessageEv>:
    268e:	49 e0       	ldi	r20, 0x09	; 9
    2690:	69 e0       	ldi	r22, 0x09	; 9
    2692:	b1 cf       	rjmp	.-158    	; 0x25f6 <_ZN20simpleSerialProtocol15transferMessageEhh>

00002694 <_ZN20simpleSerialProtocol4syncEv>:
    2694:	fc 01       	movw	r30, r24
    2696:	12 82       	std	Z+2, r1	; 0x02
    2698:	10 82       	st	Z, r1
    269a:	11 82       	std	Z+1, r1	; 0x01
    269c:	08 95       	ret

0000269e <_ZN14HardwareSerial9availableEv>:
    269e:	fc 01       	movw	r30, r24
    26a0:	84 85       	ldd	r24, Z+12	; 0x0c
    26a2:	95 85       	ldd	r25, Z+13	; 0x0d
    26a4:	fc 01       	movw	r30, r24
    26a6:	e0 5c       	subi	r30, 0xC0	; 192
    26a8:	ff 4f       	sbci	r31, 0xFF	; 255
    26aa:	20 81       	ld	r18, Z
    26ac:	31 81       	ldd	r19, Z+1	; 0x01
    26ae:	fc 01       	movw	r30, r24
    26b0:	ee 5b       	subi	r30, 0xBE	; 190
    26b2:	ff 4f       	sbci	r31, 0xFF	; 255
    26b4:	80 81       	ld	r24, Z
    26b6:	91 81       	ldd	r25, Z+1	; 0x01
    26b8:	28 1b       	sub	r18, r24
    26ba:	39 0b       	sbc	r19, r25
    26bc:	2f 73       	andi	r18, 0x3F	; 63
    26be:	33 27       	eor	r19, r19
    26c0:	c9 01       	movw	r24, r18
    26c2:	08 95       	ret

000026c4 <_ZN14HardwareSerial4peekEv>:
    26c4:	fc 01       	movw	r30, r24
    26c6:	84 85       	ldd	r24, Z+12	; 0x0c
    26c8:	95 85       	ldd	r25, Z+13	; 0x0d
    26ca:	fc 01       	movw	r30, r24
    26cc:	e0 5c       	subi	r30, 0xC0	; 192
    26ce:	ff 4f       	sbci	r31, 0xFF	; 255
    26d0:	40 81       	ld	r20, Z
    26d2:	51 81       	ldd	r21, Z+1	; 0x01
    26d4:	fc 01       	movw	r30, r24
    26d6:	ee 5b       	subi	r30, 0xBE	; 190
    26d8:	ff 4f       	sbci	r31, 0xFF	; 255
    26da:	20 81       	ld	r18, Z
    26dc:	31 81       	ldd	r19, Z+1	; 0x01
    26de:	42 17       	cp	r20, r18
    26e0:	53 07       	cpc	r21, r19
    26e2:	41 f0       	breq	.+16     	; 0x26f4 <_ZN14HardwareSerial4peekEv+0x30>
    26e4:	01 90       	ld	r0, Z+
    26e6:	f0 81       	ld	r31, Z
    26e8:	e0 2d       	mov	r30, r0
    26ea:	e8 0f       	add	r30, r24
    26ec:	f9 1f       	adc	r31, r25
    26ee:	20 81       	ld	r18, Z
    26f0:	30 e0       	ldi	r19, 0x00	; 0
    26f2:	02 c0       	rjmp	.+4      	; 0x26f8 <_ZN14HardwareSerial4peekEv+0x34>
    26f4:	2f ef       	ldi	r18, 0xFF	; 255
    26f6:	3f ef       	ldi	r19, 0xFF	; 255
    26f8:	c9 01       	movw	r24, r18
    26fa:	08 95       	ret

000026fc <_ZN14HardwareSerial4readEv>:
    26fc:	fc 01       	movw	r30, r24
    26fe:	84 85       	ldd	r24, Z+12	; 0x0c
    2700:	95 85       	ldd	r25, Z+13	; 0x0d
    2702:	fc 01       	movw	r30, r24
    2704:	e0 5c       	subi	r30, 0xC0	; 192
    2706:	ff 4f       	sbci	r31, 0xFF	; 255
    2708:	40 81       	ld	r20, Z
    270a:	51 81       	ldd	r21, Z+1	; 0x01
    270c:	fc 01       	movw	r30, r24
    270e:	ee 5b       	subi	r30, 0xBE	; 190
    2710:	ff 4f       	sbci	r31, 0xFF	; 255
    2712:	20 81       	ld	r18, Z
    2714:	31 81       	ldd	r19, Z+1	; 0x01
    2716:	42 17       	cp	r20, r18
    2718:	53 07       	cpc	r21, r19
    271a:	81 f0       	breq	.+32     	; 0x273c <_ZN14HardwareSerial4readEv+0x40>
    271c:	a0 81       	ld	r26, Z
    271e:	b1 81       	ldd	r27, Z+1	; 0x01
    2720:	a8 0f       	add	r26, r24
    2722:	b9 1f       	adc	r27, r25
    2724:	8c 91       	ld	r24, X
    2726:	20 81       	ld	r18, Z
    2728:	31 81       	ldd	r19, Z+1	; 0x01
    272a:	2f 5f       	subi	r18, 0xFF	; 255
    272c:	3f 4f       	sbci	r19, 0xFF	; 255
    272e:	2f 73       	andi	r18, 0x3F	; 63
    2730:	33 27       	eor	r19, r19
    2732:	31 83       	std	Z+1, r19	; 0x01
    2734:	20 83       	st	Z, r18
    2736:	28 2f       	mov	r18, r24
    2738:	30 e0       	ldi	r19, 0x00	; 0
    273a:	02 c0       	rjmp	.+4      	; 0x2740 <_ZN14HardwareSerial4readEv+0x44>
    273c:	2f ef       	ldi	r18, 0xFF	; 255
    273e:	3f ef       	ldi	r19, 0xFF	; 255
    2740:	c9 01       	movw	r24, r18
    2742:	08 95       	ret

00002744 <_ZN14HardwareSerial5flushEv>:
    2744:	fc 01       	movw	r30, r24
    2746:	81 a1       	ldd	r24, Z+33	; 0x21
    2748:	88 23       	and	r24, r24
    274a:	29 f0       	breq	.+10     	; 0x2756 <_ZN14HardwareSerial5flushEv+0x12>
    274c:	a4 89       	ldd	r26, Z+20	; 0x14
    274e:	b5 89       	ldd	r27, Z+21	; 0x15
    2750:	8c 91       	ld	r24, X
    2752:	86 ff       	sbrs	r24, 6
    2754:	fb cf       	rjmp	.-10     	; 0x274c <_ZN14HardwareSerial5flushEv+0x8>
    2756:	11 a2       	std	Z+33, r1	; 0x21
    2758:	08 95       	ret

0000275a <_ZN14HardwareSerial5writeEh>:
    275a:	cf 93       	push	r28
    275c:	df 93       	push	r29
    275e:	fc 01       	movw	r30, r24
    2760:	26 85       	ldd	r18, Z+14	; 0x0e
    2762:	37 85       	ldd	r19, Z+15	; 0x0f
    2764:	d9 01       	movw	r26, r18
    2766:	a0 5c       	subi	r26, 0xC0	; 192
    2768:	bf 4f       	sbci	r27, 0xFF	; 255
    276a:	8d 91       	ld	r24, X+
    276c:	9c 91       	ld	r25, X
    276e:	11 97       	sbiw	r26, 0x01	; 1
    2770:	01 96       	adiw	r24, 0x01	; 1
    2772:	8f 73       	andi	r24, 0x3F	; 63
    2774:	99 27       	eor	r25, r25
    2776:	e9 01       	movw	r28, r18
    2778:	ce 5b       	subi	r28, 0xBE	; 190
    277a:	df 4f       	sbci	r29, 0xFF	; 255
    277c:	48 81       	ld	r20, Y
    277e:	59 81       	ldd	r21, Y+1	; 0x01
    2780:	84 17       	cp	r24, r20
    2782:	95 07       	cpc	r25, r21
    2784:	d9 f3       	breq	.-10     	; 0x277c <_ZN14HardwareSerial5writeEh+0x22>
    2786:	0d 90       	ld	r0, X+
    2788:	bc 91       	ld	r27, X
    278a:	a0 2d       	mov	r26, r0
    278c:	a2 0f       	add	r26, r18
    278e:	b3 1f       	adc	r27, r19
    2790:	6c 93       	st	X, r22
    2792:	a6 85       	ldd	r26, Z+14	; 0x0e
    2794:	b7 85       	ldd	r27, Z+15	; 0x0f
    2796:	a0 5c       	subi	r26, 0xC0	; 192
    2798:	bf 4f       	sbci	r27, 0xFF	; 255
    279a:	11 96       	adiw	r26, 0x01	; 1
    279c:	9c 93       	st	X, r25
    279e:	8e 93       	st	-X, r24
    27a0:	a6 89       	ldd	r26, Z+22	; 0x16
    27a2:	b7 89       	ldd	r27, Z+23	; 0x17
    27a4:	2c 91       	ld	r18, X
    27a6:	81 e0       	ldi	r24, 0x01	; 1
    27a8:	90 e0       	ldi	r25, 0x00	; 0
    27aa:	07 8c       	ldd	r0, Z+31	; 0x1f
    27ac:	02 c0       	rjmp	.+4      	; 0x27b2 <_ZN14HardwareSerial5writeEh+0x58>
    27ae:	88 0f       	add	r24, r24
    27b0:	99 1f       	adc	r25, r25
    27b2:	0a 94       	dec	r0
    27b4:	e2 f7       	brpl	.-8      	; 0x27ae <_ZN14HardwareSerial5writeEh+0x54>
    27b6:	28 2b       	or	r18, r24
    27b8:	2c 93       	st	X, r18
    27ba:	81 e0       	ldi	r24, 0x01	; 1
    27bc:	81 a3       	std	Z+33, r24	; 0x21
    27be:	04 88       	ldd	r0, Z+20	; 0x14
    27c0:	f5 89       	ldd	r31, Z+21	; 0x15
    27c2:	e0 2d       	mov	r30, r0
    27c4:	80 81       	ld	r24, Z
    27c6:	80 64       	ori	r24, 0x40	; 64
    27c8:	80 83       	st	Z, r24
    27ca:	81 e0       	ldi	r24, 0x01	; 1
    27cc:	90 e0       	ldi	r25, 0x00	; 0
    27ce:	df 91       	pop	r29
    27d0:	cf 91       	pop	r28
    27d2:	08 95       	ret

000027d4 <__vector_18>:
    27d4:	1f 92       	push	r1
    27d6:	0f 92       	push	r0
    27d8:	0f b6       	in	r0, 0x3f	; 63
    27da:	0f 92       	push	r0
    27dc:	11 24       	eor	r1, r1
    27de:	2f 93       	push	r18
    27e0:	3f 93       	push	r19
    27e2:	4f 93       	push	r20
    27e4:	8f 93       	push	r24
    27e6:	9f 93       	push	r25
    27e8:	ef 93       	push	r30
    27ea:	ff 93       	push	r31
    27ec:	80 91 c0 00 	lds	r24, 0x00C0
    27f0:	82 fd       	sbrc	r24, 2
    27f2:	1c c0       	rjmp	.+56     	; 0x282c <__vector_18+0x58>
    27f4:	40 91 c6 00 	lds	r20, 0x00C6
    27f8:	80 91 41 07 	lds	r24, 0x0741
    27fc:	90 91 42 07 	lds	r25, 0x0742
    2800:	01 96       	adiw	r24, 0x01	; 1
    2802:	8f 73       	andi	r24, 0x3F	; 63
    2804:	99 27       	eor	r25, r25
    2806:	20 91 43 07 	lds	r18, 0x0743
    280a:	30 91 44 07 	lds	r19, 0x0744
    280e:	82 17       	cp	r24, r18
    2810:	93 07       	cpc	r25, r19
    2812:	71 f0       	breq	.+28     	; 0x2830 <__vector_18+0x5c>
    2814:	e0 91 41 07 	lds	r30, 0x0741
    2818:	f0 91 42 07 	lds	r31, 0x0742
    281c:	ef 5f       	subi	r30, 0xFF	; 255
    281e:	f8 4f       	sbci	r31, 0xF8	; 248
    2820:	40 83       	st	Z, r20
    2822:	90 93 42 07 	sts	0x0742, r25
    2826:	80 93 41 07 	sts	0x0741, r24
    282a:	02 c0       	rjmp	.+4      	; 0x2830 <__vector_18+0x5c>
    282c:	80 91 c6 00 	lds	r24, 0x00C6
    2830:	ff 91       	pop	r31
    2832:	ef 91       	pop	r30
    2834:	9f 91       	pop	r25
    2836:	8f 91       	pop	r24
    2838:	4f 91       	pop	r20
    283a:	3f 91       	pop	r19
    283c:	2f 91       	pop	r18
    283e:	0f 90       	pop	r0
    2840:	0f be       	out	0x3f, r0	; 63
    2842:	0f 90       	pop	r0
    2844:	1f 90       	pop	r1
    2846:	18 95       	reti

00002848 <__vector_19>:
    2848:	1f 92       	push	r1
    284a:	0f 92       	push	r0
    284c:	0f b6       	in	r0, 0x3f	; 63
    284e:	0f 92       	push	r0
    2850:	11 24       	eor	r1, r1
    2852:	2f 93       	push	r18
    2854:	3f 93       	push	r19
    2856:	8f 93       	push	r24
    2858:	9f 93       	push	r25
    285a:	ef 93       	push	r30
    285c:	ff 93       	push	r31
    285e:	20 91 fd 06 	lds	r18, 0x06FD
    2862:	30 91 fe 06 	lds	r19, 0x06FE
    2866:	80 91 ff 06 	lds	r24, 0x06FF
    286a:	90 91 00 07 	lds	r25, 0x0700
    286e:	28 17       	cp	r18, r24
    2870:	39 07       	cpc	r19, r25
    2872:	31 f4       	brne	.+12     	; 0x2880 <__vector_19+0x38>
    2874:	80 91 c1 00 	lds	r24, 0x00C1
    2878:	8f 7d       	andi	r24, 0xDF	; 223
    287a:	80 93 c1 00 	sts	0x00C1, r24
    287e:	14 c0       	rjmp	.+40     	; 0x28a8 <__vector_19+0x60>
    2880:	e0 91 ff 06 	lds	r30, 0x06FF
    2884:	f0 91 00 07 	lds	r31, 0x0700
    2888:	e3 54       	subi	r30, 0x43	; 67
    288a:	f9 4f       	sbci	r31, 0xF9	; 249
    288c:	20 81       	ld	r18, Z
    288e:	80 91 ff 06 	lds	r24, 0x06FF
    2892:	90 91 00 07 	lds	r25, 0x0700
    2896:	01 96       	adiw	r24, 0x01	; 1
    2898:	8f 73       	andi	r24, 0x3F	; 63
    289a:	99 27       	eor	r25, r25
    289c:	90 93 00 07 	sts	0x0700, r25
    28a0:	80 93 ff 06 	sts	0x06FF, r24
    28a4:	20 93 c6 00 	sts	0x00C6, r18
    28a8:	ff 91       	pop	r31
    28aa:	ef 91       	pop	r30
    28ac:	9f 91       	pop	r25
    28ae:	8f 91       	pop	r24
    28b0:	3f 91       	pop	r19
    28b2:	2f 91       	pop	r18
    28b4:	0f 90       	pop	r0
    28b6:	0f be       	out	0x3f, r0	; 63
    28b8:	0f 90       	pop	r0
    28ba:	1f 90       	pop	r1
    28bc:	18 95       	reti

000028be <_ZN14HardwareSerial5beginEm>:
    28be:	cf 92       	push	r12
    28c0:	df 92       	push	r13
    28c2:	ef 92       	push	r14
    28c4:	ff 92       	push	r15
    28c6:	cf 93       	push	r28
    28c8:	df 93       	push	r29
    28ca:	ec 01       	movw	r28, r24
    28cc:	6a 01       	movw	r12, r20
    28ce:	7b 01       	movw	r14, r22
    28d0:	41 15       	cp	r20, r1
    28d2:	81 ee       	ldi	r24, 0xE1	; 225
    28d4:	58 07       	cpc	r21, r24
    28d6:	61 05       	cpc	r22, r1
    28d8:	71 05       	cpc	r23, r1
    28da:	f1 f0       	breq	.+60     	; 0x2918 <_ZN14HardwareSerial5beginEm+0x5a>
    28dc:	ec 89       	ldd	r30, Y+20	; 0x14
    28de:	fd 89       	ldd	r31, Y+21	; 0x15
    28e0:	81 e0       	ldi	r24, 0x01	; 1
    28e2:	90 e0       	ldi	r25, 0x00	; 0
    28e4:	08 a0       	ldd	r0, Y+32	; 0x20
    28e6:	02 c0       	rjmp	.+4      	; 0x28ec <_ZN14HardwareSerial5beginEm+0x2e>
    28e8:	88 0f       	add	r24, r24
    28ea:	99 1f       	adc	r25, r25
    28ec:	0a 94       	dec	r0
    28ee:	e2 f7       	brpl	.-8      	; 0x28e8 <_ZN14HardwareSerial5beginEm+0x2a>
    28f0:	80 83       	st	Z, r24
    28f2:	60 e0       	ldi	r22, 0x00	; 0
    28f4:	79 e0       	ldi	r23, 0x09	; 9
    28f6:	8d e3       	ldi	r24, 0x3D	; 61
    28f8:	90 e0       	ldi	r25, 0x00	; 0
    28fa:	a7 01       	movw	r20, r14
    28fc:	96 01       	movw	r18, r12
    28fe:	54 d6       	rcall	.+3240   	; 0x35a8 <__udivmodsi4>
    2900:	21 50       	subi	r18, 0x01	; 1
    2902:	31 09       	sbc	r19, r1
    2904:	41 09       	sbc	r20, r1
    2906:	51 09       	sbc	r21, r1
    2908:	56 95       	lsr	r21
    290a:	47 95       	ror	r20
    290c:	37 95       	ror	r19
    290e:	27 95       	ror	r18
    2910:	21 15       	cp	r18, r1
    2912:	80 e1       	ldi	r24, 0x10	; 16
    2914:	38 07       	cpc	r19, r24
    2916:	90 f0       	brcs	.+36     	; 0x293c <_ZN14HardwareSerial5beginEm+0x7e>
    2918:	ec 89       	ldd	r30, Y+20	; 0x14
    291a:	fd 89       	ldd	r31, Y+21	; 0x15
    291c:	10 82       	st	Z, r1
    291e:	60 e8       	ldi	r22, 0x80	; 128
    2920:	74 e8       	ldi	r23, 0x84	; 132
    2922:	8e e1       	ldi	r24, 0x1E	; 30
    2924:	90 e0       	ldi	r25, 0x00	; 0
    2926:	a7 01       	movw	r20, r14
    2928:	96 01       	movw	r18, r12
    292a:	3e d6       	rcall	.+3196   	; 0x35a8 <__udivmodsi4>
    292c:	21 50       	subi	r18, 0x01	; 1
    292e:	31 09       	sbc	r19, r1
    2930:	41 09       	sbc	r20, r1
    2932:	51 09       	sbc	r21, r1
    2934:	56 95       	lsr	r21
    2936:	47 95       	ror	r20
    2938:	37 95       	ror	r19
    293a:	27 95       	ror	r18
    293c:	e8 89       	ldd	r30, Y+16	; 0x10
    293e:	f9 89       	ldd	r31, Y+17	; 0x11
    2940:	30 83       	st	Z, r19
    2942:	ea 89       	ldd	r30, Y+18	; 0x12
    2944:	fb 89       	ldd	r31, Y+19	; 0x13
    2946:	20 83       	st	Z, r18
    2948:	19 a2       	std	Y+33, r1	; 0x21
    294a:	ee 89       	ldd	r30, Y+22	; 0x16
    294c:	ff 89       	ldd	r31, Y+23	; 0x17
    294e:	40 81       	ld	r20, Z
    2950:	81 e0       	ldi	r24, 0x01	; 1
    2952:	90 e0       	ldi	r25, 0x00	; 0
    2954:	9c 01       	movw	r18, r24
    2956:	0c 8c       	ldd	r0, Y+28	; 0x1c
    2958:	02 c0       	rjmp	.+4      	; 0x295e <_ZN14HardwareSerial5beginEm+0xa0>
    295a:	22 0f       	add	r18, r18
    295c:	33 1f       	adc	r19, r19
    295e:	0a 94       	dec	r0
    2960:	e2 f7       	brpl	.-8      	; 0x295a <_ZN14HardwareSerial5beginEm+0x9c>
    2962:	42 2b       	or	r20, r18
    2964:	40 83       	st	Z, r20
    2966:	ee 89       	ldd	r30, Y+22	; 0x16
    2968:	ff 89       	ldd	r31, Y+23	; 0x17
    296a:	40 81       	ld	r20, Z
    296c:	9c 01       	movw	r18, r24
    296e:	0d 8c       	ldd	r0, Y+29	; 0x1d
    2970:	02 c0       	rjmp	.+4      	; 0x2976 <_ZN14HardwareSerial5beginEm+0xb8>
    2972:	22 0f       	add	r18, r18
    2974:	33 1f       	adc	r19, r19
    2976:	0a 94       	dec	r0
    2978:	e2 f7       	brpl	.-8      	; 0x2972 <_ZN14HardwareSerial5beginEm+0xb4>
    297a:	42 2b       	or	r20, r18
    297c:	40 83       	st	Z, r20
    297e:	ee 89       	ldd	r30, Y+22	; 0x16
    2980:	ff 89       	ldd	r31, Y+23	; 0x17
    2982:	40 81       	ld	r20, Z
    2984:	9c 01       	movw	r18, r24
    2986:	0e 8c       	ldd	r0, Y+30	; 0x1e
    2988:	02 c0       	rjmp	.+4      	; 0x298e <_ZN14HardwareSerial5beginEm+0xd0>
    298a:	22 0f       	add	r18, r18
    298c:	33 1f       	adc	r19, r19
    298e:	0a 94       	dec	r0
    2990:	e2 f7       	brpl	.-8      	; 0x298a <_ZN14HardwareSerial5beginEm+0xcc>
    2992:	42 2b       	or	r20, r18
    2994:	40 83       	st	Z, r20
    2996:	ee 89       	ldd	r30, Y+22	; 0x16
    2998:	ff 89       	ldd	r31, Y+23	; 0x17
    299a:	20 81       	ld	r18, Z
    299c:	0f 8c       	ldd	r0, Y+31	; 0x1f
    299e:	02 c0       	rjmp	.+4      	; 0x29a4 <_ZN14HardwareSerial5beginEm+0xe6>
    29a0:	88 0f       	add	r24, r24
    29a2:	99 1f       	adc	r25, r25
    29a4:	0a 94       	dec	r0
    29a6:	e2 f7       	brpl	.-8      	; 0x29a0 <_ZN14HardwareSerial5beginEm+0xe2>
    29a8:	80 95       	com	r24
    29aa:	82 23       	and	r24, r18
    29ac:	80 83       	st	Z, r24
    29ae:	df 91       	pop	r29
    29b0:	cf 91       	pop	r28
    29b2:	ff 90       	pop	r15
    29b4:	ef 90       	pop	r14
    29b6:	df 90       	pop	r13
    29b8:	cf 90       	pop	r12
    29ba:	08 95       	ret

000029bc <_GLOBAL__sub_I_rx_buffer>:
    29bc:	10 92 9e 06 	sts	0x069E, r1
    29c0:	10 92 9d 06 	sts	0x069D, r1
    29c4:	88 ee       	ldi	r24, 0xE8	; 232
    29c6:	93 e0       	ldi	r25, 0x03	; 3
    29c8:	a0 e0       	ldi	r26, 0x00	; 0
    29ca:	b0 e0       	ldi	r27, 0x00	; 0
    29cc:	80 93 9f 06 	sts	0x069F, r24
    29d0:	90 93 a0 06 	sts	0x06A0, r25
    29d4:	a0 93 a1 06 	sts	0x06A1, r26
    29d8:	b0 93 a2 06 	sts	0x06A2, r27
    29dc:	84 e8       	ldi	r24, 0x84	; 132
    29de:	91 e0       	ldi	r25, 0x01	; 1
    29e0:	90 93 9c 06 	sts	0x069C, r25
    29e4:	80 93 9b 06 	sts	0x069B, r24
    29e8:	81 e0       	ldi	r24, 0x01	; 1
    29ea:	97 e0       	ldi	r25, 0x07	; 7
    29ec:	90 93 a8 06 	sts	0x06A8, r25
    29f0:	80 93 a7 06 	sts	0x06A7, r24
    29f4:	8d eb       	ldi	r24, 0xBD	; 189
    29f6:	96 e0       	ldi	r25, 0x06	; 6
    29f8:	90 93 aa 06 	sts	0x06AA, r25
    29fc:	80 93 a9 06 	sts	0x06A9, r24
    2a00:	85 ec       	ldi	r24, 0xC5	; 197
    2a02:	90 e0       	ldi	r25, 0x00	; 0
    2a04:	90 93 ac 06 	sts	0x06AC, r25
    2a08:	80 93 ab 06 	sts	0x06AB, r24
    2a0c:	84 ec       	ldi	r24, 0xC4	; 196
    2a0e:	90 e0       	ldi	r25, 0x00	; 0
    2a10:	90 93 ae 06 	sts	0x06AE, r25
    2a14:	80 93 ad 06 	sts	0x06AD, r24
    2a18:	80 ec       	ldi	r24, 0xC0	; 192
    2a1a:	90 e0       	ldi	r25, 0x00	; 0
    2a1c:	90 93 b0 06 	sts	0x06B0, r25
    2a20:	80 93 af 06 	sts	0x06AF, r24
    2a24:	81 ec       	ldi	r24, 0xC1	; 193
    2a26:	90 e0       	ldi	r25, 0x00	; 0
    2a28:	90 93 b2 06 	sts	0x06B2, r25
    2a2c:	80 93 b1 06 	sts	0x06B1, r24
    2a30:	82 ec       	ldi	r24, 0xC2	; 194
    2a32:	90 e0       	ldi	r25, 0x00	; 0
    2a34:	90 93 b4 06 	sts	0x06B4, r25
    2a38:	80 93 b3 06 	sts	0x06B3, r24
    2a3c:	86 ec       	ldi	r24, 0xC6	; 198
    2a3e:	90 e0       	ldi	r25, 0x00	; 0
    2a40:	90 93 b6 06 	sts	0x06B6, r25
    2a44:	80 93 b5 06 	sts	0x06B5, r24
    2a48:	84 e0       	ldi	r24, 0x04	; 4
    2a4a:	80 93 b7 06 	sts	0x06B7, r24
    2a4e:	83 e0       	ldi	r24, 0x03	; 3
    2a50:	80 93 b8 06 	sts	0x06B8, r24
    2a54:	87 e0       	ldi	r24, 0x07	; 7
    2a56:	80 93 b9 06 	sts	0x06B9, r24
    2a5a:	85 e0       	ldi	r24, 0x05	; 5
    2a5c:	80 93 ba 06 	sts	0x06BA, r24
    2a60:	81 e0       	ldi	r24, 0x01	; 1
    2a62:	80 93 bb 06 	sts	0x06BB, r24
    2a66:	08 95       	ret

00002a68 <_ZN5Print5writeEPKhj>:
    2a68:	cf 92       	push	r12
    2a6a:	df 92       	push	r13
    2a6c:	ef 92       	push	r14
    2a6e:	ff 92       	push	r15
    2a70:	0f 93       	push	r16
    2a72:	1f 93       	push	r17
    2a74:	cf 93       	push	r28
    2a76:	df 93       	push	r29
    2a78:	6c 01       	movw	r12, r24
    2a7a:	eb 01       	movw	r28, r22
    2a7c:	7a 01       	movw	r14, r20
    2a7e:	e6 0e       	add	r14, r22
    2a80:	f7 1e       	adc	r15, r23
    2a82:	00 e0       	ldi	r16, 0x00	; 0
    2a84:	10 e0       	ldi	r17, 0x00	; 0
    2a86:	0b c0       	rjmp	.+22     	; 0x2a9e <_ZN5Print5writeEPKhj+0x36>
    2a88:	69 91       	ld	r22, Y+
    2a8a:	d6 01       	movw	r26, r12
    2a8c:	ed 91       	ld	r30, X+
    2a8e:	fc 91       	ld	r31, X
    2a90:	01 90       	ld	r0, Z+
    2a92:	f0 81       	ld	r31, Z
    2a94:	e0 2d       	mov	r30, r0
    2a96:	c6 01       	movw	r24, r12
    2a98:	09 95       	icall
    2a9a:	08 0f       	add	r16, r24
    2a9c:	19 1f       	adc	r17, r25
    2a9e:	ce 15       	cp	r28, r14
    2aa0:	df 05       	cpc	r29, r15
    2aa2:	91 f7       	brne	.-28     	; 0x2a88 <_ZN5Print5writeEPKhj+0x20>
    2aa4:	c8 01       	movw	r24, r16
    2aa6:	df 91       	pop	r29
    2aa8:	cf 91       	pop	r28
    2aaa:	1f 91       	pop	r17
    2aac:	0f 91       	pop	r16
    2aae:	ff 90       	pop	r15
    2ab0:	ef 90       	pop	r14
    2ab2:	df 90       	pop	r13
    2ab4:	cf 90       	pop	r12
    2ab6:	08 95       	ret

00002ab8 <_Z6randoml>:
    2ab8:	0f 93       	push	r16
    2aba:	1f 93       	push	r17
    2abc:	cf 93       	push	r28
    2abe:	df 93       	push	r29
    2ac0:	00 d0       	rcall	.+0      	; 0x2ac2 <_Z6randoml+0xa>
    2ac2:	00 d0       	rcall	.+0      	; 0x2ac4 <_Z6randoml+0xc>
    2ac4:	cd b7       	in	r28, 0x3d	; 61
    2ac6:	de b7       	in	r29, 0x3e	; 62
    2ac8:	9b 01       	movw	r18, r22
    2aca:	ac 01       	movw	r20, r24
    2acc:	61 15       	cp	r22, r1
    2ace:	71 05       	cpc	r23, r1
    2ad0:	81 05       	cpc	r24, r1
    2ad2:	91 05       	cpc	r25, r1
    2ad4:	69 f0       	breq	.+26     	; 0x2af0 <_Z6randoml+0x38>
    2ad6:	69 83       	std	Y+1, r22	; 0x01
    2ad8:	3a 83       	std	Y+2, r19	; 0x02
    2ada:	4b 83       	std	Y+3, r20	; 0x03
    2adc:	5c 83       	std	Y+4, r21	; 0x04
    2ade:	e0 d1       	rcall	.+960    	; 0x2ea0 <random>
    2ae0:	29 81       	ldd	r18, Y+1	; 0x01
    2ae2:	3a 81       	ldd	r19, Y+2	; 0x02
    2ae4:	4b 81       	ldd	r20, Y+3	; 0x03
    2ae6:	5c 81       	ldd	r21, Y+4	; 0x04
    2ae8:	81 d5       	rcall	.+2818   	; 0x35ec <__divmodsi4>
    2aea:	8b 01       	movw	r16, r22
    2aec:	9c 01       	movw	r18, r24
    2aee:	03 c0       	rjmp	.+6      	; 0x2af6 <_Z6randoml+0x3e>
    2af0:	00 e0       	ldi	r16, 0x00	; 0
    2af2:	10 e0       	ldi	r17, 0x00	; 0
    2af4:	98 01       	movw	r18, r16
    2af6:	b8 01       	movw	r22, r16
    2af8:	c9 01       	movw	r24, r18
    2afa:	0f 90       	pop	r0
    2afc:	0f 90       	pop	r0
    2afe:	0f 90       	pop	r0
    2b00:	0f 90       	pop	r0
    2b02:	df 91       	pop	r29
    2b04:	cf 91       	pop	r28
    2b06:	1f 91       	pop	r17
    2b08:	0f 91       	pop	r16
    2b0a:	08 95       	ret

00002b0c <_Z6randomll>:
    2b0c:	cf 92       	push	r12
    2b0e:	df 92       	push	r13
    2b10:	ef 92       	push	r14
    2b12:	ff 92       	push	r15
    2b14:	6b 01       	movw	r12, r22
    2b16:	7c 01       	movw	r14, r24
    2b18:	62 17       	cp	r22, r18
    2b1a:	73 07       	cpc	r23, r19
    2b1c:	84 07       	cpc	r24, r20
    2b1e:	95 07       	cpc	r25, r21
    2b20:	5c f4       	brge	.+22     	; 0x2b38 <_Z6randomll+0x2c>
    2b22:	ca 01       	movw	r24, r20
    2b24:	b9 01       	movw	r22, r18
    2b26:	6c 19       	sub	r22, r12
    2b28:	7d 09       	sbc	r23, r13
    2b2a:	8e 09       	sbc	r24, r14
    2b2c:	9f 09       	sbc	r25, r15
    2b2e:	c4 df       	rcall	.-120    	; 0x2ab8 <_Z6randoml>
    2b30:	c6 0e       	add	r12, r22
    2b32:	d7 1e       	adc	r13, r23
    2b34:	e8 1e       	adc	r14, r24
    2b36:	f9 1e       	adc	r15, r25
    2b38:	b6 01       	movw	r22, r12
    2b3a:	c7 01       	movw	r24, r14
    2b3c:	ff 90       	pop	r15
    2b3e:	ef 90       	pop	r14
    2b40:	df 90       	pop	r13
    2b42:	cf 90       	pop	r12
    2b44:	08 95       	ret

00002b46 <_Z3maplllll>:
    2b46:	4f 92       	push	r4
    2b48:	5f 92       	push	r5
    2b4a:	6f 92       	push	r6
    2b4c:	7f 92       	push	r7
    2b4e:	af 92       	push	r10
    2b50:	bf 92       	push	r11
    2b52:	cf 92       	push	r12
    2b54:	df 92       	push	r13
    2b56:	ef 92       	push	r14
    2b58:	ff 92       	push	r15
    2b5a:	0f 93       	push	r16
    2b5c:	1f 93       	push	r17
    2b5e:	cf 93       	push	r28
    2b60:	df 93       	push	r29
    2b62:	cd b7       	in	r28, 0x3d	; 61
    2b64:	de b7       	in	r29, 0x3e	; 62
    2b66:	29 01       	movw	r4, r18
    2b68:	3a 01       	movw	r6, r20
    2b6a:	62 1b       	sub	r22, r18
    2b6c:	73 0b       	sbc	r23, r19
    2b6e:	84 0b       	sbc	r24, r20
    2b70:	95 0b       	sbc	r25, r21
    2b72:	29 89       	ldd	r18, Y+17	; 0x11
    2b74:	3a 89       	ldd	r19, Y+18	; 0x12
    2b76:	4b 89       	ldd	r20, Y+19	; 0x13
    2b78:	5c 89       	ldd	r21, Y+20	; 0x14
    2b7a:	2a 19       	sub	r18, r10
    2b7c:	3b 09       	sbc	r19, r11
    2b7e:	4c 09       	sbc	r20, r12
    2b80:	5d 09       	sbc	r21, r13
    2b82:	29 8b       	std	Y+17, r18	; 0x11
    2b84:	3a 8b       	std	Y+18, r19	; 0x12
    2b86:	4b 8b       	std	Y+19, r20	; 0x13
    2b88:	5c 8b       	std	Y+20, r21	; 0x14
    2b8a:	9b 01       	movw	r18, r22
    2b8c:	ac 01       	movw	r20, r24
    2b8e:	69 89       	ldd	r22, Y+17	; 0x11
    2b90:	7a 89       	ldd	r23, Y+18	; 0x12
    2b92:	8b 89       	ldd	r24, Y+19	; 0x13
    2b94:	9c 89       	ldd	r25, Y+20	; 0x14
    2b96:	c6 d4       	rcall	.+2444   	; 0x3524 <__mulsi3>
    2b98:	e4 18       	sub	r14, r4
    2b9a:	f5 08       	sbc	r15, r5
    2b9c:	06 09       	sbc	r16, r6
    2b9e:	17 09       	sbc	r17, r7
    2ba0:	a8 01       	movw	r20, r16
    2ba2:	97 01       	movw	r18, r14
    2ba4:	23 d5       	rcall	.+2630   	; 0x35ec <__divmodsi4>
    2ba6:	2a 0d       	add	r18, r10
    2ba8:	3b 1d       	adc	r19, r11
    2baa:	4c 1d       	adc	r20, r12
    2bac:	5d 1d       	adc	r21, r13
    2bae:	b9 01       	movw	r22, r18
    2bb0:	ca 01       	movw	r24, r20
    2bb2:	df 91       	pop	r29
    2bb4:	cf 91       	pop	r28
    2bb6:	1f 91       	pop	r17
    2bb8:	0f 91       	pop	r16
    2bba:	ff 90       	pop	r15
    2bbc:	ef 90       	pop	r14
    2bbe:	df 90       	pop	r13
    2bc0:	cf 90       	pop	r12
    2bc2:	bf 90       	pop	r11
    2bc4:	af 90       	pop	r10
    2bc6:	7f 90       	pop	r7
    2bc8:	6f 90       	pop	r6
    2bca:	5f 90       	pop	r5
    2bcc:	4f 90       	pop	r4
    2bce:	08 95       	ret

00002bd0 <__vector_16>:
    2bd0:	1f 92       	push	r1
    2bd2:	0f 92       	push	r0
    2bd4:	0f b6       	in	r0, 0x3f	; 63
    2bd6:	0f 92       	push	r0
    2bd8:	11 24       	eor	r1, r1
    2bda:	2f 93       	push	r18
    2bdc:	3f 93       	push	r19
    2bde:	8f 93       	push	r24
    2be0:	9f 93       	push	r25
    2be2:	af 93       	push	r26
    2be4:	bf 93       	push	r27
    2be6:	80 91 45 07 	lds	r24, 0x0745
    2bea:	90 91 46 07 	lds	r25, 0x0746
    2bee:	a0 91 47 07 	lds	r26, 0x0747
    2bf2:	b0 91 48 07 	lds	r27, 0x0748
    2bf6:	30 91 4d 07 	lds	r19, 0x074D
    2bfa:	23 2f       	mov	r18, r19
    2bfc:	2d 5f       	subi	r18, 0xFD	; 253
    2bfe:	2d 37       	cpi	r18, 0x7D	; 125
    2c00:	20 f4       	brcc	.+8      	; 0x2c0a <__vector_16+0x3a>
    2c02:	01 96       	adiw	r24, 0x01	; 1
    2c04:	a1 1d       	adc	r26, r1
    2c06:	b1 1d       	adc	r27, r1
    2c08:	05 c0       	rjmp	.+10     	; 0x2c14 <__vector_16+0x44>
    2c0a:	23 2f       	mov	r18, r19
    2c0c:	2a 57       	subi	r18, 0x7A	; 122
    2c0e:	02 96       	adiw	r24, 0x02	; 2
    2c10:	a1 1d       	adc	r26, r1
    2c12:	b1 1d       	adc	r27, r1
    2c14:	20 93 4d 07 	sts	0x074D, r18
    2c18:	80 93 45 07 	sts	0x0745, r24
    2c1c:	90 93 46 07 	sts	0x0746, r25
    2c20:	a0 93 47 07 	sts	0x0747, r26
    2c24:	b0 93 48 07 	sts	0x0748, r27
    2c28:	80 91 49 07 	lds	r24, 0x0749
    2c2c:	90 91 4a 07 	lds	r25, 0x074A
    2c30:	a0 91 4b 07 	lds	r26, 0x074B
    2c34:	b0 91 4c 07 	lds	r27, 0x074C
    2c38:	01 96       	adiw	r24, 0x01	; 1
    2c3a:	a1 1d       	adc	r26, r1
    2c3c:	b1 1d       	adc	r27, r1
    2c3e:	80 93 49 07 	sts	0x0749, r24
    2c42:	90 93 4a 07 	sts	0x074A, r25
    2c46:	a0 93 4b 07 	sts	0x074B, r26
    2c4a:	b0 93 4c 07 	sts	0x074C, r27
    2c4e:	bf 91       	pop	r27
    2c50:	af 91       	pop	r26
    2c52:	9f 91       	pop	r25
    2c54:	8f 91       	pop	r24
    2c56:	3f 91       	pop	r19
    2c58:	2f 91       	pop	r18
    2c5a:	0f 90       	pop	r0
    2c5c:	0f be       	out	0x3f, r0	; 63
    2c5e:	0f 90       	pop	r0
    2c60:	1f 90       	pop	r1
    2c62:	18 95       	reti

00002c64 <init>:
    2c64:	78 94       	sei
    2c66:	84 b5       	in	r24, 0x24	; 36
    2c68:	82 60       	ori	r24, 0x02	; 2
    2c6a:	84 bd       	out	0x24, r24	; 36
    2c6c:	84 b5       	in	r24, 0x24	; 36
    2c6e:	81 60       	ori	r24, 0x01	; 1
    2c70:	84 bd       	out	0x24, r24	; 36
    2c72:	85 b5       	in	r24, 0x25	; 37
    2c74:	82 60       	ori	r24, 0x02	; 2
    2c76:	85 bd       	out	0x25, r24	; 37
    2c78:	85 b5       	in	r24, 0x25	; 37
    2c7a:	81 60       	ori	r24, 0x01	; 1
    2c7c:	85 bd       	out	0x25, r24	; 37
    2c7e:	ee e6       	ldi	r30, 0x6E	; 110
    2c80:	f0 e0       	ldi	r31, 0x00	; 0
    2c82:	80 81       	ld	r24, Z
    2c84:	81 60       	ori	r24, 0x01	; 1
    2c86:	80 83       	st	Z, r24
    2c88:	e1 e8       	ldi	r30, 0x81	; 129
    2c8a:	f0 e0       	ldi	r31, 0x00	; 0
    2c8c:	10 82       	st	Z, r1
    2c8e:	80 81       	ld	r24, Z
    2c90:	82 60       	ori	r24, 0x02	; 2
    2c92:	80 83       	st	Z, r24
    2c94:	80 81       	ld	r24, Z
    2c96:	81 60       	ori	r24, 0x01	; 1
    2c98:	80 83       	st	Z, r24
    2c9a:	e0 e8       	ldi	r30, 0x80	; 128
    2c9c:	f0 e0       	ldi	r31, 0x00	; 0
    2c9e:	80 81       	ld	r24, Z
    2ca0:	81 60       	ori	r24, 0x01	; 1
    2ca2:	80 83       	st	Z, r24
    2ca4:	e1 eb       	ldi	r30, 0xB1	; 177
    2ca6:	f0 e0       	ldi	r31, 0x00	; 0
    2ca8:	80 81       	ld	r24, Z
    2caa:	84 60       	ori	r24, 0x04	; 4
    2cac:	80 83       	st	Z, r24
    2cae:	e0 eb       	ldi	r30, 0xB0	; 176
    2cb0:	f0 e0       	ldi	r31, 0x00	; 0
    2cb2:	80 81       	ld	r24, Z
    2cb4:	81 60       	ori	r24, 0x01	; 1
    2cb6:	80 83       	st	Z, r24
    2cb8:	ea e7       	ldi	r30, 0x7A	; 122
    2cba:	f0 e0       	ldi	r31, 0x00	; 0
    2cbc:	80 81       	ld	r24, Z
    2cbe:	84 60       	ori	r24, 0x04	; 4
    2cc0:	80 83       	st	Z, r24
    2cc2:	80 81       	ld	r24, Z
    2cc4:	82 60       	ori	r24, 0x02	; 2
    2cc6:	80 83       	st	Z, r24
    2cc8:	80 81       	ld	r24, Z
    2cca:	81 60       	ori	r24, 0x01	; 1
    2ccc:	80 83       	st	Z, r24
    2cce:	80 81       	ld	r24, Z
    2cd0:	80 68       	ori	r24, 0x80	; 128
    2cd2:	80 83       	st	Z, r24
    2cd4:	10 92 c1 00 	sts	0x00C1, r1
    2cd8:	08 95       	ret

00002cda <turnOffPWM>:
    2cda:	83 30       	cpi	r24, 0x03	; 3
    2cdc:	69 f0       	breq	.+26     	; 0x2cf8 <turnOffPWM+0x1e>
    2cde:	28 f4       	brcc	.+10     	; 0x2cea <turnOffPWM+0x10>
    2ce0:	81 30       	cpi	r24, 0x01	; 1
    2ce2:	a1 f0       	breq	.+40     	; 0x2d0c <turnOffPWM+0x32>
    2ce4:	82 30       	cpi	r24, 0x02	; 2
    2ce6:	11 f5       	brne	.+68     	; 0x2d2c <turnOffPWM+0x52>
    2ce8:	14 c0       	rjmp	.+40     	; 0x2d12 <turnOffPWM+0x38>
    2cea:	86 30       	cpi	r24, 0x06	; 6
    2cec:	b1 f0       	breq	.+44     	; 0x2d1a <turnOffPWM+0x40>
    2cee:	87 30       	cpi	r24, 0x07	; 7
    2cf0:	c1 f0       	breq	.+48     	; 0x2d22 <turnOffPWM+0x48>
    2cf2:	84 30       	cpi	r24, 0x04	; 4
    2cf4:	d9 f4       	brne	.+54     	; 0x2d2c <turnOffPWM+0x52>
    2cf6:	04 c0       	rjmp	.+8      	; 0x2d00 <turnOffPWM+0x26>
    2cf8:	80 91 80 00 	lds	r24, 0x0080
    2cfc:	8f 77       	andi	r24, 0x7F	; 127
    2cfe:	03 c0       	rjmp	.+6      	; 0x2d06 <turnOffPWM+0x2c>
    2d00:	80 91 80 00 	lds	r24, 0x0080
    2d04:	8f 7d       	andi	r24, 0xDF	; 223
    2d06:	80 93 80 00 	sts	0x0080, r24
    2d0a:	08 95       	ret
    2d0c:	84 b5       	in	r24, 0x24	; 36
    2d0e:	8f 77       	andi	r24, 0x7F	; 127
    2d10:	02 c0       	rjmp	.+4      	; 0x2d16 <turnOffPWM+0x3c>
    2d12:	84 b5       	in	r24, 0x24	; 36
    2d14:	8f 7d       	andi	r24, 0xDF	; 223
    2d16:	84 bd       	out	0x24, r24	; 36
    2d18:	08 95       	ret
    2d1a:	80 91 b0 00 	lds	r24, 0x00B0
    2d1e:	8f 77       	andi	r24, 0x7F	; 127
    2d20:	03 c0       	rjmp	.+6      	; 0x2d28 <turnOffPWM+0x4e>
    2d22:	80 91 b0 00 	lds	r24, 0x00B0
    2d26:	8f 7d       	andi	r24, 0xDF	; 223
    2d28:	80 93 b0 00 	sts	0x00B0, r24
    2d2c:	08 95       	ret

00002d2e <pinMode>:
    2d2e:	cf 93       	push	r28
    2d30:	df 93       	push	r29
    2d32:	90 e0       	ldi	r25, 0x00	; 0
    2d34:	fc 01       	movw	r30, r24
    2d36:	e2 50       	subi	r30, 0x02	; 2
    2d38:	ff 4f       	sbci	r31, 0xFF	; 255
    2d3a:	44 91       	lpm	r20, Z
    2d3c:	fc 01       	movw	r30, r24
    2d3e:	ee 5e       	subi	r30, 0xEE	; 238
    2d40:	fe 4f       	sbci	r31, 0xFE	; 254
    2d42:	84 91       	lpm	r24, Z
    2d44:	88 23       	and	r24, r24
    2d46:	41 f1       	breq	.+80     	; 0x2d98 <pinMode+0x6a>
    2d48:	90 e0       	ldi	r25, 0x00	; 0
    2d4a:	88 0f       	add	r24, r24
    2d4c:	99 1f       	adc	r25, r25
    2d4e:	fc 01       	movw	r30, r24
    2d50:	e0 5d       	subi	r30, 0xD0	; 208
    2d52:	fe 4f       	sbci	r31, 0xFE	; 254
    2d54:	25 91       	lpm	r18, Z+
    2d56:	34 91       	lpm	r19, Z
    2d58:	d9 01       	movw	r26, r18
    2d5a:	8a 5d       	subi	r24, 0xDA	; 218
    2d5c:	9e 4f       	sbci	r25, 0xFE	; 254
    2d5e:	fc 01       	movw	r30, r24
    2d60:	85 91       	lpm	r24, Z+
    2d62:	94 91       	lpm	r25, Z
    2d64:	c8 2f       	mov	r28, r24
    2d66:	d9 2f       	mov	r29, r25
    2d68:	9f b7       	in	r25, 0x3f	; 63
    2d6a:	f8 94       	cli
    2d6c:	8c 91       	ld	r24, X
    2d6e:	61 11       	cpse	r22, r1
    2d70:	06 c0       	rjmp	.+12     	; 0x2d7e <pinMode+0x50>
    2d72:	40 95       	com	r20
    2d74:	84 23       	and	r24, r20
    2d76:	8c 93       	st	X, r24
    2d78:	88 81       	ld	r24, Y
    2d7a:	84 23       	and	r24, r20
    2d7c:	08 c0       	rjmp	.+16     	; 0x2d8e <pinMode+0x60>
    2d7e:	62 30       	cpi	r22, 0x02	; 2
    2d80:	41 f4       	brne	.+16     	; 0x2d92 <pinMode+0x64>
    2d82:	24 2f       	mov	r18, r20
    2d84:	20 95       	com	r18
    2d86:	82 23       	and	r24, r18
    2d88:	8c 93       	st	X, r24
    2d8a:	88 81       	ld	r24, Y
    2d8c:	84 2b       	or	r24, r20
    2d8e:	88 83       	st	Y, r24
    2d90:	02 c0       	rjmp	.+4      	; 0x2d96 <pinMode+0x68>
    2d92:	84 2b       	or	r24, r20
    2d94:	8c 93       	st	X, r24
    2d96:	9f bf       	out	0x3f, r25	; 63
    2d98:	df 91       	pop	r29
    2d9a:	cf 91       	pop	r28
    2d9c:	08 95       	ret

00002d9e <digitalWrite>:
    2d9e:	0f 93       	push	r16
    2da0:	1f 93       	push	r17
    2da2:	cf 93       	push	r28
    2da4:	df 93       	push	r29
    2da6:	1f 92       	push	r1
    2da8:	cd b7       	in	r28, 0x3d	; 61
    2daa:	de b7       	in	r29, 0x3e	; 62
    2dac:	28 2f       	mov	r18, r24
    2dae:	30 e0       	ldi	r19, 0x00	; 0
    2db0:	f9 01       	movw	r30, r18
    2db2:	e6 51       	subi	r30, 0x16	; 22
    2db4:	ff 4f       	sbci	r31, 0xFF	; 255
    2db6:	84 91       	lpm	r24, Z
    2db8:	f9 01       	movw	r30, r18
    2dba:	e2 50       	subi	r30, 0x02	; 2
    2dbc:	ff 4f       	sbci	r31, 0xFF	; 255
    2dbe:	14 91       	lpm	r17, Z
    2dc0:	f9 01       	movw	r30, r18
    2dc2:	ee 5e       	subi	r30, 0xEE	; 238
    2dc4:	fe 4f       	sbci	r31, 0xFE	; 254
    2dc6:	04 91       	lpm	r16, Z
    2dc8:	00 23       	and	r16, r16
    2dca:	c9 f0       	breq	.+50     	; 0x2dfe <digitalWrite+0x60>
    2dcc:	88 23       	and	r24, r24
    2dce:	19 f0       	breq	.+6      	; 0x2dd6 <digitalWrite+0x38>
    2dd0:	69 83       	std	Y+1, r22	; 0x01
    2dd2:	83 df       	rcall	.-250    	; 0x2cda <turnOffPWM>
    2dd4:	69 81       	ldd	r22, Y+1	; 0x01
    2dd6:	e0 2f       	mov	r30, r16
    2dd8:	f0 e0       	ldi	r31, 0x00	; 0
    2dda:	ee 0f       	add	r30, r30
    2ddc:	ff 1f       	adc	r31, r31
    2dde:	ea 5d       	subi	r30, 0xDA	; 218
    2de0:	fe 4f       	sbci	r31, 0xFE	; 254
    2de2:	85 91       	lpm	r24, Z+
    2de4:	94 91       	lpm	r25, Z
    2de6:	dc 01       	movw	r26, r24
    2de8:	9f b7       	in	r25, 0x3f	; 63
    2dea:	f8 94       	cli
    2dec:	8c 91       	ld	r24, X
    2dee:	61 11       	cpse	r22, r1
    2df0:	03 c0       	rjmp	.+6      	; 0x2df8 <digitalWrite+0x5a>
    2df2:	10 95       	com	r17
    2df4:	81 23       	and	r24, r17
    2df6:	01 c0       	rjmp	.+2      	; 0x2dfa <digitalWrite+0x5c>
    2df8:	81 2b       	or	r24, r17
    2dfa:	8c 93       	st	X, r24
    2dfc:	9f bf       	out	0x3f, r25	; 63
    2dfe:	0f 90       	pop	r0
    2e00:	df 91       	pop	r29
    2e02:	cf 91       	pop	r28
    2e04:	1f 91       	pop	r17
    2e06:	0f 91       	pop	r16
    2e08:	08 95       	ret

00002e0a <do_random>:
    2e0a:	8f 92       	push	r8
    2e0c:	9f 92       	push	r9
    2e0e:	af 92       	push	r10
    2e10:	bf 92       	push	r11
    2e12:	cf 92       	push	r12
    2e14:	df 92       	push	r13
    2e16:	ef 92       	push	r14
    2e18:	ff 92       	push	r15
    2e1a:	cf 93       	push	r28
    2e1c:	df 93       	push	r29
    2e1e:	ec 01       	movw	r28, r24
    2e20:	68 81       	ld	r22, Y
    2e22:	79 81       	ldd	r23, Y+1	; 0x01
    2e24:	8a 81       	ldd	r24, Y+2	; 0x02
    2e26:	9b 81       	ldd	r25, Y+3	; 0x03
    2e28:	61 15       	cp	r22, r1
    2e2a:	71 05       	cpc	r23, r1
    2e2c:	81 05       	cpc	r24, r1
    2e2e:	91 05       	cpc	r25, r1
    2e30:	21 f4       	brne	.+8      	; 0x2e3a <do_random+0x30>
    2e32:	64 e2       	ldi	r22, 0x24	; 36
    2e34:	79 ed       	ldi	r23, 0xD9	; 217
    2e36:	8b e5       	ldi	r24, 0x5B	; 91
    2e38:	97 e0       	ldi	r25, 0x07	; 7
    2e3a:	2d e1       	ldi	r18, 0x1D	; 29
    2e3c:	33 ef       	ldi	r19, 0xF3	; 243
    2e3e:	41 e0       	ldi	r20, 0x01	; 1
    2e40:	50 e0       	ldi	r21, 0x00	; 0
    2e42:	d4 d3       	rcall	.+1960   	; 0x35ec <__divmodsi4>
    2e44:	49 01       	movw	r8, r18
    2e46:	5a 01       	movw	r10, r20
    2e48:	9b 01       	movw	r18, r22
    2e4a:	ac 01       	movw	r20, r24
    2e4c:	a7 ea       	ldi	r26, 0xA7	; 167
    2e4e:	b1 e4       	ldi	r27, 0x41	; 65
    2e50:	e8 d3       	rcall	.+2000   	; 0x3622 <__muluhisi3>
    2e52:	6b 01       	movw	r12, r22
    2e54:	7c 01       	movw	r14, r24
    2e56:	ac ee       	ldi	r26, 0xEC	; 236
    2e58:	b4 ef       	ldi	r27, 0xF4	; 244
    2e5a:	a5 01       	movw	r20, r10
    2e5c:	94 01       	movw	r18, r8
    2e5e:	ed d3       	rcall	.+2010   	; 0x363a <__mulohisi3>
    2e60:	c6 0e       	add	r12, r22
    2e62:	d7 1e       	adc	r13, r23
    2e64:	e8 1e       	adc	r14, r24
    2e66:	f9 1e       	adc	r15, r25
    2e68:	f7 fe       	sbrs	r15, 7
    2e6a:	06 c0       	rjmp	.+12     	; 0x2e78 <do_random+0x6e>
    2e6c:	81 e0       	ldi	r24, 0x01	; 1
    2e6e:	c8 1a       	sub	r12, r24
    2e70:	d1 08       	sbc	r13, r1
    2e72:	e1 08       	sbc	r14, r1
    2e74:	80 e8       	ldi	r24, 0x80	; 128
    2e76:	f8 0a       	sbc	r15, r24
    2e78:	c8 82       	st	Y, r12
    2e7a:	d9 82       	std	Y+1, r13	; 0x01
    2e7c:	ea 82       	std	Y+2, r14	; 0x02
    2e7e:	fb 82       	std	Y+3, r15	; 0x03
    2e80:	e8 94       	clt
    2e82:	f7 f8       	bld	r15, 7
    2e84:	b6 01       	movw	r22, r12
    2e86:	c7 01       	movw	r24, r14
    2e88:	df 91       	pop	r29
    2e8a:	cf 91       	pop	r28
    2e8c:	ff 90       	pop	r15
    2e8e:	ef 90       	pop	r14
    2e90:	df 90       	pop	r13
    2e92:	cf 90       	pop	r12
    2e94:	bf 90       	pop	r11
    2e96:	af 90       	pop	r10
    2e98:	9f 90       	pop	r9
    2e9a:	8f 90       	pop	r8
    2e9c:	08 95       	ret

00002e9e <random_r>:
    2e9e:	b5 cf       	rjmp	.-150    	; 0x2e0a <do_random>

00002ea0 <random>:
    2ea0:	80 e0       	ldi	r24, 0x00	; 0
    2ea2:	91 e0       	ldi	r25, 0x01	; 1
    2ea4:	b2 cf       	rjmp	.-156    	; 0x2e0a <do_random>

00002ea6 <srandom>:
    2ea6:	60 93 00 01 	sts	0x0100, r22
    2eaa:	70 93 01 01 	sts	0x0101, r23
    2eae:	80 93 02 01 	sts	0x0102, r24
    2eb2:	90 93 03 01 	sts	0x0103, r25
    2eb6:	08 95       	ret

00002eb8 <exit>:
    2eb8:	f8 94       	cli
    2eba:	d5 c3       	rjmp	.+1962   	; 0x3666 <__do_global_dtors>

00002ebc <__subsf3>:
    2ebc:	50 58       	subi	r21, 0x80	; 128

00002ebe <__addsf3>:
    2ebe:	bb 27       	eor	r27, r27
    2ec0:	aa 27       	eor	r26, r26
    2ec2:	0e d0       	rcall	.+28     	; 0x2ee0 <__addsf3x>
    2ec4:	cb c1       	rjmp	.+918    	; 0x325c <__fp_round>
    2ec6:	bc d1       	rcall	.+888    	; 0x3240 <__fp_pscA>
    2ec8:	30 f0       	brcs	.+12     	; 0x2ed6 <__addsf3+0x18>
    2eca:	c1 d1       	rcall	.+898    	; 0x324e <__fp_pscB>
    2ecc:	20 f0       	brcs	.+8      	; 0x2ed6 <__addsf3+0x18>
    2ece:	31 f4       	brne	.+12     	; 0x2edc <__addsf3+0x1e>
    2ed0:	9f 3f       	cpi	r25, 0xFF	; 255
    2ed2:	11 f4       	brne	.+4      	; 0x2ed8 <__addsf3+0x1a>
    2ed4:	1e f4       	brtc	.+6      	; 0x2edc <__addsf3+0x1e>
    2ed6:	8c c1       	rjmp	.+792    	; 0x31f0 <__fp_nan>
    2ed8:	0e f4       	brtc	.+2      	; 0x2edc <__addsf3+0x1e>
    2eda:	e0 95       	com	r30
    2edc:	e7 fb       	bst	r30, 7
    2ede:	82 c1       	rjmp	.+772    	; 0x31e4 <__fp_inf>

00002ee0 <__addsf3x>:
    2ee0:	e9 2f       	mov	r30, r25
    2ee2:	cd d1       	rcall	.+922    	; 0x327e <__fp_split3>
    2ee4:	80 f3       	brcs	.-32     	; 0x2ec6 <__addsf3+0x8>
    2ee6:	ba 17       	cp	r27, r26
    2ee8:	62 07       	cpc	r22, r18
    2eea:	73 07       	cpc	r23, r19
    2eec:	84 07       	cpc	r24, r20
    2eee:	95 07       	cpc	r25, r21
    2ef0:	18 f0       	brcs	.+6      	; 0x2ef8 <__addsf3x+0x18>
    2ef2:	71 f4       	brne	.+28     	; 0x2f10 <__addsf3x+0x30>
    2ef4:	9e f5       	brtc	.+102    	; 0x2f5c <__addsf3x+0x7c>
    2ef6:	e5 c1       	rjmp	.+970    	; 0x32c2 <__fp_zero>
    2ef8:	0e f4       	brtc	.+2      	; 0x2efc <__addsf3x+0x1c>
    2efa:	e0 95       	com	r30
    2efc:	0b 2e       	mov	r0, r27
    2efe:	ba 2f       	mov	r27, r26
    2f00:	a0 2d       	mov	r26, r0
    2f02:	0b 01       	movw	r0, r22
    2f04:	b9 01       	movw	r22, r18
    2f06:	90 01       	movw	r18, r0
    2f08:	0c 01       	movw	r0, r24
    2f0a:	ca 01       	movw	r24, r20
    2f0c:	a0 01       	movw	r20, r0
    2f0e:	11 24       	eor	r1, r1
    2f10:	ff 27       	eor	r31, r31
    2f12:	59 1b       	sub	r21, r25
    2f14:	99 f0       	breq	.+38     	; 0x2f3c <__addsf3x+0x5c>
    2f16:	59 3f       	cpi	r21, 0xF9	; 249
    2f18:	50 f4       	brcc	.+20     	; 0x2f2e <__addsf3x+0x4e>
    2f1a:	50 3e       	cpi	r21, 0xE0	; 224
    2f1c:	68 f1       	brcs	.+90     	; 0x2f78 <__addsf3x+0x98>
    2f1e:	1a 16       	cp	r1, r26
    2f20:	f0 40       	sbci	r31, 0x00	; 0
    2f22:	a2 2f       	mov	r26, r18
    2f24:	23 2f       	mov	r18, r19
    2f26:	34 2f       	mov	r19, r20
    2f28:	44 27       	eor	r20, r20
    2f2a:	58 5f       	subi	r21, 0xF8	; 248
    2f2c:	f3 cf       	rjmp	.-26     	; 0x2f14 <__addsf3x+0x34>
    2f2e:	46 95       	lsr	r20
    2f30:	37 95       	ror	r19
    2f32:	27 95       	ror	r18
    2f34:	a7 95       	ror	r26
    2f36:	f0 40       	sbci	r31, 0x00	; 0
    2f38:	53 95       	inc	r21
    2f3a:	c9 f7       	brne	.-14     	; 0x2f2e <__addsf3x+0x4e>
    2f3c:	7e f4       	brtc	.+30     	; 0x2f5c <__addsf3x+0x7c>
    2f3e:	1f 16       	cp	r1, r31
    2f40:	ba 0b       	sbc	r27, r26
    2f42:	62 0b       	sbc	r22, r18
    2f44:	73 0b       	sbc	r23, r19
    2f46:	84 0b       	sbc	r24, r20
    2f48:	ba f0       	brmi	.+46     	; 0x2f78 <__addsf3x+0x98>
    2f4a:	91 50       	subi	r25, 0x01	; 1
    2f4c:	a1 f0       	breq	.+40     	; 0x2f76 <__addsf3x+0x96>
    2f4e:	ff 0f       	add	r31, r31
    2f50:	bb 1f       	adc	r27, r27
    2f52:	66 1f       	adc	r22, r22
    2f54:	77 1f       	adc	r23, r23
    2f56:	88 1f       	adc	r24, r24
    2f58:	c2 f7       	brpl	.-16     	; 0x2f4a <__addsf3x+0x6a>
    2f5a:	0e c0       	rjmp	.+28     	; 0x2f78 <__addsf3x+0x98>
    2f5c:	ba 0f       	add	r27, r26
    2f5e:	62 1f       	adc	r22, r18
    2f60:	73 1f       	adc	r23, r19
    2f62:	84 1f       	adc	r24, r20
    2f64:	48 f4       	brcc	.+18     	; 0x2f78 <__addsf3x+0x98>
    2f66:	87 95       	ror	r24
    2f68:	77 95       	ror	r23
    2f6a:	67 95       	ror	r22
    2f6c:	b7 95       	ror	r27
    2f6e:	f7 95       	ror	r31
    2f70:	9e 3f       	cpi	r25, 0xFE	; 254
    2f72:	08 f0       	brcs	.+2      	; 0x2f76 <__addsf3x+0x96>
    2f74:	b3 cf       	rjmp	.-154    	; 0x2edc <__addsf3+0x1e>
    2f76:	93 95       	inc	r25
    2f78:	88 0f       	add	r24, r24
    2f7a:	08 f0       	brcs	.+2      	; 0x2f7e <__addsf3x+0x9e>
    2f7c:	99 27       	eor	r25, r25
    2f7e:	ee 0f       	add	r30, r30
    2f80:	97 95       	ror	r25
    2f82:	87 95       	ror	r24
    2f84:	08 95       	ret

00002f86 <__cmpsf2>:
    2f86:	0a d1       	rcall	.+532    	; 0x319c <__fp_cmp>
    2f88:	08 f4       	brcc	.+2      	; 0x2f8c <__cmpsf2+0x6>
    2f8a:	81 e0       	ldi	r24, 0x01	; 1
    2f8c:	08 95       	ret

00002f8e <__divsf3>:
    2f8e:	0c d0       	rcall	.+24     	; 0x2fa8 <__divsf3x>
    2f90:	65 c1       	rjmp	.+714    	; 0x325c <__fp_round>
    2f92:	5d d1       	rcall	.+698    	; 0x324e <__fp_pscB>
    2f94:	40 f0       	brcs	.+16     	; 0x2fa6 <__divsf3+0x18>
    2f96:	54 d1       	rcall	.+680    	; 0x3240 <__fp_pscA>
    2f98:	30 f0       	brcs	.+12     	; 0x2fa6 <__divsf3+0x18>
    2f9a:	21 f4       	brne	.+8      	; 0x2fa4 <__divsf3+0x16>
    2f9c:	5f 3f       	cpi	r21, 0xFF	; 255
    2f9e:	19 f0       	breq	.+6      	; 0x2fa6 <__divsf3+0x18>
    2fa0:	21 c1       	rjmp	.+578    	; 0x31e4 <__fp_inf>
    2fa2:	51 11       	cpse	r21, r1
    2fa4:	8f c1       	rjmp	.+798    	; 0x32c4 <__fp_szero>
    2fa6:	24 c1       	rjmp	.+584    	; 0x31f0 <__fp_nan>

00002fa8 <__divsf3x>:
    2fa8:	6a d1       	rcall	.+724    	; 0x327e <__fp_split3>
    2faa:	98 f3       	brcs	.-26     	; 0x2f92 <__divsf3+0x4>

00002fac <__divsf3_pse>:
    2fac:	99 23       	and	r25, r25
    2fae:	c9 f3       	breq	.-14     	; 0x2fa2 <__divsf3+0x14>
    2fb0:	55 23       	and	r21, r21
    2fb2:	b1 f3       	breq	.-20     	; 0x2fa0 <__divsf3+0x12>
    2fb4:	95 1b       	sub	r25, r21
    2fb6:	55 0b       	sbc	r21, r21
    2fb8:	bb 27       	eor	r27, r27
    2fba:	aa 27       	eor	r26, r26
    2fbc:	62 17       	cp	r22, r18
    2fbe:	73 07       	cpc	r23, r19
    2fc0:	84 07       	cpc	r24, r20
    2fc2:	38 f0       	brcs	.+14     	; 0x2fd2 <__divsf3_pse+0x26>
    2fc4:	9f 5f       	subi	r25, 0xFF	; 255
    2fc6:	5f 4f       	sbci	r21, 0xFF	; 255
    2fc8:	22 0f       	add	r18, r18
    2fca:	33 1f       	adc	r19, r19
    2fcc:	44 1f       	adc	r20, r20
    2fce:	aa 1f       	adc	r26, r26
    2fd0:	a9 f3       	breq	.-22     	; 0x2fbc <__divsf3_pse+0x10>
    2fd2:	33 d0       	rcall	.+102    	; 0x303a <__divsf3_pse+0x8e>
    2fd4:	0e 2e       	mov	r0, r30
    2fd6:	3a f0       	brmi	.+14     	; 0x2fe6 <__divsf3_pse+0x3a>
    2fd8:	e0 e8       	ldi	r30, 0x80	; 128
    2fda:	30 d0       	rcall	.+96     	; 0x303c <__divsf3_pse+0x90>
    2fdc:	91 50       	subi	r25, 0x01	; 1
    2fde:	50 40       	sbci	r21, 0x00	; 0
    2fe0:	e6 95       	lsr	r30
    2fe2:	00 1c       	adc	r0, r0
    2fe4:	ca f7       	brpl	.-14     	; 0x2fd8 <__divsf3_pse+0x2c>
    2fe6:	29 d0       	rcall	.+82     	; 0x303a <__divsf3_pse+0x8e>
    2fe8:	fe 2f       	mov	r31, r30
    2fea:	27 d0       	rcall	.+78     	; 0x303a <__divsf3_pse+0x8e>
    2fec:	66 0f       	add	r22, r22
    2fee:	77 1f       	adc	r23, r23
    2ff0:	88 1f       	adc	r24, r24
    2ff2:	bb 1f       	adc	r27, r27
    2ff4:	26 17       	cp	r18, r22
    2ff6:	37 07       	cpc	r19, r23
    2ff8:	48 07       	cpc	r20, r24
    2ffa:	ab 07       	cpc	r26, r27
    2ffc:	b0 e8       	ldi	r27, 0x80	; 128
    2ffe:	09 f0       	breq	.+2      	; 0x3002 <__divsf3_pse+0x56>
    3000:	bb 0b       	sbc	r27, r27
    3002:	80 2d       	mov	r24, r0
    3004:	bf 01       	movw	r22, r30
    3006:	ff 27       	eor	r31, r31
    3008:	93 58       	subi	r25, 0x83	; 131
    300a:	5f 4f       	sbci	r21, 0xFF	; 255
    300c:	2a f0       	brmi	.+10     	; 0x3018 <__divsf3_pse+0x6c>
    300e:	9e 3f       	cpi	r25, 0xFE	; 254
    3010:	51 05       	cpc	r21, r1
    3012:	68 f0       	brcs	.+26     	; 0x302e <__divsf3_pse+0x82>
    3014:	e7 c0       	rjmp	.+462    	; 0x31e4 <__fp_inf>
    3016:	56 c1       	rjmp	.+684    	; 0x32c4 <__fp_szero>
    3018:	5f 3f       	cpi	r21, 0xFF	; 255
    301a:	ec f3       	brlt	.-6      	; 0x3016 <__divsf3_pse+0x6a>
    301c:	98 3e       	cpi	r25, 0xE8	; 232
    301e:	dc f3       	brlt	.-10     	; 0x3016 <__divsf3_pse+0x6a>
    3020:	86 95       	lsr	r24
    3022:	77 95       	ror	r23
    3024:	67 95       	ror	r22
    3026:	b7 95       	ror	r27
    3028:	f7 95       	ror	r31
    302a:	9f 5f       	subi	r25, 0xFF	; 255
    302c:	c9 f7       	brne	.-14     	; 0x3020 <__divsf3_pse+0x74>
    302e:	88 0f       	add	r24, r24
    3030:	91 1d       	adc	r25, r1
    3032:	96 95       	lsr	r25
    3034:	87 95       	ror	r24
    3036:	97 f9       	bld	r25, 7
    3038:	08 95       	ret
    303a:	e1 e0       	ldi	r30, 0x01	; 1
    303c:	66 0f       	add	r22, r22
    303e:	77 1f       	adc	r23, r23
    3040:	88 1f       	adc	r24, r24
    3042:	bb 1f       	adc	r27, r27
    3044:	62 17       	cp	r22, r18
    3046:	73 07       	cpc	r23, r19
    3048:	84 07       	cpc	r24, r20
    304a:	ba 07       	cpc	r27, r26
    304c:	20 f0       	brcs	.+8      	; 0x3056 <__divsf3_pse+0xaa>
    304e:	62 1b       	sub	r22, r18
    3050:	73 0b       	sbc	r23, r19
    3052:	84 0b       	sbc	r24, r20
    3054:	ba 0b       	sbc	r27, r26
    3056:	ee 1f       	adc	r30, r30
    3058:	88 f7       	brcc	.-30     	; 0x303c <__divsf3_pse+0x90>
    305a:	e0 95       	com	r30
    305c:	08 95       	ret
    305e:	19 f4       	brne	.+6      	; 0x3066 <__divsf3_pse+0xba>
    3060:	0e f0       	brts	.+2      	; 0x3064 <__divsf3_pse+0xb8>
    3062:	c0 c0       	rjmp	.+384    	; 0x31e4 <__fp_inf>
    3064:	2e c1       	rjmp	.+604    	; 0x32c2 <__fp_zero>
    3066:	c4 c0       	rjmp	.+392    	; 0x31f0 <__fp_nan>

00003068 <exp>:
    3068:	12 d1       	rcall	.+548    	; 0x328e <__fp_splitA>
    306a:	c8 f3       	brcs	.-14     	; 0x305e <__divsf3_pse+0xb2>
    306c:	96 38       	cpi	r25, 0x86	; 134
    306e:	c0 f7       	brcc	.-16     	; 0x3060 <__divsf3_pse+0xb4>
    3070:	07 f8       	bld	r0, 7
    3072:	0f 92       	push	r0
    3074:	e8 94       	clt
    3076:	2b e3       	ldi	r18, 0x3B	; 59
    3078:	3a ea       	ldi	r19, 0xAA	; 170
    307a:	48 eb       	ldi	r20, 0xB8	; 184
    307c:	5f e7       	ldi	r21, 0x7F	; 127
    307e:	ef d1       	rcall	.+990    	; 0x345e <__mulsf3_pse>
    3080:	0f 92       	push	r0
    3082:	0f 92       	push	r0
    3084:	0f 92       	push	r0
    3086:	4d b7       	in	r20, 0x3d	; 61
    3088:	5e b7       	in	r21, 0x3e	; 62
    308a:	0f 92       	push	r0
    308c:	a7 d1       	rcall	.+846    	; 0x33dc <modf>
    308e:	e8 e6       	ldi	r30, 0x68	; 104
    3090:	f0 e0       	ldi	r31, 0x00	; 0
    3092:	b1 d0       	rcall	.+354    	; 0x31f6 <__fp_powser>
    3094:	4f 91       	pop	r20
    3096:	5f 91       	pop	r21
    3098:	ef 91       	pop	r30
    309a:	ff 91       	pop	r31
    309c:	e5 95       	asr	r30
    309e:	ee 1f       	adc	r30, r30
    30a0:	ff 1f       	adc	r31, r31
    30a2:	49 f0       	breq	.+18     	; 0x30b6 <exp+0x4e>
    30a4:	fe 57       	subi	r31, 0x7E	; 126
    30a6:	e0 68       	ori	r30, 0x80	; 128
    30a8:	44 27       	eor	r20, r20
    30aa:	ee 0f       	add	r30, r30
    30ac:	44 1f       	adc	r20, r20
    30ae:	fa 95       	dec	r31
    30b0:	e1 f7       	brne	.-8      	; 0x30aa <exp+0x42>
    30b2:	41 95       	neg	r20
    30b4:	55 0b       	sbc	r21, r21
    30b6:	19 d1       	rcall	.+562    	; 0x32ea <ldexp>
    30b8:	0f 90       	pop	r0
    30ba:	07 fe       	sbrs	r0, 7
    30bc:	0d c1       	rjmp	.+538    	; 0x32d8 <inverse>
    30be:	08 95       	ret

000030c0 <__fixsfsi>:
    30c0:	04 d0       	rcall	.+8      	; 0x30ca <__fixunssfsi>
    30c2:	68 94       	set
    30c4:	b1 11       	cpse	r27, r1
    30c6:	fe c0       	rjmp	.+508    	; 0x32c4 <__fp_szero>
    30c8:	08 95       	ret

000030ca <__fixunssfsi>:
    30ca:	e1 d0       	rcall	.+450    	; 0x328e <__fp_splitA>
    30cc:	88 f0       	brcs	.+34     	; 0x30f0 <__fixunssfsi+0x26>
    30ce:	9f 57       	subi	r25, 0x7F	; 127
    30d0:	90 f0       	brcs	.+36     	; 0x30f6 <__fixunssfsi+0x2c>
    30d2:	b9 2f       	mov	r27, r25
    30d4:	99 27       	eor	r25, r25
    30d6:	b7 51       	subi	r27, 0x17	; 23
    30d8:	a0 f0       	brcs	.+40     	; 0x3102 <__fixunssfsi+0x38>
    30da:	d1 f0       	breq	.+52     	; 0x3110 <__fixunssfsi+0x46>
    30dc:	66 0f       	add	r22, r22
    30de:	77 1f       	adc	r23, r23
    30e0:	88 1f       	adc	r24, r24
    30e2:	99 1f       	adc	r25, r25
    30e4:	1a f0       	brmi	.+6      	; 0x30ec <__fixunssfsi+0x22>
    30e6:	ba 95       	dec	r27
    30e8:	c9 f7       	brne	.-14     	; 0x30dc <__fixunssfsi+0x12>
    30ea:	12 c0       	rjmp	.+36     	; 0x3110 <__fixunssfsi+0x46>
    30ec:	b1 30       	cpi	r27, 0x01	; 1
    30ee:	81 f0       	breq	.+32     	; 0x3110 <__fixunssfsi+0x46>
    30f0:	e8 d0       	rcall	.+464    	; 0x32c2 <__fp_zero>
    30f2:	b1 e0       	ldi	r27, 0x01	; 1
    30f4:	08 95       	ret
    30f6:	e5 c0       	rjmp	.+458    	; 0x32c2 <__fp_zero>
    30f8:	67 2f       	mov	r22, r23
    30fa:	78 2f       	mov	r23, r24
    30fc:	88 27       	eor	r24, r24
    30fe:	b8 5f       	subi	r27, 0xF8	; 248
    3100:	39 f0       	breq	.+14     	; 0x3110 <__fixunssfsi+0x46>
    3102:	b9 3f       	cpi	r27, 0xF9	; 249
    3104:	cc f3       	brlt	.-14     	; 0x30f8 <__fixunssfsi+0x2e>
    3106:	86 95       	lsr	r24
    3108:	77 95       	ror	r23
    310a:	67 95       	ror	r22
    310c:	b3 95       	inc	r27
    310e:	d9 f7       	brne	.-10     	; 0x3106 <__fixunssfsi+0x3c>
    3110:	3e f4       	brtc	.+14     	; 0x3120 <__fixunssfsi+0x56>
    3112:	90 95       	com	r25
    3114:	80 95       	com	r24
    3116:	70 95       	com	r23
    3118:	61 95       	neg	r22
    311a:	7f 4f       	sbci	r23, 0xFF	; 255
    311c:	8f 4f       	sbci	r24, 0xFF	; 255
    311e:	9f 4f       	sbci	r25, 0xFF	; 255
    3120:	08 95       	ret

00003122 <__floatunsisf>:
    3122:	e8 94       	clt
    3124:	09 c0       	rjmp	.+18     	; 0x3138 <__floatsisf+0x12>

00003126 <__floatsisf>:
    3126:	97 fb       	bst	r25, 7
    3128:	3e f4       	brtc	.+14     	; 0x3138 <__floatsisf+0x12>
    312a:	90 95       	com	r25
    312c:	80 95       	com	r24
    312e:	70 95       	com	r23
    3130:	61 95       	neg	r22
    3132:	7f 4f       	sbci	r23, 0xFF	; 255
    3134:	8f 4f       	sbci	r24, 0xFF	; 255
    3136:	9f 4f       	sbci	r25, 0xFF	; 255
    3138:	99 23       	and	r25, r25
    313a:	a9 f0       	breq	.+42     	; 0x3166 <__floatsisf+0x40>
    313c:	f9 2f       	mov	r31, r25
    313e:	96 e9       	ldi	r25, 0x96	; 150
    3140:	bb 27       	eor	r27, r27
    3142:	93 95       	inc	r25
    3144:	f6 95       	lsr	r31
    3146:	87 95       	ror	r24
    3148:	77 95       	ror	r23
    314a:	67 95       	ror	r22
    314c:	b7 95       	ror	r27
    314e:	f1 11       	cpse	r31, r1
    3150:	f8 cf       	rjmp	.-16     	; 0x3142 <__floatsisf+0x1c>
    3152:	fa f4       	brpl	.+62     	; 0x3192 <__floatsisf+0x6c>
    3154:	bb 0f       	add	r27, r27
    3156:	11 f4       	brne	.+4      	; 0x315c <__floatsisf+0x36>
    3158:	60 ff       	sbrs	r22, 0
    315a:	1b c0       	rjmp	.+54     	; 0x3192 <__floatsisf+0x6c>
    315c:	6f 5f       	subi	r22, 0xFF	; 255
    315e:	7f 4f       	sbci	r23, 0xFF	; 255
    3160:	8f 4f       	sbci	r24, 0xFF	; 255
    3162:	9f 4f       	sbci	r25, 0xFF	; 255
    3164:	16 c0       	rjmp	.+44     	; 0x3192 <__floatsisf+0x6c>
    3166:	88 23       	and	r24, r24
    3168:	11 f0       	breq	.+4      	; 0x316e <__floatsisf+0x48>
    316a:	96 e9       	ldi	r25, 0x96	; 150
    316c:	11 c0       	rjmp	.+34     	; 0x3190 <__floatsisf+0x6a>
    316e:	77 23       	and	r23, r23
    3170:	21 f0       	breq	.+8      	; 0x317a <__floatsisf+0x54>
    3172:	9e e8       	ldi	r25, 0x8E	; 142
    3174:	87 2f       	mov	r24, r23
    3176:	76 2f       	mov	r23, r22
    3178:	05 c0       	rjmp	.+10     	; 0x3184 <__floatsisf+0x5e>
    317a:	66 23       	and	r22, r22
    317c:	71 f0       	breq	.+28     	; 0x319a <__floatsisf+0x74>
    317e:	96 e8       	ldi	r25, 0x86	; 134
    3180:	86 2f       	mov	r24, r22
    3182:	70 e0       	ldi	r23, 0x00	; 0
    3184:	60 e0       	ldi	r22, 0x00	; 0
    3186:	2a f0       	brmi	.+10     	; 0x3192 <__floatsisf+0x6c>
    3188:	9a 95       	dec	r25
    318a:	66 0f       	add	r22, r22
    318c:	77 1f       	adc	r23, r23
    318e:	88 1f       	adc	r24, r24
    3190:	da f7       	brpl	.-10     	; 0x3188 <__floatsisf+0x62>
    3192:	88 0f       	add	r24, r24
    3194:	96 95       	lsr	r25
    3196:	87 95       	ror	r24
    3198:	97 f9       	bld	r25, 7
    319a:	08 95       	ret

0000319c <__fp_cmp>:
    319c:	99 0f       	add	r25, r25
    319e:	00 08       	sbc	r0, r0
    31a0:	55 0f       	add	r21, r21
    31a2:	aa 0b       	sbc	r26, r26
    31a4:	e0 e8       	ldi	r30, 0x80	; 128
    31a6:	fe ef       	ldi	r31, 0xFE	; 254
    31a8:	16 16       	cp	r1, r22
    31aa:	17 06       	cpc	r1, r23
    31ac:	e8 07       	cpc	r30, r24
    31ae:	f9 07       	cpc	r31, r25
    31b0:	c0 f0       	brcs	.+48     	; 0x31e2 <__fp_cmp+0x46>
    31b2:	12 16       	cp	r1, r18
    31b4:	13 06       	cpc	r1, r19
    31b6:	e4 07       	cpc	r30, r20
    31b8:	f5 07       	cpc	r31, r21
    31ba:	98 f0       	brcs	.+38     	; 0x31e2 <__fp_cmp+0x46>
    31bc:	62 1b       	sub	r22, r18
    31be:	73 0b       	sbc	r23, r19
    31c0:	84 0b       	sbc	r24, r20
    31c2:	95 0b       	sbc	r25, r21
    31c4:	39 f4       	brne	.+14     	; 0x31d4 <__fp_cmp+0x38>
    31c6:	0a 26       	eor	r0, r26
    31c8:	61 f0       	breq	.+24     	; 0x31e2 <__fp_cmp+0x46>
    31ca:	23 2b       	or	r18, r19
    31cc:	24 2b       	or	r18, r20
    31ce:	25 2b       	or	r18, r21
    31d0:	21 f4       	brne	.+8      	; 0x31da <__fp_cmp+0x3e>
    31d2:	08 95       	ret
    31d4:	0a 26       	eor	r0, r26
    31d6:	09 f4       	brne	.+2      	; 0x31da <__fp_cmp+0x3e>
    31d8:	a1 40       	sbci	r26, 0x01	; 1
    31da:	a6 95       	lsr	r26
    31dc:	8f ef       	ldi	r24, 0xFF	; 255
    31de:	81 1d       	adc	r24, r1
    31e0:	81 1d       	adc	r24, r1
    31e2:	08 95       	ret

000031e4 <__fp_inf>:
    31e4:	97 f9       	bld	r25, 7
    31e6:	9f 67       	ori	r25, 0x7F	; 127
    31e8:	80 e8       	ldi	r24, 0x80	; 128
    31ea:	70 e0       	ldi	r23, 0x00	; 0
    31ec:	60 e0       	ldi	r22, 0x00	; 0
    31ee:	08 95       	ret

000031f0 <__fp_nan>:
    31f0:	9f ef       	ldi	r25, 0xFF	; 255
    31f2:	80 ec       	ldi	r24, 0xC0	; 192
    31f4:	08 95       	ret

000031f6 <__fp_powser>:
    31f6:	df 93       	push	r29
    31f8:	cf 93       	push	r28
    31fa:	1f 93       	push	r17
    31fc:	0f 93       	push	r16
    31fe:	ff 92       	push	r15
    3200:	ef 92       	push	r14
    3202:	df 92       	push	r13
    3204:	7b 01       	movw	r14, r22
    3206:	8c 01       	movw	r16, r24
    3208:	68 94       	set
    320a:	05 c0       	rjmp	.+10     	; 0x3216 <__fp_powser+0x20>
    320c:	da 2e       	mov	r13, r26
    320e:	ef 01       	movw	r28, r30
    3210:	24 d1       	rcall	.+584    	; 0x345a <__mulsf3x>
    3212:	fe 01       	movw	r30, r28
    3214:	e8 94       	clt
    3216:	a5 91       	lpm	r26, Z+
    3218:	25 91       	lpm	r18, Z+
    321a:	35 91       	lpm	r19, Z+
    321c:	45 91       	lpm	r20, Z+
    321e:	55 91       	lpm	r21, Z+
    3220:	ae f3       	brts	.-22     	; 0x320c <__fp_powser+0x16>
    3222:	ef 01       	movw	r28, r30
    3224:	5d de       	rcall	.-838    	; 0x2ee0 <__addsf3x>
    3226:	fe 01       	movw	r30, r28
    3228:	97 01       	movw	r18, r14
    322a:	a8 01       	movw	r20, r16
    322c:	da 94       	dec	r13
    322e:	79 f7       	brne	.-34     	; 0x320e <__fp_powser+0x18>
    3230:	df 90       	pop	r13
    3232:	ef 90       	pop	r14
    3234:	ff 90       	pop	r15
    3236:	0f 91       	pop	r16
    3238:	1f 91       	pop	r17
    323a:	cf 91       	pop	r28
    323c:	df 91       	pop	r29
    323e:	08 95       	ret

00003240 <__fp_pscA>:
    3240:	00 24       	eor	r0, r0
    3242:	0a 94       	dec	r0
    3244:	16 16       	cp	r1, r22
    3246:	17 06       	cpc	r1, r23
    3248:	18 06       	cpc	r1, r24
    324a:	09 06       	cpc	r0, r25
    324c:	08 95       	ret

0000324e <__fp_pscB>:
    324e:	00 24       	eor	r0, r0
    3250:	0a 94       	dec	r0
    3252:	12 16       	cp	r1, r18
    3254:	13 06       	cpc	r1, r19
    3256:	14 06       	cpc	r1, r20
    3258:	05 06       	cpc	r0, r21
    325a:	08 95       	ret

0000325c <__fp_round>:
    325c:	09 2e       	mov	r0, r25
    325e:	03 94       	inc	r0
    3260:	00 0c       	add	r0, r0
    3262:	11 f4       	brne	.+4      	; 0x3268 <__fp_round+0xc>
    3264:	88 23       	and	r24, r24
    3266:	52 f0       	brmi	.+20     	; 0x327c <__fp_round+0x20>
    3268:	bb 0f       	add	r27, r27
    326a:	40 f4       	brcc	.+16     	; 0x327c <__fp_round+0x20>
    326c:	bf 2b       	or	r27, r31
    326e:	11 f4       	brne	.+4      	; 0x3274 <__fp_round+0x18>
    3270:	60 ff       	sbrs	r22, 0
    3272:	04 c0       	rjmp	.+8      	; 0x327c <__fp_round+0x20>
    3274:	6f 5f       	subi	r22, 0xFF	; 255
    3276:	7f 4f       	sbci	r23, 0xFF	; 255
    3278:	8f 4f       	sbci	r24, 0xFF	; 255
    327a:	9f 4f       	sbci	r25, 0xFF	; 255
    327c:	08 95       	ret

0000327e <__fp_split3>:
    327e:	57 fd       	sbrc	r21, 7
    3280:	90 58       	subi	r25, 0x80	; 128
    3282:	44 0f       	add	r20, r20
    3284:	55 1f       	adc	r21, r21
    3286:	59 f0       	breq	.+22     	; 0x329e <__fp_splitA+0x10>
    3288:	5f 3f       	cpi	r21, 0xFF	; 255
    328a:	71 f0       	breq	.+28     	; 0x32a8 <__fp_splitA+0x1a>
    328c:	47 95       	ror	r20

0000328e <__fp_splitA>:
    328e:	88 0f       	add	r24, r24
    3290:	97 fb       	bst	r25, 7
    3292:	99 1f       	adc	r25, r25
    3294:	61 f0       	breq	.+24     	; 0x32ae <__fp_splitA+0x20>
    3296:	9f 3f       	cpi	r25, 0xFF	; 255
    3298:	79 f0       	breq	.+30     	; 0x32b8 <__fp_splitA+0x2a>
    329a:	87 95       	ror	r24
    329c:	08 95       	ret
    329e:	12 16       	cp	r1, r18
    32a0:	13 06       	cpc	r1, r19
    32a2:	14 06       	cpc	r1, r20
    32a4:	55 1f       	adc	r21, r21
    32a6:	f2 cf       	rjmp	.-28     	; 0x328c <__fp_split3+0xe>
    32a8:	46 95       	lsr	r20
    32aa:	f1 df       	rcall	.-30     	; 0x328e <__fp_splitA>
    32ac:	08 c0       	rjmp	.+16     	; 0x32be <__fp_splitA+0x30>
    32ae:	16 16       	cp	r1, r22
    32b0:	17 06       	cpc	r1, r23
    32b2:	18 06       	cpc	r1, r24
    32b4:	99 1f       	adc	r25, r25
    32b6:	f1 cf       	rjmp	.-30     	; 0x329a <__fp_splitA+0xc>
    32b8:	86 95       	lsr	r24
    32ba:	71 05       	cpc	r23, r1
    32bc:	61 05       	cpc	r22, r1
    32be:	08 94       	sec
    32c0:	08 95       	ret

000032c2 <__fp_zero>:
    32c2:	e8 94       	clt

000032c4 <__fp_szero>:
    32c4:	bb 27       	eor	r27, r27
    32c6:	66 27       	eor	r22, r22
    32c8:	77 27       	eor	r23, r23
    32ca:	cb 01       	movw	r24, r22
    32cc:	97 f9       	bld	r25, 7
    32ce:	08 95       	ret

000032d0 <__gesf2>:
    32d0:	65 df       	rcall	.-310    	; 0x319c <__fp_cmp>
    32d2:	08 f4       	brcc	.+2      	; 0x32d6 <__gesf2+0x6>
    32d4:	8f ef       	ldi	r24, 0xFF	; 255
    32d6:	08 95       	ret

000032d8 <inverse>:
    32d8:	9b 01       	movw	r18, r22
    32da:	ac 01       	movw	r20, r24
    32dc:	60 e0       	ldi	r22, 0x00	; 0
    32de:	70 e0       	ldi	r23, 0x00	; 0
    32e0:	80 e8       	ldi	r24, 0x80	; 128
    32e2:	9f e3       	ldi	r25, 0x3F	; 63
    32e4:	54 ce       	rjmp	.-856    	; 0x2f8e <__divsf3>
    32e6:	7e cf       	rjmp	.-260    	; 0x31e4 <__fp_inf>
    32e8:	0f c1       	rjmp	.+542    	; 0x3508 <__fp_mpack>

000032ea <ldexp>:
    32ea:	d1 df       	rcall	.-94     	; 0x328e <__fp_splitA>
    32ec:	e8 f3       	brcs	.-6      	; 0x32e8 <inverse+0x10>
    32ee:	99 23       	and	r25, r25
    32f0:	d9 f3       	breq	.-10     	; 0x32e8 <inverse+0x10>
    32f2:	94 0f       	add	r25, r20
    32f4:	51 1d       	adc	r21, r1
    32f6:	bb f3       	brvs	.-18     	; 0x32e6 <inverse+0xe>
    32f8:	91 50       	subi	r25, 0x01	; 1
    32fa:	50 40       	sbci	r21, 0x00	; 0
    32fc:	94 f0       	brlt	.+36     	; 0x3322 <ldexp+0x38>
    32fe:	59 f0       	breq	.+22     	; 0x3316 <ldexp+0x2c>
    3300:	88 23       	and	r24, r24
    3302:	32 f0       	brmi	.+12     	; 0x3310 <ldexp+0x26>
    3304:	66 0f       	add	r22, r22
    3306:	77 1f       	adc	r23, r23
    3308:	88 1f       	adc	r24, r24
    330a:	91 50       	subi	r25, 0x01	; 1
    330c:	50 40       	sbci	r21, 0x00	; 0
    330e:	c1 f7       	brne	.-16     	; 0x3300 <ldexp+0x16>
    3310:	9e 3f       	cpi	r25, 0xFE	; 254
    3312:	51 05       	cpc	r21, r1
    3314:	44 f7       	brge	.-48     	; 0x32e6 <inverse+0xe>
    3316:	88 0f       	add	r24, r24
    3318:	91 1d       	adc	r25, r1
    331a:	96 95       	lsr	r25
    331c:	87 95       	ror	r24
    331e:	97 f9       	bld	r25, 7
    3320:	08 95       	ret
    3322:	5f 3f       	cpi	r21, 0xFF	; 255
    3324:	ac f0       	brlt	.+42     	; 0x3350 <ldexp+0x66>
    3326:	98 3e       	cpi	r25, 0xE8	; 232
    3328:	9c f0       	brlt	.+38     	; 0x3350 <ldexp+0x66>
    332a:	bb 27       	eor	r27, r27
    332c:	86 95       	lsr	r24
    332e:	77 95       	ror	r23
    3330:	67 95       	ror	r22
    3332:	b7 95       	ror	r27
    3334:	08 f4       	brcc	.+2      	; 0x3338 <ldexp+0x4e>
    3336:	b1 60       	ori	r27, 0x01	; 1
    3338:	93 95       	inc	r25
    333a:	c1 f7       	brne	.-16     	; 0x332c <ldexp+0x42>
    333c:	bb 0f       	add	r27, r27
    333e:	58 f7       	brcc	.-42     	; 0x3316 <ldexp+0x2c>
    3340:	11 f4       	brne	.+4      	; 0x3346 <ldexp+0x5c>
    3342:	60 ff       	sbrs	r22, 0
    3344:	e8 cf       	rjmp	.-48     	; 0x3316 <ldexp+0x2c>
    3346:	6f 5f       	subi	r22, 0xFF	; 255
    3348:	7f 4f       	sbci	r23, 0xFF	; 255
    334a:	8f 4f       	sbci	r24, 0xFF	; 255
    334c:	9f 4f       	sbci	r25, 0xFF	; 255
    334e:	e3 cf       	rjmp	.-58     	; 0x3316 <ldexp+0x2c>
    3350:	b9 cf       	rjmp	.-142    	; 0x32c4 <__fp_szero>
    3352:	0e f0       	brts	.+2      	; 0x3356 <ldexp+0x6c>
    3354:	d9 c0       	rjmp	.+434    	; 0x3508 <__fp_mpack>
    3356:	4c cf       	rjmp	.-360    	; 0x31f0 <__fp_nan>
    3358:	68 94       	set
    335a:	44 cf       	rjmp	.-376    	; 0x31e4 <__fp_inf>

0000335c <log>:
    335c:	98 df       	rcall	.-208    	; 0x328e <__fp_splitA>
    335e:	c8 f3       	brcs	.-14     	; 0x3352 <ldexp+0x68>
    3360:	99 23       	and	r25, r25
    3362:	d1 f3       	breq	.-12     	; 0x3358 <ldexp+0x6e>
    3364:	c6 f3       	brts	.-16     	; 0x3356 <ldexp+0x6c>
    3366:	df 93       	push	r29
    3368:	cf 93       	push	r28
    336a:	1f 93       	push	r17
    336c:	0f 93       	push	r16
    336e:	ff 92       	push	r15
    3370:	c9 2f       	mov	r28, r25
    3372:	dd 27       	eor	r29, r29
    3374:	88 23       	and	r24, r24
    3376:	2a f0       	brmi	.+10     	; 0x3382 <log+0x26>
    3378:	21 97       	sbiw	r28, 0x01	; 1
    337a:	66 0f       	add	r22, r22
    337c:	77 1f       	adc	r23, r23
    337e:	88 1f       	adc	r24, r24
    3380:	da f7       	brpl	.-10     	; 0x3378 <log+0x1c>
    3382:	20 e0       	ldi	r18, 0x00	; 0
    3384:	30 e0       	ldi	r19, 0x00	; 0
    3386:	40 e8       	ldi	r20, 0x80	; 128
    3388:	5f eb       	ldi	r21, 0xBF	; 191
    338a:	9f e3       	ldi	r25, 0x3F	; 63
    338c:	88 39       	cpi	r24, 0x98	; 152
    338e:	20 f0       	brcs	.+8      	; 0x3398 <log+0x3c>
    3390:	80 3e       	cpi	r24, 0xE0	; 224
    3392:	30 f0       	brcs	.+12     	; 0x33a0 <log+0x44>
    3394:	21 96       	adiw	r28, 0x01	; 1
    3396:	8f 77       	andi	r24, 0x7F	; 127
    3398:	92 dd       	rcall	.-1244   	; 0x2ebe <__addsf3>
    339a:	e0 e9       	ldi	r30, 0x90	; 144
    339c:	f0 e0       	ldi	r31, 0x00	; 0
    339e:	03 c0       	rjmp	.+6      	; 0x33a6 <log+0x4a>
    33a0:	8e dd       	rcall	.-1252   	; 0x2ebe <__addsf3>
    33a2:	ed eb       	ldi	r30, 0xBD	; 189
    33a4:	f0 e0       	ldi	r31, 0x00	; 0
    33a6:	27 df       	rcall	.-434    	; 0x31f6 <__fp_powser>
    33a8:	8b 01       	movw	r16, r22
    33aa:	be 01       	movw	r22, r28
    33ac:	ec 01       	movw	r28, r24
    33ae:	fb 2e       	mov	r15, r27
    33b0:	6f 57       	subi	r22, 0x7F	; 127
    33b2:	71 09       	sbc	r23, r1
    33b4:	75 95       	asr	r23
    33b6:	77 1f       	adc	r23, r23
    33b8:	88 0b       	sbc	r24, r24
    33ba:	99 0b       	sbc	r25, r25
    33bc:	b4 de       	rcall	.-664    	; 0x3126 <__floatsisf>
    33be:	28 e1       	ldi	r18, 0x18	; 24
    33c0:	32 e7       	ldi	r19, 0x72	; 114
    33c2:	41 e3       	ldi	r20, 0x31	; 49
    33c4:	5f e3       	ldi	r21, 0x3F	; 63
    33c6:	49 d0       	rcall	.+146    	; 0x345a <__mulsf3x>
    33c8:	af 2d       	mov	r26, r15
    33ca:	98 01       	movw	r18, r16
    33cc:	ae 01       	movw	r20, r28
    33ce:	ff 90       	pop	r15
    33d0:	0f 91       	pop	r16
    33d2:	1f 91       	pop	r17
    33d4:	cf 91       	pop	r28
    33d6:	df 91       	pop	r29
    33d8:	83 dd       	rcall	.-1274   	; 0x2ee0 <__addsf3x>
    33da:	40 cf       	rjmp	.-384    	; 0x325c <__fp_round>

000033dc <modf>:
    33dc:	fa 01       	movw	r30, r20
    33de:	dc 01       	movw	r26, r24
    33e0:	aa 0f       	add	r26, r26
    33e2:	bb 1f       	adc	r27, r27
    33e4:	9b 01       	movw	r18, r22
    33e6:	ac 01       	movw	r20, r24
    33e8:	bf 57       	subi	r27, 0x7F	; 127
    33ea:	28 f4       	brcc	.+10     	; 0x33f6 <modf+0x1a>
    33ec:	22 27       	eor	r18, r18
    33ee:	33 27       	eor	r19, r19
    33f0:	44 27       	eor	r20, r20
    33f2:	50 78       	andi	r21, 0x80	; 128
    33f4:	1f c0       	rjmp	.+62     	; 0x3434 <modf+0x58>
    33f6:	b7 51       	subi	r27, 0x17	; 23
    33f8:	88 f4       	brcc	.+34     	; 0x341c <modf+0x40>
    33fa:	ab 2f       	mov	r26, r27
    33fc:	00 24       	eor	r0, r0
    33fe:	46 95       	lsr	r20
    3400:	37 95       	ror	r19
    3402:	27 95       	ror	r18
    3404:	01 1c       	adc	r0, r1
    3406:	a3 95       	inc	r26
    3408:	d2 f3       	brmi	.-12     	; 0x33fe <modf+0x22>
    340a:	00 20       	and	r0, r0
    340c:	69 f0       	breq	.+26     	; 0x3428 <modf+0x4c>
    340e:	22 0f       	add	r18, r18
    3410:	33 1f       	adc	r19, r19
    3412:	44 1f       	adc	r20, r20
    3414:	b3 95       	inc	r27
    3416:	da f3       	brmi	.-10     	; 0x340e <modf+0x32>
    3418:	0d d0       	rcall	.+26     	; 0x3434 <modf+0x58>
    341a:	50 cd       	rjmp	.-1376   	; 0x2ebc <__subsf3>
    341c:	61 30       	cpi	r22, 0x01	; 1
    341e:	71 05       	cpc	r23, r1
    3420:	a0 e8       	ldi	r26, 0x80	; 128
    3422:	8a 07       	cpc	r24, r26
    3424:	b9 46       	sbci	r27, 0x69	; 105
    3426:	30 f4       	brcc	.+12     	; 0x3434 <modf+0x58>
    3428:	9b 01       	movw	r18, r22
    342a:	ac 01       	movw	r20, r24
    342c:	66 27       	eor	r22, r22
    342e:	77 27       	eor	r23, r23
    3430:	88 27       	eor	r24, r24
    3432:	90 78       	andi	r25, 0x80	; 128
    3434:	30 96       	adiw	r30, 0x00	; 0
    3436:	21 f0       	breq	.+8      	; 0x3440 <modf+0x64>
    3438:	20 83       	st	Z, r18
    343a:	31 83       	std	Z+1, r19	; 0x01
    343c:	42 83       	std	Z+2, r20	; 0x02
    343e:	53 83       	std	Z+3, r21	; 0x03
    3440:	08 95       	ret

00003442 <__mulsf3>:
    3442:	0b d0       	rcall	.+22     	; 0x345a <__mulsf3x>
    3444:	0b cf       	rjmp	.-490    	; 0x325c <__fp_round>
    3446:	fc de       	rcall	.-520    	; 0x3240 <__fp_pscA>
    3448:	28 f0       	brcs	.+10     	; 0x3454 <__mulsf3+0x12>
    344a:	01 df       	rcall	.-510    	; 0x324e <__fp_pscB>
    344c:	18 f0       	brcs	.+6      	; 0x3454 <__mulsf3+0x12>
    344e:	95 23       	and	r25, r21
    3450:	09 f0       	breq	.+2      	; 0x3454 <__mulsf3+0x12>
    3452:	c8 ce       	rjmp	.-624    	; 0x31e4 <__fp_inf>
    3454:	cd ce       	rjmp	.-614    	; 0x31f0 <__fp_nan>
    3456:	11 24       	eor	r1, r1
    3458:	35 cf       	rjmp	.-406    	; 0x32c4 <__fp_szero>

0000345a <__mulsf3x>:
    345a:	11 df       	rcall	.-478    	; 0x327e <__fp_split3>
    345c:	a0 f3       	brcs	.-24     	; 0x3446 <__mulsf3+0x4>

0000345e <__mulsf3_pse>:
    345e:	95 9f       	mul	r25, r21
    3460:	d1 f3       	breq	.-12     	; 0x3456 <__mulsf3+0x14>
    3462:	95 0f       	add	r25, r21
    3464:	50 e0       	ldi	r21, 0x00	; 0
    3466:	55 1f       	adc	r21, r21
    3468:	62 9f       	mul	r22, r18
    346a:	f0 01       	movw	r30, r0
    346c:	72 9f       	mul	r23, r18
    346e:	bb 27       	eor	r27, r27
    3470:	f0 0d       	add	r31, r0
    3472:	b1 1d       	adc	r27, r1
    3474:	63 9f       	mul	r22, r19
    3476:	aa 27       	eor	r26, r26
    3478:	f0 0d       	add	r31, r0
    347a:	b1 1d       	adc	r27, r1
    347c:	aa 1f       	adc	r26, r26
    347e:	64 9f       	mul	r22, r20
    3480:	66 27       	eor	r22, r22
    3482:	b0 0d       	add	r27, r0
    3484:	a1 1d       	adc	r26, r1
    3486:	66 1f       	adc	r22, r22
    3488:	82 9f       	mul	r24, r18
    348a:	22 27       	eor	r18, r18
    348c:	b0 0d       	add	r27, r0
    348e:	a1 1d       	adc	r26, r1
    3490:	62 1f       	adc	r22, r18
    3492:	73 9f       	mul	r23, r19
    3494:	b0 0d       	add	r27, r0
    3496:	a1 1d       	adc	r26, r1
    3498:	62 1f       	adc	r22, r18
    349a:	83 9f       	mul	r24, r19
    349c:	a0 0d       	add	r26, r0
    349e:	61 1d       	adc	r22, r1
    34a0:	22 1f       	adc	r18, r18
    34a2:	74 9f       	mul	r23, r20
    34a4:	33 27       	eor	r19, r19
    34a6:	a0 0d       	add	r26, r0
    34a8:	61 1d       	adc	r22, r1
    34aa:	23 1f       	adc	r18, r19
    34ac:	84 9f       	mul	r24, r20
    34ae:	60 0d       	add	r22, r0
    34b0:	21 1d       	adc	r18, r1
    34b2:	82 2f       	mov	r24, r18
    34b4:	76 2f       	mov	r23, r22
    34b6:	6a 2f       	mov	r22, r26
    34b8:	11 24       	eor	r1, r1
    34ba:	9f 57       	subi	r25, 0x7F	; 127
    34bc:	50 40       	sbci	r21, 0x00	; 0
    34be:	8a f0       	brmi	.+34     	; 0x34e2 <__mulsf3_pse+0x84>
    34c0:	e1 f0       	breq	.+56     	; 0x34fa <__mulsf3_pse+0x9c>
    34c2:	88 23       	and	r24, r24
    34c4:	4a f0       	brmi	.+18     	; 0x34d8 <__mulsf3_pse+0x7a>
    34c6:	ee 0f       	add	r30, r30
    34c8:	ff 1f       	adc	r31, r31
    34ca:	bb 1f       	adc	r27, r27
    34cc:	66 1f       	adc	r22, r22
    34ce:	77 1f       	adc	r23, r23
    34d0:	88 1f       	adc	r24, r24
    34d2:	91 50       	subi	r25, 0x01	; 1
    34d4:	50 40       	sbci	r21, 0x00	; 0
    34d6:	a9 f7       	brne	.-22     	; 0x34c2 <__mulsf3_pse+0x64>
    34d8:	9e 3f       	cpi	r25, 0xFE	; 254
    34da:	51 05       	cpc	r21, r1
    34dc:	70 f0       	brcs	.+28     	; 0x34fa <__mulsf3_pse+0x9c>
    34de:	82 ce       	rjmp	.-764    	; 0x31e4 <__fp_inf>
    34e0:	f1 ce       	rjmp	.-542    	; 0x32c4 <__fp_szero>
    34e2:	5f 3f       	cpi	r21, 0xFF	; 255
    34e4:	ec f3       	brlt	.-6      	; 0x34e0 <__mulsf3_pse+0x82>
    34e6:	98 3e       	cpi	r25, 0xE8	; 232
    34e8:	dc f3       	brlt	.-10     	; 0x34e0 <__mulsf3_pse+0x82>
    34ea:	86 95       	lsr	r24
    34ec:	77 95       	ror	r23
    34ee:	67 95       	ror	r22
    34f0:	b7 95       	ror	r27
    34f2:	f7 95       	ror	r31
    34f4:	e7 95       	ror	r30
    34f6:	9f 5f       	subi	r25, 0xFF	; 255
    34f8:	c1 f7       	brne	.-16     	; 0x34ea <__mulsf3_pse+0x8c>
    34fa:	fe 2b       	or	r31, r30
    34fc:	88 0f       	add	r24, r24
    34fe:	91 1d       	adc	r25, r1
    3500:	96 95       	lsr	r25
    3502:	87 95       	ror	r24
    3504:	97 f9       	bld	r25, 7
    3506:	08 95       	ret

00003508 <__fp_mpack>:
    3508:	9f 3f       	cpi	r25, 0xFF	; 255
    350a:	31 f0       	breq	.+12     	; 0x3518 <__fp_mpack_finite+0xc>

0000350c <__fp_mpack_finite>:
    350c:	91 50       	subi	r25, 0x01	; 1
    350e:	20 f4       	brcc	.+8      	; 0x3518 <__fp_mpack_finite+0xc>
    3510:	87 95       	ror	r24
    3512:	77 95       	ror	r23
    3514:	67 95       	ror	r22
    3516:	b7 95       	ror	r27
    3518:	88 0f       	add	r24, r24
    351a:	91 1d       	adc	r25, r1
    351c:	96 95       	lsr	r25
    351e:	87 95       	ror	r24
    3520:	97 f9       	bld	r25, 7
    3522:	08 95       	ret

00003524 <__mulsi3>:
    3524:	db 01       	movw	r26, r22
    3526:	8f 93       	push	r24
    3528:	9f 93       	push	r25
    352a:	7b d0       	rcall	.+246    	; 0x3622 <__muluhisi3>
    352c:	bf 91       	pop	r27
    352e:	af 91       	pop	r26
    3530:	a2 9f       	mul	r26, r18
    3532:	80 0d       	add	r24, r0
    3534:	91 1d       	adc	r25, r1
    3536:	a3 9f       	mul	r26, r19
    3538:	90 0d       	add	r25, r0
    353a:	b2 9f       	mul	r27, r18
    353c:	90 0d       	add	r25, r0
    353e:	11 24       	eor	r1, r1
    3540:	08 95       	ret

00003542 <__udivmodqi4>:
    3542:	99 1b       	sub	r25, r25
    3544:	79 e0       	ldi	r23, 0x09	; 9
    3546:	04 c0       	rjmp	.+8      	; 0x3550 <__udivmodqi4_ep>

00003548 <__udivmodqi4_loop>:
    3548:	99 1f       	adc	r25, r25
    354a:	96 17       	cp	r25, r22
    354c:	08 f0       	brcs	.+2      	; 0x3550 <__udivmodqi4_ep>
    354e:	96 1b       	sub	r25, r22

00003550 <__udivmodqi4_ep>:
    3550:	88 1f       	adc	r24, r24
    3552:	7a 95       	dec	r23
    3554:	c9 f7       	brne	.-14     	; 0x3548 <__udivmodqi4_loop>
    3556:	80 95       	com	r24
    3558:	08 95       	ret

0000355a <__udivmodhi4>:
    355a:	aa 1b       	sub	r26, r26
    355c:	bb 1b       	sub	r27, r27
    355e:	51 e1       	ldi	r21, 0x11	; 17
    3560:	07 c0       	rjmp	.+14     	; 0x3570 <__udivmodhi4_ep>

00003562 <__udivmodhi4_loop>:
    3562:	aa 1f       	adc	r26, r26
    3564:	bb 1f       	adc	r27, r27
    3566:	a6 17       	cp	r26, r22
    3568:	b7 07       	cpc	r27, r23
    356a:	10 f0       	brcs	.+4      	; 0x3570 <__udivmodhi4_ep>
    356c:	a6 1b       	sub	r26, r22
    356e:	b7 0b       	sbc	r27, r23

00003570 <__udivmodhi4_ep>:
    3570:	88 1f       	adc	r24, r24
    3572:	99 1f       	adc	r25, r25
    3574:	5a 95       	dec	r21
    3576:	a9 f7       	brne	.-22     	; 0x3562 <__udivmodhi4_loop>
    3578:	80 95       	com	r24
    357a:	90 95       	com	r25
    357c:	bc 01       	movw	r22, r24
    357e:	cd 01       	movw	r24, r26
    3580:	08 95       	ret

00003582 <__divmodhi4>:
    3582:	97 fb       	bst	r25, 7
    3584:	07 2e       	mov	r0, r23
    3586:	16 f4       	brtc	.+4      	; 0x358c <__divmodhi4+0xa>
    3588:	00 94       	com	r0
    358a:	06 d0       	rcall	.+12     	; 0x3598 <__divmodhi4_neg1>
    358c:	77 fd       	sbrc	r23, 7
    358e:	08 d0       	rcall	.+16     	; 0x35a0 <__divmodhi4_neg2>
    3590:	e4 df       	rcall	.-56     	; 0x355a <__udivmodhi4>
    3592:	07 fc       	sbrc	r0, 7
    3594:	05 d0       	rcall	.+10     	; 0x35a0 <__divmodhi4_neg2>
    3596:	3e f4       	brtc	.+14     	; 0x35a6 <__divmodhi4_exit>

00003598 <__divmodhi4_neg1>:
    3598:	90 95       	com	r25
    359a:	81 95       	neg	r24
    359c:	9f 4f       	sbci	r25, 0xFF	; 255
    359e:	08 95       	ret

000035a0 <__divmodhi4_neg2>:
    35a0:	70 95       	com	r23
    35a2:	61 95       	neg	r22
    35a4:	7f 4f       	sbci	r23, 0xFF	; 255

000035a6 <__divmodhi4_exit>:
    35a6:	08 95       	ret

000035a8 <__udivmodsi4>:
    35a8:	a1 e2       	ldi	r26, 0x21	; 33
    35aa:	1a 2e       	mov	r1, r26
    35ac:	aa 1b       	sub	r26, r26
    35ae:	bb 1b       	sub	r27, r27
    35b0:	fd 01       	movw	r30, r26
    35b2:	0d c0       	rjmp	.+26     	; 0x35ce <__udivmodsi4_ep>

000035b4 <__udivmodsi4_loop>:
    35b4:	aa 1f       	adc	r26, r26
    35b6:	bb 1f       	adc	r27, r27
    35b8:	ee 1f       	adc	r30, r30
    35ba:	ff 1f       	adc	r31, r31
    35bc:	a2 17       	cp	r26, r18
    35be:	b3 07       	cpc	r27, r19
    35c0:	e4 07       	cpc	r30, r20
    35c2:	f5 07       	cpc	r31, r21
    35c4:	20 f0       	brcs	.+8      	; 0x35ce <__udivmodsi4_ep>
    35c6:	a2 1b       	sub	r26, r18
    35c8:	b3 0b       	sbc	r27, r19
    35ca:	e4 0b       	sbc	r30, r20
    35cc:	f5 0b       	sbc	r31, r21

000035ce <__udivmodsi4_ep>:
    35ce:	66 1f       	adc	r22, r22
    35d0:	77 1f       	adc	r23, r23
    35d2:	88 1f       	adc	r24, r24
    35d4:	99 1f       	adc	r25, r25
    35d6:	1a 94       	dec	r1
    35d8:	69 f7       	brne	.-38     	; 0x35b4 <__udivmodsi4_loop>
    35da:	60 95       	com	r22
    35dc:	70 95       	com	r23
    35de:	80 95       	com	r24
    35e0:	90 95       	com	r25
    35e2:	9b 01       	movw	r18, r22
    35e4:	ac 01       	movw	r20, r24
    35e6:	bd 01       	movw	r22, r26
    35e8:	cf 01       	movw	r24, r30
    35ea:	08 95       	ret

000035ec <__divmodsi4>:
    35ec:	05 2e       	mov	r0, r21
    35ee:	97 fb       	bst	r25, 7
    35f0:	16 f4       	brtc	.+4      	; 0x35f6 <__divmodsi4+0xa>
    35f2:	00 94       	com	r0
    35f4:	06 d0       	rcall	.+12     	; 0x3602 <__divmodsi4_neg1>
    35f6:	57 fd       	sbrc	r21, 7
    35f8:	0c d0       	rcall	.+24     	; 0x3612 <__divmodsi4_neg2>
    35fa:	d6 df       	rcall	.-84     	; 0x35a8 <__udivmodsi4>
    35fc:	07 fc       	sbrc	r0, 7
    35fe:	09 d0       	rcall	.+18     	; 0x3612 <__divmodsi4_neg2>
    3600:	7e f4       	brtc	.+30     	; 0x3620 <__divmodsi4_exit>

00003602 <__divmodsi4_neg1>:
    3602:	90 95       	com	r25
    3604:	80 95       	com	r24
    3606:	70 95       	com	r23
    3608:	61 95       	neg	r22
    360a:	7f 4f       	sbci	r23, 0xFF	; 255
    360c:	8f 4f       	sbci	r24, 0xFF	; 255
    360e:	9f 4f       	sbci	r25, 0xFF	; 255
    3610:	08 95       	ret

00003612 <__divmodsi4_neg2>:
    3612:	50 95       	com	r21
    3614:	40 95       	com	r20
    3616:	30 95       	com	r19
    3618:	21 95       	neg	r18
    361a:	3f 4f       	sbci	r19, 0xFF	; 255
    361c:	4f 4f       	sbci	r20, 0xFF	; 255
    361e:	5f 4f       	sbci	r21, 0xFF	; 255

00003620 <__divmodsi4_exit>:
    3620:	08 95       	ret

00003622 <__muluhisi3>:
    3622:	15 d0       	rcall	.+42     	; 0x364e <__umulhisi3>
    3624:	a5 9f       	mul	r26, r21
    3626:	90 0d       	add	r25, r0
    3628:	b4 9f       	mul	r27, r20
    362a:	90 0d       	add	r25, r0
    362c:	a4 9f       	mul	r26, r20
    362e:	80 0d       	add	r24, r0
    3630:	91 1d       	adc	r25, r1
    3632:	11 24       	eor	r1, r1
    3634:	08 95       	ret

00003636 <__mulshisi3>:
    3636:	b7 ff       	sbrs	r27, 7
    3638:	f4 cf       	rjmp	.-24     	; 0x3622 <__muluhisi3>

0000363a <__mulohisi3>:
    363a:	f3 df       	rcall	.-26     	; 0x3622 <__muluhisi3>
    363c:	82 1b       	sub	r24, r18
    363e:	93 0b       	sbc	r25, r19
    3640:	08 95       	ret

00003642 <__tablejump2__>:
    3642:	ee 0f       	add	r30, r30
    3644:	ff 1f       	adc	r31, r31

00003646 <__tablejump__>:
    3646:	05 90       	lpm	r0, Z+
    3648:	f4 91       	lpm	r31, Z
    364a:	e0 2d       	mov	r30, r0
    364c:	09 94       	ijmp

0000364e <__umulhisi3>:
    364e:	a2 9f       	mul	r26, r18
    3650:	b0 01       	movw	r22, r0
    3652:	b3 9f       	mul	r27, r19
    3654:	c0 01       	movw	r24, r0
    3656:	a3 9f       	mul	r26, r19
    3658:	01 d0       	rcall	.+2      	; 0x365c <__umulhisi3+0xe>
    365a:	b2 9f       	mul	r27, r18
    365c:	70 0d       	add	r23, r0
    365e:	81 1d       	adc	r24, r1
    3660:	11 24       	eor	r1, r1
    3662:	91 1d       	adc	r25, r1
    3664:	08 95       	ret

00003666 <__do_global_dtors>:
    3666:	11 e0       	ldi	r17, 0x01	; 1
    3668:	c0 e4       	ldi	r28, 0x40	; 64
    366a:	d1 e0       	ldi	r29, 0x01	; 1
    366c:	03 c0       	rjmp	.+6      	; 0x3674 <__do_global_dtors+0xe>
    366e:	fe 01       	movw	r30, r28
    3670:	ea df       	rcall	.-44     	; 0x3646 <__tablejump__>
    3672:	22 96       	adiw	r28, 0x02	; 2
    3674:	c2 34       	cpi	r28, 0x42	; 66
    3676:	d1 07       	cpc	r29, r17
    3678:	d1 f7       	brne	.-12     	; 0x366e <__do_global_dtors+0x8>
    367a:	f8 94       	cli

0000367c <__stop_program>:
    367c:	ff cf       	rjmp	.-2      	; 0x367c <__stop_program>
